libarrow.so.1700:ArrowCpp_BytesAllocated
libarrow.so.1700:ArrowCpp_CDataIntegration_ExportBatchFromJson
libarrow.so.1700:ArrowCpp_CDataIntegration_ExportSchemaFromJson
libarrow.so.1700:ArrowCpp_CDataIntegration_ImportBatchAndCompareToJson
libarrow.so.1700:ArrowCpp_CDataIntegration_ImportSchemaAndCompareToJson
libarrow.so.1700:_ZN14arrow_vendored17double_conversion10BignumDtoaEdNS0_14BignumDtoaModeEiNS0_6VectorIcEEPiS4_
libarrow.so.1700:_ZN14arrow_vendored17double_conversion13FastFixedDtoaEdiNS0_6VectorIcEEPiS3_
libarrow.so.1700:_ZN14arrow_vendored17double_conversion13StrtodTrimmedENS0_6VectorIKcEEi
libarrow.so.1700:_ZN14arrow_vendored17double_conversion13StrtofTrimmedENS0_6VectorIKcEEi
libarrow.so.1700:_ZN14arrow_vendored17double_conversion16PowersOfTenCache32GetCachedPowerForDecimalExponentEiPNS0_5DiyFpEPi
libarrow.so.1700:_ZN14arrow_vendored17double_conversion16PowersOfTenCache36GetCachedPowerForBinaryExponentRangeEiiPNS0_5DiyFpEPi
libarrow.so.1700:_ZN14arrow_vendored17double_conversion23DoubleToStringConverter13DoubleToAsciiEdNS1_8DtoaModeEiPciPbPiS5_
libarrow.so.1700:_ZN14arrow_vendored17double_conversion23DoubleToStringConverter19EcmaScriptConverterEv
libarrow.so.1700:_ZN14arrow_vendored17double_conversion6Bignum11PlusCompareERKS1_S3_S3_
libarrow.so.1700:_ZN14arrow_vendored17double_conversion6Bignum12AssignBignumERKS1_
libarrow.so.1700:_ZN14arrow_vendored17double_conversion6Bignum12AssignUInt16Et
libarrow.so.1700:_ZN14arrow_vendored17double_conversion6Bignum12AssignUInt64Em
libarrow.so.1700:_ZN14arrow_vendored17double_conversion6Bignum13SubtractTimesERKS1_i
libarrow.so.1700:_ZN14arrow_vendored17double_conversion6Bignum14SubtractBignumERKS1_
libarrow.so.1700:_ZN14arrow_vendored17double_conversion6Bignum15AssignHexStringENS0_6VectorIKcEE
libarrow.so.1700:_ZN14arrow_vendored17double_conversion6Bignum15BigitsShiftLeftEi
libarrow.so.1700:_ZN14arrow_vendored17double_conversion6Bignum16MultiplyByUInt32Ej
libarrow.so.1700:_ZN14arrow_vendored17double_conversion6Bignum16MultiplyByUInt64Em
libarrow.so.1700:_ZN14arrow_vendored17double_conversion6Bignum17AssignPowerUInt16Eti
libarrow.so.1700:_ZN14arrow_vendored17double_conversion6Bignum19AssignDecimalStringENS0_6VectorIKcEE
libarrow.so.1700:_ZN14arrow_vendored17double_conversion6Bignum20MultiplyByPowerOfTenEi
libarrow.so.1700:_ZN14arrow_vendored17double_conversion6Bignum21DivideModuloIntBignumERKS1_
libarrow.so.1700:_ZN14arrow_vendored17double_conversion6Bignum5AlignERKS1_
libarrow.so.1700:_ZN14arrow_vendored17double_conversion6Bignum5ClampEv
libarrow.so.1700:_ZN14arrow_vendored17double_conversion6Bignum6SquareEv
libarrow.so.1700:_ZN14arrow_vendored17double_conversion6Bignum7CompareERKS1_S3_
libarrow.so.1700:_ZN14arrow_vendored17double_conversion6Bignum8RawBigitEi
libarrow.so.1700:_ZN14arrow_vendored17double_conversion6Bignum9AddBignumERKS1_
libarrow.so.1700:_ZN14arrow_vendored17double_conversion6Bignum9AddUInt64Em
libarrow.so.1700:_ZN14arrow_vendored17double_conversion6Bignum9ShiftLeftEi
libarrow.so.1700:_ZN14arrow_vendored17double_conversion6StrtodENS0_6VectorIKcEEi
libarrow.so.1700:_ZN14arrow_vendored17double_conversion6StrtofENS0_6VectorIKcEEi
libarrow.so.1700:_ZN14arrow_vendored17double_conversion8FastDtoaEdNS0_12FastDtoaModeEiNS0_6VectorIcEEPiS4_
libarrow.so.1700:_ZN14arrow_vendored4date11leap_secondC1ERKNSt6chrono10time_pointINS2_3_V212system_clockENS2_8durationIlSt5ratioILl1ELl1EEEEEENS0_6detail12undocumentedE
libarrow.so.1700:_ZN14arrow_vendored4date11leap_secondC2ERKNSt6chrono10time_pointINS2_3_V212system_clockENS2_8durationIlSt5ratioILl1ELl1EEEEEENS0_6detail12undocumentedE
libarrow.so.1700:_ZN14arrow_vendored4date11locate_zoneESt17basic_string_viewIcSt11char_traitsIcEE
libarrow.so.1700:_ZN14arrow_vendored4date12current_zoneEv
libarrow.so.1700:_ZN14arrow_vendored4date13get_tzdb_listEv
libarrow.so.1700:_ZN14arrow_vendored4date8get_tzdbEv
libarrow.so.1700:_ZN14arrow_vendored4date9time_zone9init_implEv
libarrow.so.1700:_ZN14arrow_vendored4date9time_zoneC1ERKNSt7__cxx1112basic_stringIcSt11char_traitsIcESaIcEEENS0_6detail12undocumentedE
libarrow.so.1700:_ZN14arrow_vendored4date9time_zoneC2ERKNSt7__cxx1112basic_stringIcSt11char_traitsIcESaIcEEENS0_6detail12undocumentedE
libarrow.so.1700:_ZN14arrow_vendored4date9tzdb_list10push_frontEPNS0_4tzdbE
libarrow.so.1700:_ZN14arrow_vendored4date9tzdb_list11erase_afterENS1_14const_iteratorE
libarrow.so.1700:_ZN14arrow_vendored4date9tzdb_listC1EOS1_
libarrow.so.1700:_ZN14arrow_vendored4date9tzdb_listC2EOS1_
libarrow.so.1700:_ZN14arrow_vendored4date9tzdb_listD1Ev
libarrow.so.1700:_ZN14arrow_vendored4date9tzdb_listD2Ev
libarrow.so.1700:_ZN14arrow_vendored4datelsERSoRKNS0_11leap_secondE
libarrow.so.1700:_ZN14arrow_vendored4datelsERSoRKNS0_4tzdbE
libarrow.so.1700:_ZN14arrow_vendored4datelsERSoRKNS0_9time_zoneE
libarrow.so.1700:_ZN5arrow10AllTypeIdsEv
libarrow.so.1700:_ZN5arrow10Date32TypeC1Ev
libarrow.so.1700:_ZN5arrow10Date32TypeC2Ev
libarrow.so.1700:_ZN5arrow10Date64TypeC1Ev
libarrow.so.1700:_ZN5arrow10Date64TypeC2Ev
libarrow.so.1700:_ZN5arrow10DebugPrintERKNS_5ArrayEi
libarrow.so.1700:_ZN5arrow10Decimal12810FromStringEPKc
libarrow.so.1700:_ZN5arrow10Decimal12810FromStringEPKcPS0_PiS4_
libarrow.so.1700:_ZN5arrow10Decimal12810FromStringERKNSt7__cxx1112basic_stringIcSt11char_traitsIcESaIcEEE
libarrow.so.1700:_ZN5arrow10Decimal12810FromStringERKNSt7__cxx1112basic_stringIcSt11char_traitsIcESaIcEEEPS0_PiSA_
libarrow.so.1700:_ZN5arrow10Decimal12810FromStringESt17basic_string_viewIcSt11char_traitsIcEE
libarrow.so.1700:_ZN5arrow10Decimal12810FromStringESt17basic_string_viewIcSt11char_traitsIcEEPS0_PiS6_
libarrow.so.1700:_ZN5arrow10Decimal12813FromBigEndianEPKhi
libarrow.so.1700:_ZN5arrow10Decimal1288FromRealEdii
libarrow.so.1700:_ZN5arrow10Decimal1288FromRealEfii
libarrow.so.1700:_ZN5arrow10Decimal128C1ERKNSt7__cxx1112basic_stringIcSt11char_traitsIcESaIcEEE
libarrow.so.1700:_ZN5arrow10Decimal128C2ERKNSt7__cxx1112basic_stringIcSt11char_traitsIcESaIcEEE
libarrow.so.1700:_ZN5arrow10Decimal25610FromStringEPKc
libarrow.so.1700:_ZN5arrow10Decimal25610FromStringEPKcPS0_PiS4_
libarrow.so.1700:_ZN5arrow10Decimal25610FromStringERKNSt7__cxx1112basic_stringIcSt11char_traitsIcESaIcEEE
libarrow.so.1700:_ZN5arrow10Decimal25610FromStringERKNSt7__cxx1112basic_stringIcSt11char_traitsIcESaIcEEEPS0_PiSA_
libarrow.so.1700:_ZN5arrow10Decimal25610FromStringESt17basic_string_viewIcSt11char_traitsIcEE
libarrow.so.1700:_ZN5arrow10Decimal25610FromStringESt17basic_string_viewIcSt11char_traitsIcEEPS0_PiS6_
libarrow.so.1700:_ZN5arrow10Decimal25613FromBigEndianEPKhi
libarrow.so.1700:_ZN5arrow10Decimal2568FromRealEdii
libarrow.so.1700:_ZN5arrow10Decimal2568FromRealEfii
libarrow.so.1700:_ZN5arrow10Decimal256C1ERKNSt7__cxx1112basic_stringIcSt11char_traitsIcESaIcEEE
libarrow.so.1700:_ZN5arrow10Decimal256C2ERKNSt7__cxx1112basic_stringIcSt11char_traitsIcESaIcEEE
libarrow.so.1700:_ZN5arrow10ExportTypeERKNS_8DataTypeEP11ArrowSchema
libarrow.so.1700:_ZN5arrow10FutureImpl10MarkFailedEv
libarrow.so.1700:_ZN5arrow10FutureImpl11AddCallbackENS_8internal6FnOnceIFvRKS0_EEENS_15CallbackOptionsE
libarrow.so.1700:_ZN5arrow10FutureImpl12MakeFinishedENS_11FutureStateE
libarrow.so.1700:_ZN5arrow10FutureImpl12MarkFinishedEv
libarrow.so.1700:_ZN5arrow10FutureImpl14TryAddCallbackERKSt8functionIFNS_8internal6FnOnceIFvRKS0_EEEvEENS_15CallbackOptionsE
libarrow.so.1700:_ZN5arrow10FutureImpl4MakeEv
libarrow.so.1700:_ZN5arrow10FutureImpl4WaitEd
libarrow.so.1700:_ZN5arrow10FutureImpl4WaitEv
libarrow.so.1700:_ZN5arrow10FutureImplC1Ev
libarrow.so.1700:_ZN5arrow10FutureImplC2Ev
libarrow.so.1700:_ZN5arrow10ImportTypeEP11ArrowSchema
libarrow.so.1700:_ZN5arrow10InitializeERKNS_13GlobalOptionsE
libarrow.so.1700:_ZN5arrow10ListScalar16FillScratchSpaceEPhRKSt10shared_ptrINS_5ArrayEE
libarrow.so.1700:_ZN5arrow10ListScalarC1ESt10shared_ptrINS_5ArrayEEb
libarrow.so.1700:_ZN5arrow10ListScalarC2ESt10shared_ptrINS_5ArrayEEb
libarrow.so.1700:_ZN5arrow10MapBuilder10AppendNullEv
libarrow.so.1700:_ZN5arrow10MapBuilder11AppendNullsEl
libarrow.so.1700:_ZN5arrow10MapBuilder12AppendValuesEPKilPKh
libarrow.so.1700:_ZN5arrow10MapBuilder14FinishInternalEPSt10shared_ptrINS_9ArrayDataEE
libarrow.so.1700:_ZN5arrow10MapBuilder16AppendEmptyValueEv
libarrow.so.1700:_ZN5arrow10MapBuilder17AppendEmptyValuesEl
libarrow.so.1700:_ZN5arrow10MapBuilder5ResetEv
libarrow.so.1700:_ZN5arrow10MapBuilder6AppendEv
libarrow.so.1700:_ZN5arrow10MapBuilder6ResizeEl
libarrow.so.1700:_ZN5arrow10MapBuilderC1EPNS_10MemoryPoolERKSt10shared_ptrINS_12ArrayBuilderEERKS3_INS_8DataTypeEE
libarrow.so.1700:_ZN5arrow10MapBuilderC1EPNS_10MemoryPoolERKSt10shared_ptrINS_12ArrayBuilderEES7_RKS3_INS_8DataTypeEE
libarrow.so.1700:_ZN5arrow10MapBuilderC1EPNS_10MemoryPoolERKSt10shared_ptrINS_12ArrayBuilderEES7_b
libarrow.so.1700:_ZN5arrow10MapBuilderC2EPNS_10MemoryPoolERKSt10shared_ptrINS_12ArrayBuilderEERKS3_INS_8DataTypeEE
libarrow.so.1700:_ZN5arrow10MapBuilderC2EPNS_10MemoryPoolERKSt10shared_ptrINS_12ArrayBuilderEES7_RKS3_INS_8DataTypeEE
libarrow.so.1700:_ZN5arrow10MapBuilderC2EPNS_10MemoryPoolERKSt10shared_ptrINS_12ArrayBuilderEES7_b
libarrow.so.1700:_ZN5arrow10MemoryPool13CreateDefaultEv
libarrow.so.1700:_ZN5arrow10NestedTypeD0Ev
libarrow.so.1700:_ZN5arrow10NestedTypeD1Ev
libarrow.so.1700:_ZN5arrow10NestedTypeD2Ev
libarrow.so.1700:_ZN5arrow10NumberTypeD0Ev
libarrow.so.1700:_ZN5arrow10NumberTypeD1Ev
libarrow.so.1700:_ZN5arrow10NumberTypeD2Ev
libarrow.so.1700:_ZN5arrow10StopSource11RequestStopENS_6StatusE
libarrow.so.1700:_ZN5arrow10StopSource11RequestStopEv
libarrow.so.1700:_ZN5arrow10StopSource21RequestStopFromSignalEi
libarrow.so.1700:_ZN5arrow10StopSource5ResetEv
libarrow.so.1700:_ZN5arrow10StopSource5tokenEv
libarrow.so.1700:_ZN5arrow10StopSourceC1Ev
libarrow.so.1700:_ZN5arrow10StopSourceC2Ev
libarrow.so.1700:_ZN5arrow10StopSourceD1Ev
libarrow.so.1700:_ZN5arrow10StopSourceD2Ev
libarrow.so.1700:_ZN5arrow10StructTypeC1ERKSt6vectorISt10shared_ptrINS_5FieldEESaIS4_EE
libarrow.so.1700:_ZN5arrow10StructTypeC2ERKSt6vectorISt10shared_ptrINS_5FieldEESaIS4_EE
libarrow.so.1700:_ZN5arrow10StructTypeD0Ev
libarrow.so.1700:_ZN5arrow10StructTypeD1Ev
libarrow.so.1700:_ZN5arrow10StructTypeD2Ev
libarrow.so.1700:_ZN5arrow10Time32TypeC1ENS_8TimeUnit4typeE
libarrow.so.1700:_ZN5arrow10Time32TypeC2ENS_8TimeUnit4typeE
libarrow.so.1700:_ZN5arrow10Time64TypeC1ENS_8TimeUnit4typeE
libarrow.so.1700:_ZN5arrow10Time64TypeC2ENS_8TimeUnit4typeE
libarrow.so.1700:_ZN5arrow10TypeEqualsERKNS_8DataTypeES2_b
libarrow.so.1700:_ZN5arrow10TypeHolder8ToStringB5cxx11ERKSt6vectorIS0_SaIS0_EEb
libarrow.so.1700:_ZN5arrow10TypeHolder9FromTypesERKSt6vectorISt10shared_ptrINS_8DataTypeEESaIS4_EE
libarrow.so.1700:_ZN5arrow10UnionArray7SetDataESt10shared_ptrINS_9ArrayDataEE
libarrow.so.1700:_ZN5arrow10decimal128Eii
libarrow.so.1700:_ZN5arrow10decimal256Eii
libarrow.so.1700:_ZN5arrow10dictionaryERKSt10shared_ptrINS_8DataTypeEES4_b
libarrow.so.1700:_ZN5arrow10large_listESt10shared_ptrINS_5FieldEE
libarrow.so.1700:_ZN5arrow10large_listESt10shared_ptrINS_8DataTypeEE
libarrow.so.1700:_ZN5arrow10large_utf8Ev
libarrow.so.1700:_ZN5arrow10union_util26LogicalDenseUnionNullCountERKNS_9ArraySpanE
libarrow.so.1700:_ZN5arrow10union_util27LogicalSparseUnionNullCountERKNS_9ArraySpanE
libarrow.so.1700:_ZN5arrow11AllCompleteERKSt6vectorINS_6FutureINS_8internal5EmptyEEESaIS4_EE
libarrow.so.1700:_ZN5arrow11AllFinishedERKSt6vectorINS_6FutureINS_8internal5EmptyEEESaIS4_EE
libarrow.so.1700:_ZN5arrow11ArrayEqualsERKNS_5ArrayES2_RKNS_12EqualOptionsE
libarrow.so.1700:_ZN5arrow11BinaryArrayC1ERKSt10shared_ptrINS_9ArrayDataEE
libarrow.so.1700:_ZN5arrow11BinaryArrayC1ElRKSt10shared_ptrINS_6BufferEES5_S5_ll
libarrow.so.1700:_ZN5arrow11BinaryArrayC2ERKSt10shared_ptrINS_9ArrayDataEE
libarrow.so.1700:_ZN5arrow11BinaryArrayC2ElRKSt10shared_ptrINS_6BufferEES5_S5_ll
libarrow.so.1700:_ZN5arrow11BinaryTypesEv
libarrow.so.1700:_ZN5arrow11ConcatenateERKSt6vectorISt10shared_ptrINS_5ArrayEESaIS3_EEPNS_10MemoryPoolE
libarrow.so.1700:_ZN5arrow11DecimalType11DecimalSizeEi
libarrow.so.1700:_ZN5arrow11DecimalType4MakeENS_4Type4typeEii
libarrow.so.1700:_ZN5arrow11ExportArrayERKNS_5ArrayEP10ArrowArrayP11ArrowSchema
libarrow.so.1700:_ZN5arrow11ExportFieldERKNS_5FieldEP11ArrowSchema
libarrow.so.1700:_ZN5arrow11ImportArrayEP10ArrowArrayP11ArrowSchema
libarrow.so.1700:_ZN5arrow11ImportArrayEP10ArrowArraySt10shared_ptrINS_8DataTypeEE
libarrow.so.1700:_ZN5arrow11ImportFieldEP11ArrowSchema
libarrow.so.1700:_ZN5arrow11IntegerTypeD0Ev
libarrow.so.1700:_ZN5arrow11IntegerTypeD1Ev
libarrow.so.1700:_ZN5arrow11IntegerTypeD2Ev
libarrow.so.1700:_ZN5arrow11MakeBuilderEPNS_10MemoryPoolERKSt10shared_ptrINS_8DataTypeEEPSt10unique_ptrINS_12ArrayBuilderESt14default_deleteIS8_EE
libarrow.so.1700:_ZN5arrow11NullBuilder14FinishInternalEPSt10shared_ptrINS_9ArrayDataEE
libarrow.so.1700:_ZN5arrow11PrettyPrintERKNS_11RecordBatchERKNS_18PrettyPrintOptionsEPSo
libarrow.so.1700:_ZN5arrow11PrettyPrintERKNS_11RecordBatchEiPSo
libarrow.so.1700:_ZN5arrow11PrettyPrintERKNS_12ChunkedArrayERKNS_18PrettyPrintOptionsEPNSt7__cxx1112basic_stringIcSt11char_traitsIcESaIcEEE
libarrow.so.1700:_ZN5arrow11PrettyPrintERKNS_12ChunkedArrayERKNS_18PrettyPrintOptionsEPSo
libarrow.so.1700:_ZN5arrow11PrettyPrintERKNS_5ArrayERKNS_18PrettyPrintOptionsEPNSt7__cxx1112basic_stringIcSt11char_traitsIcESaIcEEE
libarrow.so.1700:_ZN5arrow11PrettyPrintERKNS_5ArrayERKNS_18PrettyPrintOptionsEPSo
libarrow.so.1700:_ZN5arrow11PrettyPrintERKNS_5ArrayEiPSo
libarrow.so.1700:_ZN5arrow11PrettyPrintERKNS_5TableERKNS_18PrettyPrintOptionsEPSo
libarrow.so.1700:_ZN5arrow11PrettyPrintERKNS_6SchemaERKNS_18PrettyPrintOptionsEPNSt7__cxx1112basic_stringIcSt11char_traitsIcESaIcEEE
libarrow.so.1700:_ZN5arrow11PrettyPrintERKNS_6SchemaERKNS_18PrettyPrintOptionsEPSo
libarrow.so.1700:_ZN5arrow11RecordBatch15FromStructArrayERKSt10shared_ptrINS_5ArrayEEPNS_10MemoryPoolE
libarrow.so.1700:_ZN5arrow11RecordBatch4MakeESt10shared_ptrINS_6SchemaEElSt6vectorIS1_INS_5ArrayEESaIS6_EES1_INS_6Device9SyncEventEE
libarrow.so.1700:_ZN5arrow11RecordBatch4MakeESt10shared_ptrINS_6SchemaEElSt6vectorIS1_INS_9ArrayDataEESaIS6_EENS_20DeviceAllocationTypeES1_INS_6Device9SyncEventEE
libarrow.so.1700:_ZN5arrow11RecordBatch9MakeEmptyESt10shared_ptrINS_6SchemaEEPNS_10MemoryPoolE
libarrow.so.1700:_ZN5arrow11RecordBatchC1ERKSt10shared_ptrINS_6SchemaEEl
libarrow.so.1700:_ZN5arrow11RecordBatchC2ERKSt10shared_ptrINS_6SchemaEEl
libarrow.so.1700:_ZN5arrow11StringArrayC1ERKSt10shared_ptrINS_9ArrayDataEE
libarrow.so.1700:_ZN5arrow11StringArrayC1ElRKSt10shared_ptrINS_6BufferEES5_S5_ll
libarrow.so.1700:_ZN5arrow11StringArrayC2ERKSt10shared_ptrINS_9ArrayDataEE
libarrow.so.1700:_ZN5arrow11StringArrayC2ElRKSt10shared_ptrINS_6BufferEES5_S5_ll
libarrow.so.1700:_ZN5arrow11StringTypesEv
libarrow.so.1700:_ZN5arrow11StructArray4MakeERKSt6vectorISt10shared_ptrINS_5ArrayEESaIS4_EERKS1_INSt7__cxx1112basic_stringIcSt11char_traitsIcESaIcEEESaISE_EES2_INS_6BufferEEll
libarrow.so.1700:_ZN5arrow11StructArray4MakeERKSt6vectorISt10shared_ptrINS_5ArrayEESaIS4_EERKS1_IS2_INS_5FieldEESaISA_EES2_INS_6BufferEEll
libarrow.so.1700:_ZN5arrow11StructArrayC1ERKSt10shared_ptrINS_8DataTypeEElRKSt6vectorIS1_INS_5ArrayEESaIS8_EES1_INS_6BufferEEll
libarrow.so.1700:_ZN5arrow11StructArrayC1ERKSt10shared_ptrINS_9ArrayDataEE
libarrow.so.1700:_ZN5arrow11StructArrayC2ERKSt10shared_ptrINS_8DataTypeEElRKSt6vectorIS1_INS_5ArrayEESaIS8_EES1_INS_6BufferEEll
libarrow.so.1700:_ZN5arrow11StructArrayC2ERKSt10shared_ptrINS_9ArrayDataEE
libarrow.so.1700:_ZN5arrow11TypeVisitor5VisitERKNS_10BinaryTypeE
libarrow.so.1700:_ZN5arrow11TypeVisitor5VisitERKNS_10Date32TypeE
libarrow.so.1700:_ZN5arrow11TypeVisitor5VisitERKNS_10Date64TypeE
libarrow.so.1700:_ZN5arrow11TypeVisitor5VisitERKNS_10DoubleTypeE
libarrow.so.1700:_ZN5arrow11TypeVisitor5VisitERKNS_10StringTypeE
libarrow.so.1700:_ZN5arrow11TypeVisitor5VisitERKNS_10StructTypeE
libarrow.so.1700:_ZN5arrow11TypeVisitor5VisitERKNS_10Time32TypeE
libarrow.so.1700:_ZN5arrow11TypeVisitor5VisitERKNS_10Time64TypeE
libarrow.so.1700:_ZN5arrow11TypeVisitor5VisitERKNS_10UInt16TypeE
libarrow.so.1700:_ZN5arrow11TypeVisitor5VisitERKNS_10UInt32TypeE
libarrow.so.1700:_ZN5arrow11TypeVisitor5VisitERKNS_10UInt64TypeE
libarrow.so.1700:_ZN5arrow11TypeVisitor5VisitERKNS_11BooleanTypeE
libarrow.so.1700:_ZN5arrow11TypeVisitor5VisitERKNS_12DurationTypeE
libarrow.so.1700:_ZN5arrow11TypeVisitor5VisitERKNS_12ListViewTypeE
libarrow.so.1700:_ZN5arrow11TypeVisitor5VisitERKNS_13ExtensionTypeE
libarrow.so.1700:_ZN5arrow11TypeVisitor5VisitERKNS_13HalfFloatTypeE
libarrow.so.1700:_ZN5arrow11TypeVisitor5VisitERKNS_13LargeListTypeE
libarrow.so.1700:_ZN5arrow11TypeVisitor5VisitERKNS_13TimestampTypeE
libarrow.so.1700:_ZN5arrow11TypeVisitor5VisitERKNS_14BinaryViewTypeE
libarrow.so.1700:_ZN5arrow11TypeVisitor5VisitERKNS_14Decimal128TypeE
libarrow.so.1700:_ZN5arrow11TypeVisitor5VisitERKNS_14Decimal256TypeE
libarrow.so.1700:_ZN5arrow11TypeVisitor5VisitERKNS_14DenseUnionTypeE
libarrow.so.1700:_ZN5arrow11TypeVisitor5VisitERKNS_14DictionaryTypeE
libarrow.so.1700:_ZN5arrow11TypeVisitor5VisitERKNS_14StringViewTypeE
libarrow.so.1700:_ZN5arrow11TypeVisitor5VisitERKNS_15LargeBinaryTypeE
libarrow.so.1700:_ZN5arrow11TypeVisitor5VisitERKNS_15LargeStringTypeE
libarrow.so.1700:_ZN5arrow11TypeVisitor5VisitERKNS_15SparseUnionTypeE
libarrow.so.1700:_ZN5arrow11TypeVisitor5VisitERKNS_17FixedSizeListTypeE
libarrow.so.1700:_ZN5arrow11TypeVisitor5VisitERKNS_17LargeListViewTypeE
libarrow.so.1700:_ZN5arrow11TypeVisitor5VisitERKNS_17MonthIntervalTypeE
libarrow.so.1700:_ZN5arrow11TypeVisitor5VisitERKNS_17RunEndEncodedTypeE
libarrow.so.1700:_ZN5arrow11TypeVisitor5VisitERKNS_19DayTimeIntervalTypeE
libarrow.so.1700:_ZN5arrow11TypeVisitor5VisitERKNS_19FixedSizeBinaryTypeE
libarrow.so.1700:_ZN5arrow11TypeVisitor5VisitERKNS_24MonthDayNanoIntervalTypeE
libarrow.so.1700:_ZN5arrow11TypeVisitor5VisitERKNS_7MapTypeE
libarrow.so.1700:_ZN5arrow11TypeVisitor5VisitERKNS_8Int8TypeE
libarrow.so.1700:_ZN5arrow11TypeVisitor5VisitERKNS_8ListTypeE
libarrow.so.1700:_ZN5arrow11TypeVisitor5VisitERKNS_8NullTypeE
libarrow.so.1700:_ZN5arrow11TypeVisitor5VisitERKNS_9FloatTypeE
libarrow.so.1700:_ZN5arrow11TypeVisitor5VisitERKNS_9Int16TypeE
libarrow.so.1700:_ZN5arrow11TypeVisitor5VisitERKNS_9Int32TypeE
libarrow.so.1700:_ZN5arrow11TypeVisitor5VisitERKNS_9Int64TypeE
libarrow.so.1700:_ZN5arrow11TypeVisitor5VisitERKNS_9UInt8TypeE
libarrow.so.1700:_ZN5arrow11UnreachableEPKc
libarrow.so.1700:_ZN5arrow11UnreachableESt17basic_string_viewIcSt11char_traitsIcEE
libarrow.so.1700:_ZN5arrow11binary_viewEv
libarrow.so.1700:_ZN5arrow11dense_unionERKSt6vectorISt10shared_ptrINS_5ArrayEESaIS3_EES0_INSt7__cxx1112basic_stringIcSt11char_traitsIcESaIcEEESaISD_EES0_IaSaIaEE
libarrow.so.1700:_ZN5arrow11dense_unionESt6vectorISt10shared_ptrINS_5FieldEESaIS3_EES0_IaSaIaEE
libarrow.so.1700:_ZN5arrow12ArrayBuilder10SetNotNullEl
libarrow.so.1700:_ZN5arrow12ArrayBuilder10TrimBufferElPNS_15ResizableBufferE
libarrow.so.1700:_ZN5arrow12ArrayBuilder12AppendScalarERKNS_6ScalarEl
libarrow.so.1700:_ZN5arrow12ArrayBuilder13AppendScalarsERKSt6vectorISt10shared_ptrINS_6ScalarEESaIS4_EE
libarrow.so.1700:_ZN5arrow12ArrayBuilder13UnsafeSetNullEl
libarrow.so.1700:_ZN5arrow12ArrayBuilder14AppendToBitmapEPKhl
libarrow.so.1700:_ZN5arrow12ArrayBuilder14AppendToBitmapEb
libarrow.so.1700:_ZN5arrow12ArrayBuilder14AppendToBitmapElb
libarrow.so.1700:_ZN5arrow12ArrayBuilder14CheckArrayTypeENS_4Type4typeERKNS_5ArrayEPKc
libarrow.so.1700:_ZN5arrow12ArrayBuilder14CheckArrayTypeERKSt10shared_ptrINS_8DataTypeEERKNS_5ArrayEPKc
libarrow.so.1700:_ZN5arrow12ArrayBuilder16UnsafeSetNotNullEl
libarrow.so.1700:_ZN5arrow12ArrayBuilder20UnsafeAppendToBitmapERKSt6vectorIbSaIbEE
libarrow.so.1700:_ZN5arrow12ArrayBuilder5ResetEv
libarrow.so.1700:_ZN5arrow12ArrayBuilder6FinishEPSt10shared_ptrINS_5ArrayEE
libarrow.so.1700:_ZN5arrow12ArrayBuilder6FinishEv
libarrow.so.1700:_ZN5arrow12ArrayBuilder6ResizeEl
libarrow.so.1700:_ZN5arrow12ArrayVisitor5VisitERKNS_11BinaryArrayE
libarrow.so.1700:_ZN5arrow12ArrayVisitor5VisitERKNS_11StringArrayE
libarrow.so.1700:_ZN5arrow12ArrayVisitor5VisitERKNS_11StructArrayE
libarrow.so.1700:_ZN5arrow12ArrayVisitor5VisitERKNS_12BooleanArrayE
libarrow.so.1700:_ZN5arrow12ArrayVisitor5VisitERKNS_12NumericArrayINS_10Date32TypeEEE
libarrow.so.1700:_ZN5arrow12ArrayVisitor5VisitERKNS_12NumericArrayINS_10Date64TypeEEE
libarrow.so.1700:_ZN5arrow12ArrayVisitor5VisitERKNS_12NumericArrayINS_10DoubleTypeEEE
libarrow.so.1700:_ZN5arrow12ArrayVisitor5VisitERKNS_12NumericArrayINS_10Time32TypeEEE
libarrow.so.1700:_ZN5arrow12ArrayVisitor5VisitERKNS_12NumericArrayINS_10Time64TypeEEE
libarrow.so.1700:_ZN5arrow12ArrayVisitor5VisitERKNS_12NumericArrayINS_10UInt16TypeEEE
libarrow.so.1700:_ZN5arrow12ArrayVisitor5VisitERKNS_12NumericArrayINS_10UInt32TypeEEE
libarrow.so.1700:_ZN5arrow12ArrayVisitor5VisitERKNS_12NumericArrayINS_10UInt64TypeEEE
libarrow.so.1700:_ZN5arrow12ArrayVisitor5VisitERKNS_12NumericArrayINS_12DurationTypeEEE
libarrow.so.1700:_ZN5arrow12ArrayVisitor5VisitERKNS_12NumericArrayINS_13HalfFloatTypeEEE
libarrow.so.1700:_ZN5arrow12ArrayVisitor5VisitERKNS_12NumericArrayINS_13TimestampTypeEEE
libarrow.so.1700:_ZN5arrow12ArrayVisitor5VisitERKNS_12NumericArrayINS_17MonthIntervalTypeEEE
libarrow.so.1700:_ZN5arrow12ArrayVisitor5VisitERKNS_12NumericArrayINS_8Int8TypeEEE
libarrow.so.1700:_ZN5arrow12ArrayVisitor5VisitERKNS_12NumericArrayINS_9FloatTypeEEE
libarrow.so.1700:_ZN5arrow12ArrayVisitor5VisitERKNS_12NumericArrayINS_9Int16TypeEEE
libarrow.so.1700:_ZN5arrow12ArrayVisitor5VisitERKNS_12NumericArrayINS_9Int32TypeEEE
libarrow.so.1700:_ZN5arrow12ArrayVisitor5VisitERKNS_12NumericArrayINS_9Int64TypeEEE
libarrow.so.1700:_ZN5arrow12ArrayVisitor5VisitERKNS_12NumericArrayINS_9UInt8TypeEEE
libarrow.so.1700:_ZN5arrow12ArrayVisitor5VisitERKNS_13ListViewArrayE
libarrow.so.1700:_ZN5arrow12ArrayVisitor5VisitERKNS_14ExtensionArrayE
libarrow.so.1700:_ZN5arrow12ArrayVisitor5VisitERKNS_14LargeListArrayE
libarrow.so.1700:_ZN5arrow12ArrayVisitor5VisitERKNS_15BinaryViewArrayE
libarrow.so.1700:_ZN5arrow12ArrayVisitor5VisitERKNS_15Decimal128ArrayE
libarrow.so.1700:_ZN5arrow12ArrayVisitor5VisitERKNS_15Decimal256ArrayE
libarrow.so.1700:_ZN5arrow12ArrayVisitor5VisitERKNS_15DenseUnionArrayE
libarrow.so.1700:_ZN5arrow12ArrayVisitor5VisitERKNS_15DictionaryArrayE
libarrow.so.1700:_ZN5arrow12ArrayVisitor5VisitERKNS_15StringViewArrayE
libarrow.so.1700:_ZN5arrow12ArrayVisitor5VisitERKNS_16LargeBinaryArrayE
libarrow.so.1700:_ZN5arrow12ArrayVisitor5VisitERKNS_16LargeStringArrayE
libarrow.so.1700:_ZN5arrow12ArrayVisitor5VisitERKNS_16SparseUnionArrayE
libarrow.so.1700:_ZN5arrow12ArrayVisitor5VisitERKNS_18FixedSizeListArrayE
libarrow.so.1700:_ZN5arrow12ArrayVisitor5VisitERKNS_18LargeListViewArrayE
libarrow.so.1700:_ZN5arrow12ArrayVisitor5VisitERKNS_18RunEndEncodedArrayE
libarrow.so.1700:_ZN5arrow12ArrayVisitor5VisitERKNS_20DayTimeIntervalArrayE
libarrow.so.1700:_ZN5arrow12ArrayVisitor5VisitERKNS_20FixedSizeBinaryArrayE
libarrow.so.1700:_ZN5arrow12ArrayVisitor5VisitERKNS_25MonthDayNanoIntervalArrayE
libarrow.so.1700:_ZN5arrow12ArrayVisitor5VisitERKNS_8MapArrayE
libarrow.so.1700:_ZN5arrow12ArrayVisitor5VisitERKNS_9ListArrayE
libarrow.so.1700:_ZN5arrow12ArrayVisitor5VisitERKNS_9NullArrayE
libarrow.so.1700:_ZN5arrow12BaseListTypeD0Ev
libarrow.so.1700:_ZN5arrow12BaseListTypeD1Ev
libarrow.so.1700:_ZN5arrow12BaseListTypeD2Ev
libarrow.so.1700:_ZN5arrow12BinaryScalar16FillScratchSpaceEPhRKSt10shared_ptrINS_6BufferEE
libarrow.so.1700:_ZN5arrow12BooleanArrayC1ERKSt10shared_ptrINS_9ArrayDataEE
libarrow.so.1700:_ZN5arrow12BooleanArrayC1ElRKSt10shared_ptrINS_6BufferEES5_ll
libarrow.so.1700:_ZN5arrow12BooleanArrayC2ERKSt10shared_ptrINS_9ArrayDataEE
libarrow.so.1700:_ZN5arrow12BooleanArrayC2ElRKSt10shared_ptrINS_6BufferEES5_ll
libarrow.so.1700:_ZN5arrow12ChunkedArray4MakeESt6vectorISt10shared_ptrINS_5ArrayEESaIS4_EES2_INS_8DataTypeEE
libarrow.so.1700:_ZN5arrow12ChunkedArray9MakeEmptyESt10shared_ptrINS_8DataTypeEEPNS_10MemoryPoolE
libarrow.so.1700:_ZN5arrow12ChunkedArrayC1ESt6vectorISt10shared_ptrINS_5ArrayEESaIS4_EES2_INS_8DataTypeEE
libarrow.so.1700:_ZN5arrow12ChunkedArrayC2ESt6vectorISt10shared_ptrINS_5ArrayEESaIS4_EES2_INS_8DataTypeEE
libarrow.so.1700:_ZN5arrow12ExportSchemaERKNS_6SchemaEP11ArrowSchema
libarrow.so.1700:_ZN5arrow12GetBuildInfoEv
libarrow.so.1700:_ZN5arrow12ImportSchemaEP11ArrowSchema
libarrow.so.1700:_ZN5arrow12NumericTypesEv
libarrow.so.1700:_ZN5arrow12ScalarEqualsERKNS_6ScalarES2_RKNS_12EqualOptionsE
libarrow.so.1700:_ZN5arrow12SparseTensorC1ERKSt10shared_ptrINS_8DataTypeEERKS1_INS_6BufferEERKSt6vectorIlSaIlEERKS1_INS_11SparseIndexEERKSA_INSt7__cxx1112basic_stringIcSt11char_traitsIcESaIcEEESaISO_EE
libarrow.so.1700:_ZN5arrow12SparseTensorC2ERKSt10shared_ptrINS_8DataTypeEERKS1_INS_6BufferEERKSt6vectorIlSaIlEERKS1_INS_11SparseIndexEERKSA_INSt7__cxx1112basic_stringIcSt11char_traitsIcESaIcEEESaISO_EE
libarrow.so.1700:_ZN5arrow12StructScalar4MakeESt6vectorISt10shared_ptrINS_6ScalarEESaIS4_EES1_INSt7__cxx1112basic_stringIcSt11char_traitsIcESaIcEEESaISC_EE
libarrow.so.1700:_ZN5arrow12TemporalTypeD0Ev
libarrow.so.1700:_ZN5arrow12TemporalTypeD1Ev
libarrow.so.1700:_ZN5arrow12TemporalTypeD2Ev
libarrow.so.1700:_ZN5arrow12TensorEqualsERKNS_6TensorES2_RKNS_12EqualOptionsE
libarrow.so.1700:_ZN5arrow12UnifySchemasERKSt6vectorISt10shared_ptrINS_6SchemaEESaIS3_EENS_5Field12MergeOptionsE
libarrow.so.1700:_ZN5arrow12large_binaryEv
libarrow.so.1700:_ZN5arrow12sparse_unionERKSt6vectorISt10shared_ptrINS_5ArrayEESaIS3_EES0_INSt7__cxx1112basic_stringIcSt11char_traitsIcESaIcEEESaISD_EES0_IaSaIaEE
libarrow.so.1700:_ZN5arrow12sparse_unionESt6vectorISt10shared_ptrINS_5FieldEESaIS3_EES0_IaSaIaEE
libarrow.so.1700:_ZN5arrow13DurationTypesEv
libarrow.so.1700:_ZN5arrow13ExtensionType9WrapArrayERKSt10shared_ptrINS_8DataTypeEERKS1_INS_12ChunkedArrayEE
libarrow.so.1700:_ZN5arrow13ExtensionType9WrapArrayERKSt10shared_ptrINS_8DataTypeEERKS1_INS_5ArrayEE
libarrow.so.1700:_ZN5arrow13IntervalTypesEv
libarrow.so.1700:_ZN5arrow13ListViewArray10FromArraysERKNS_5ArrayES3_S3_PNS_10MemoryPoolESt10shared_ptrINS_6BufferEEl
libarrow.so.1700:_ZN5arrow13ListViewArray10FromArraysESt10shared_ptrINS_8DataTypeEERKNS_5ArrayES6_S6_PNS_10MemoryPoolES1_INS_6BufferEEl
libarrow.so.1700:_ZN5arrow13ListViewArray7SetDataERKSt10shared_ptrINS_9ArrayDataEE
libarrow.so.1700:_ZN5arrow13ListViewArray8FromListERKNS_9ListArrayEPNS_10MemoryPoolE
libarrow.so.1700:_ZN5arrow13ListViewArrayC1ESt10shared_ptrINS_8DataTypeEElS1_INS_6BufferEES5_S1_INS_5ArrayEES5_ll
libarrow.so.1700:_ZN5arrow13ListViewArrayC1ESt10shared_ptrINS_9ArrayDataEE
libarrow.so.1700:_ZN5arrow13ListViewArrayC2ESt10shared_ptrINS_8DataTypeEElS1_INS_6BufferEES5_S1_INS_5ArrayEES5_ll
libarrow.so.1700:_ZN5arrow13ListViewArrayC2ESt10shared_ptrINS_9ArrayDataEE
libarrow.so.1700:_ZN5arrow13MemoryManager10CopyBufferERKSt10shared_ptrINS_6BufferEERKS1_IS0_E
libarrow.so.1700:_ZN5arrow13MemoryManager10ViewBufferERKSt10shared_ptrINS_6BufferEERKS1_IS0_E
libarrow.so.1700:_ZN5arrow13MemoryManager12CopyBufferToERKSt10shared_ptrINS_6BufferEERKS1_IS0_E
libarrow.so.1700:_ZN5arrow13MemoryManager12CopyNonOwnedERKNS_6BufferERKSt10shared_ptrIS0_E
libarrow.so.1700:_ZN5arrow13MemoryManager12ViewBufferToERKSt10shared_ptrINS_6BufferEERKS1_IS0_E
libarrow.so.1700:_ZN5arrow13MemoryManager14CopyBufferFromERKSt10shared_ptrINS_6BufferEERKS1_IS0_E
libarrow.so.1700:_ZN5arrow13MemoryManager14CopyNonOwnedToERKNS_6BufferERKSt10shared_ptrIS0_E
libarrow.so.1700:_ZN5arrow13MemoryManager14ViewBufferFromERKSt10shared_ptrINS_6BufferEERKS1_IS0_E
libarrow.so.1700:_ZN5arrow13MemoryManager16CopyNonOwnedFromERKNS_6BufferERKSt10shared_ptrIS0_E
libarrow.so.1700:_ZN5arrow13MemoryManager19MakeDeviceSyncEventEv
libarrow.so.1700:_ZN5arrow13MemoryManager19WrapDeviceSyncEventEPvSt8functionIFvS1_EE
libarrow.so.1700:_ZN5arrow13MemoryManager20CopyBufferSliceToCPUERKSt10shared_ptrINS_6BufferEEllPh
libarrow.so.1700:_ZN5arrow13MemoryManagerD0Ev
libarrow.so.1700:_ZN5arrow13MemoryManagerD1Ev
libarrow.so.1700:_ZN5arrow13MemoryManagerD2Ev
libarrow.so.1700:_ZN5arrow13MutableBufferC1ERKSt10shared_ptrINS_6BufferEEll
libarrow.so.1700:_ZN5arrow13MutableBufferC2ERKSt10shared_ptrINS_6BufferEEll
libarrow.so.1700:_ZN5arrow13ParseHexValueEPKcPh
libarrow.so.1700:_ZN5arrow13ScalarVisitor5VisitERKNS_10Int8ScalarE
libarrow.so.1700:_ZN5arrow13ScalarVisitor5VisitERKNS_10ListScalarE
libarrow.so.1700:_ZN5arrow13ScalarVisitor5VisitERKNS_10NullScalarE
libarrow.so.1700:_ZN5arrow13ScalarVisitor5VisitERKNS_11FloatScalarE
libarrow.so.1700:_ZN5arrow13ScalarVisitor5VisitERKNS_11Int16ScalarE
libarrow.so.1700:_ZN5arrow13ScalarVisitor5VisitERKNS_11Int32ScalarE
libarrow.so.1700:_ZN5arrow13ScalarVisitor5VisitERKNS_11Int64ScalarE
libarrow.so.1700:_ZN5arrow13ScalarVisitor5VisitERKNS_11UInt8ScalarE
libarrow.so.1700:_ZN5arrow13ScalarVisitor5VisitERKNS_12BinaryScalarE
libarrow.so.1700:_ZN5arrow13ScalarVisitor5VisitERKNS_12Date32ScalarE
libarrow.so.1700:_ZN5arrow13ScalarVisitor5VisitERKNS_12Date64ScalarE
libarrow.so.1700:_ZN5arrow13ScalarVisitor5VisitERKNS_12DoubleScalarE
libarrow.so.1700:_ZN5arrow13ScalarVisitor5VisitERKNS_12StringScalarE
libarrow.so.1700:_ZN5arrow13ScalarVisitor5VisitERKNS_12StructScalarE
libarrow.so.1700:_ZN5arrow13ScalarVisitor5VisitERKNS_12Time32ScalarE
libarrow.so.1700:_ZN5arrow13ScalarVisitor5VisitERKNS_12Time64ScalarE
libarrow.so.1700:_ZN5arrow13ScalarVisitor5VisitERKNS_12UInt16ScalarE
libarrow.so.1700:_ZN5arrow13ScalarVisitor5VisitERKNS_12UInt32ScalarE
libarrow.so.1700:_ZN5arrow13ScalarVisitor5VisitERKNS_12UInt64ScalarE
libarrow.so.1700:_ZN5arrow13ScalarVisitor5VisitERKNS_13BooleanScalarE
libarrow.so.1700:_ZN5arrow13ScalarVisitor5VisitERKNS_14DurationScalarE
libarrow.so.1700:_ZN5arrow13ScalarVisitor5VisitERKNS_14ListViewScalarE
libarrow.so.1700:_ZN5arrow13ScalarVisitor5VisitERKNS_15ExtensionScalarE
libarrow.so.1700:_ZN5arrow13ScalarVisitor5VisitERKNS_15HalfFloatScalarE
libarrow.so.1700:_ZN5arrow13ScalarVisitor5VisitERKNS_15LargeListScalarE
libarrow.so.1700:_ZN5arrow13ScalarVisitor5VisitERKNS_15TimestampScalarE
libarrow.so.1700:_ZN5arrow13ScalarVisitor5VisitERKNS_16BinaryViewScalarE
libarrow.so.1700:_ZN5arrow13ScalarVisitor5VisitERKNS_16Decimal128ScalarE
libarrow.so.1700:_ZN5arrow13ScalarVisitor5VisitERKNS_16Decimal256ScalarE
libarrow.so.1700:_ZN5arrow13ScalarVisitor5VisitERKNS_16DenseUnionScalarE
libarrow.so.1700:_ZN5arrow13ScalarVisitor5VisitERKNS_16DictionaryScalarE
libarrow.so.1700:_ZN5arrow13ScalarVisitor5VisitERKNS_16StringViewScalarE
libarrow.so.1700:_ZN5arrow13ScalarVisitor5VisitERKNS_17LargeBinaryScalarE
libarrow.so.1700:_ZN5arrow13ScalarVisitor5VisitERKNS_17LargeStringScalarE
libarrow.so.1700:_ZN5arrow13ScalarVisitor5VisitERKNS_17SparseUnionScalarE
libarrow.so.1700:_ZN5arrow13ScalarVisitor5VisitERKNS_19FixedSizeListScalarE
libarrow.so.1700:_ZN5arrow13ScalarVisitor5VisitERKNS_19LargeListViewScalarE
libarrow.so.1700:_ZN5arrow13ScalarVisitor5VisitERKNS_19MonthIntervalScalarE
libarrow.so.1700:_ZN5arrow13ScalarVisitor5VisitERKNS_19RunEndEncodedScalarE
libarrow.so.1700:_ZN5arrow13ScalarVisitor5VisitERKNS_21DayTimeIntervalScalarE
libarrow.so.1700:_ZN5arrow13ScalarVisitor5VisitERKNS_21FixedSizeBinaryScalarE
libarrow.so.1700:_ZN5arrow13ScalarVisitor5VisitERKNS_26MonthDayNanoIntervalScalarE
libarrow.so.1700:_ZN5arrow13ScalarVisitor5VisitERKNS_9MapScalarE
libarrow.so.1700:_ZN5arrow13SchemaBuilder10AddSchemasERKSt6vectorISt10shared_ptrINS_6SchemaEESaIS4_EE
libarrow.so.1700:_ZN5arrow13SchemaBuilder11AddMetadataERKNS_16KeyValueMetadataE
libarrow.so.1700:_ZN5arrow13SchemaBuilder13AreCompatibleERKSt6vectorISt10shared_ptrINS_6SchemaEESaIS4_EENS0_14ConflictPolicyE
libarrow.so.1700:_ZN5arrow13SchemaBuilder5MergeERKSt6vectorISt10shared_ptrINS_6SchemaEESaIS4_EENS0_14ConflictPolicyE
libarrow.so.1700:_ZN5arrow13SchemaBuilder5ResetEv
libarrow.so.1700:_ZN5arrow13SchemaBuilder8AddFieldERKSt10shared_ptrINS_5FieldEE
libarrow.so.1700:_ZN5arrow13SchemaBuilder9AddFieldsERKSt6vectorISt10shared_ptrINS_5FieldEESaIS4_EE
libarrow.so.1700:_ZN5arrow13SchemaBuilder9AddSchemaERKSt10shared_ptrINS_6SchemaEE
libarrow.so.1700:_ZN5arrow13SchemaBuilder9SetPolicyENS0_14ConflictPolicyE
libarrow.so.1700:_ZN5arrow13SchemaBuilderC1ENS0_14ConflictPolicyENS_5Field12MergeOptionsE
libarrow.so.1700:_ZN5arrow13SchemaBuilderC1ERKSt10shared_ptrINS_6SchemaEENS0_14ConflictPolicyENS_5Field12MergeOptionsE
libarrow.so.1700:_ZN5arrow13SchemaBuilderC1ESt6vectorISt10shared_ptrINS_5FieldEESaIS4_EENS0_14ConflictPolicyENS3_12MergeOptionsE
libarrow.so.1700:_ZN5arrow13SchemaBuilderC2ENS0_14ConflictPolicyENS_5Field12MergeOptionsE
libarrow.so.1700:_ZN5arrow13SchemaBuilderC2ERKSt10shared_ptrINS_6SchemaEENS0_14ConflictPolicyENS_5Field12MergeOptionsE
libarrow.so.1700:_ZN5arrow13SchemaBuilderC2ESt6vectorISt10shared_ptrINS_5FieldEESaIS4_EENS0_14ConflictPolicyENS3_12MergeOptionsE
libarrow.so.1700:_ZN5arrow13SchemaBuilderD1Ev
libarrow.so.1700:_ZN5arrow13SchemaBuilderD2Ev
libarrow.so.1700:_ZN5arrow13StructBuilder14FinishInternalEPSt10shared_ptrINS_9ArrayDataEE
libarrow.so.1700:_ZN5arrow13StructBuilder5ResetEv
libarrow.so.1700:_ZN5arrow13StructBuilderC1ERKSt10shared_ptrINS_8DataTypeEEPNS_10MemoryPoolESt6vectorIS1_INS_12ArrayBuilderEESaISA_EE
libarrow.so.1700:_ZN5arrow13StructBuilderC2ERKSt10shared_ptrINS_8DataTypeEEPNS_10MemoryPoolESt6vectorIS1_INS_12ArrayBuilderEESaISA_EE
libarrow.so.1700:_ZN5arrow13TemporalTypesEv
libarrow.so.1700:_ZN5arrow14AllocateBitmapElPNS_10MemoryPoolE
libarrow.so.1700:_ZN5arrow14AllocateBufferElPNS_10MemoryPoolE
libarrow.so.1700:_ZN5arrow14AllocateBufferEllPNS_10MemoryPoolE
libarrow.so.1700:_ZN5arrow14BaseBinaryTypeD0Ev
libarrow.so.1700:_ZN5arrow14BaseBinaryTypeD1Ev
libarrow.so.1700:_ZN5arrow14BaseBinaryTypeD2Ev
libarrow.so.1700:_ZN5arrow14BaseListScalarC1ESt10shared_ptrINS_5ArrayEES1_INS_8DataTypeEEb
libarrow.so.1700:_ZN5arrow14BaseListScalarC2ESt10shared_ptrINS_5ArrayEES1_INS_8DataTypeEEb
libarrow.so.1700:_ZN5arrow14BooleanBuilder12AppendValuesEPKhlRKSt6vectorIbSaIbEE
libarrow.so.1700:_ZN5arrow14BooleanBuilder12AppendValuesEPKhlS2_
libarrow.so.1700:_ZN5arrow14BooleanBuilder12AppendValuesEPKhlS2_l
libarrow.so.1700:_ZN5arrow14BooleanBuilder12AppendValuesERKSt6vectorIbSaIbEE
libarrow.so.1700:_ZN5arrow14BooleanBuilder12AppendValuesERKSt6vectorIbSaIbEES5_
libarrow.so.1700:_ZN5arrow14BooleanBuilder12AppendValuesERKSt6vectorIhSaIhEE
libarrow.so.1700:_ZN5arrow14BooleanBuilder12AppendValuesERKSt6vectorIhSaIhEERKS1_IbSaIbEE
libarrow.so.1700:_ZN5arrow14BooleanBuilder12AppendValuesElb
libarrow.so.1700:_ZN5arrow14BooleanBuilder14FinishInternalEPSt10shared_ptrINS_9ArrayDataEE
libarrow.so.1700:_ZN5arrow14BooleanBuilder5ResetEv
libarrow.so.1700:_ZN5arrow14BooleanBuilder6ResizeEl
libarrow.so.1700:_ZN5arrow14BooleanBuilderC1EPNS_10MemoryPoolEl
libarrow.so.1700:_ZN5arrow14BooleanBuilderC1ERKSt10shared_ptrINS_8DataTypeEEPNS_10MemoryPoolEl
libarrow.so.1700:_ZN5arrow14BooleanBuilderC2EPNS_10MemoryPoolEl
libarrow.so.1700:_ZN5arrow14BooleanBuilderC2ERKSt10shared_ptrINS_8DataTypeEEPNS_10MemoryPoolEl
libarrow.so.1700:_ZN5arrow14BoundaryFinderD0Ev
libarrow.so.1700:_ZN5arrow14BoundaryFinderD1Ev
libarrow.so.1700:_ZN5arrow14BoundaryFinderD2Ev
libarrow.so.1700:_ZN5arrow14Decimal128Type4MakeEii
libarrow.so.1700:_ZN5arrow14Decimal128TypeC1Eii
libarrow.so.1700:_ZN5arrow14Decimal128TypeC2Eii
libarrow.so.1700:_ZN5arrow14Decimal256Type4MakeEii
libarrow.so.1700:_ZN5arrow14Decimal256TypeC1Eii
libarrow.so.1700:_ZN5arrow14Decimal256TypeC2Eii
libarrow.so.1700:_ZN5arrow14DenseUnionType4MakeESt6vectorISt10shared_ptrINS_5FieldEESaIS4_EES1_IaSaIaEE
libarrow.so.1700:_ZN5arrow14DenseUnionTypeC1ESt6vectorISt10shared_ptrINS_5FieldEESaIS4_EES1_IaSaIaEE
libarrow.so.1700:_ZN5arrow14DenseUnionTypeC2ESt6vectorISt10shared_ptrINS_5FieldEESaIS4_EES1_IaSaIaEE
libarrow.so.1700:_ZN5arrow14DictionaryType18ValidateParametersERKNS_8DataTypeES3_
libarrow.so.1700:_ZN5arrow14DictionaryType4MakeERKSt10shared_ptrINS_8DataTypeEES5_b
libarrow.so.1700:_ZN5arrow14DictionaryTypeC1ERKSt10shared_ptrINS_8DataTypeEES5_b
libarrow.so.1700:_ZN5arrow14DictionaryTypeC2ERKSt10shared_ptrINS_8DataTypeEES5_b
libarrow.so.1700:_ZN5arrow14ExtensionArray7SetDataERKSt10shared_ptrINS_9ArrayDataEE
libarrow.so.1700:_ZN5arrow14ExtensionArrayC1ERKSt10shared_ptrINS_8DataTypeEERKS1_INS_5ArrayEE
libarrow.so.1700:_ZN5arrow14ExtensionArrayC1ERKSt10shared_ptrINS_9ArrayDataEE
libarrow.so.1700:_ZN5arrow14ExtensionArrayC2ERKSt10shared_ptrINS_8DataTypeEERKS1_INS_5ArrayEE
libarrow.so.1700:_ZN5arrow14ExtensionArrayC2ERKSt10shared_ptrINS_9ArrayDataEE
libarrow.so.1700:_ZN5arrow14FixedWidthTypeD0Ev
libarrow.so.1700:_ZN5arrow14FixedWidthTypeD1Ev
libarrow.so.1700:_ZN5arrow14FixedWidthTypeD2Ev
libarrow.so.1700:_ZN5arrow14GetRuntimeInfoEv
libarrow.so.1700:_ZN5arrow14LargeListArray10FromArraysERKNS_5ArrayES3_PNS_10MemoryPoolESt10shared_ptrINS_6BufferEEl
libarrow.so.1700:_ZN5arrow14LargeListArray10FromArraysESt10shared_ptrINS_8DataTypeEERKNS_5ArrayES6_PNS_10MemoryPoolES1_INS_6BufferEEl
libarrow.so.1700:_ZN5arrow14LargeListArray12FromListViewERKNS_18LargeListViewArrayEPNS_10MemoryPoolE
libarrow.so.1700:_ZN5arrow14LargeListArray7SetDataERKSt10shared_ptrINS_9ArrayDataEE
libarrow.so.1700:_ZN5arrow14LargeListArrayC1ERKSt10shared_ptrINS_8DataTypeEElRKS1_INS_6BufferEERKS1_INS_5ArrayEES9_ll
libarrow.so.1700:_ZN5arrow14LargeListArrayC1ERKSt10shared_ptrINS_9ArrayDataEE
libarrow.so.1700:_ZN5arrow14LargeListArrayC2ERKSt10shared_ptrINS_8DataTypeEElRKS1_INS_6BufferEERKS1_INS_5ArrayEES9_ll
libarrow.so.1700:_ZN5arrow14LargeListArrayC2ERKSt10shared_ptrINS_9ArrayDataEE
libarrow.so.1700:_ZN5arrow14ListViewScalar16FillScratchSpaceEPhRKSt10shared_ptrINS_5ArrayEE
libarrow.so.1700:_ZN5arrow14ListViewScalarC1ESt10shared_ptrINS_5ArrayEEb
libarrow.so.1700:_ZN5arrow14ListViewScalarC2ESt10shared_ptrINS_5ArrayEEb
libarrow.so.1700:_ZN5arrow14MakeEmptyArrayESt10shared_ptrINS_8DataTypeEEPNS_10MemoryPoolE
libarrow.so.1700:_ZN5arrow14MakeNullScalarESt10shared_ptrINS_8DataTypeEE
libarrow.so.1700:_ZN5arrow14ParseHexValuesESt17basic_string_viewIcSt11char_traitsIcEEPh
libarrow.so.1700:_ZN5arrow14PrimitiveArrayC1ERKSt10shared_ptrINS_8DataTypeEElRKS1_INS_6BufferEES9_ll
libarrow.so.1700:_ZN5arrow14PrimitiveArrayC2ERKSt10shared_ptrINS_8DataTypeEElRKS1_INS_6BufferEES9_ll
libarrow.so.1700:_ZN5arrow14PrimitiveCTypeD0Ev
libarrow.so.1700:_ZN5arrow14PrimitiveCTypeD1Ev
libarrow.so.1700:_ZN5arrow14PrimitiveCTypeD2Ev
libarrow.so.1700:_ZN5arrow14PrimitiveTypesEv
libarrow.so.1700:_ZN5arrow14SignedIntTypesEv
libarrow.so.1700:_ZN5arrow14SparseCOOIndex4MakeERKSt10shared_ptrINS_6TensorEE
libarrow.so.1700:_ZN5arrow14SparseCOOIndex4MakeERKSt10shared_ptrINS_6TensorEEb
libarrow.so.1700:_ZN5arrow14SparseCOOIndex4MakeERKSt10shared_ptrINS_8DataTypeEERKSt6vectorIlSaIlEESA_S1_INS_6BufferEE
libarrow.so.1700:_ZN5arrow14SparseCOOIndex4MakeERKSt10shared_ptrINS_8DataTypeEERKSt6vectorIlSaIlEESA_S1_INS_6BufferEEb
libarrow.so.1700:_ZN5arrow14SparseCOOIndex4MakeERKSt10shared_ptrINS_8DataTypeEERKSt6vectorIlSaIlEElS1_INS_6BufferEE
libarrow.so.1700:_ZN5arrow14SparseCOOIndex4MakeERKSt10shared_ptrINS_8DataTypeEERKSt6vectorIlSaIlEElS1_INS_6BufferEEb
libarrow.so.1700:_ZN5arrow14SparseCOOIndexC1ERKSt10shared_ptrINS_6TensorEEb
libarrow.so.1700:_ZN5arrow14SparseCOOIndexC2ERKSt10shared_ptrINS_6TensorEEb
libarrow.so.1700:_ZN5arrow14SparseCSFIndex4MakeERKSt10shared_ptrINS_8DataTypeEES5_RKSt6vectorIlSaIlEESA_RKS6_IS1_INS_6BufferEESaISC_EESG_
libarrow.so.1700:_ZN5arrow14SparseCSFIndexC1ERKSt6vectorISt10shared_ptrINS_6TensorEESaIS4_EES8_RKS1_IlSaIlEE
libarrow.so.1700:_ZN5arrow14SparseCSFIndexC2ERKSt6vectorISt10shared_ptrINS_6TensorEESaIS4_EES8_RKS1_IlSaIlEE
libarrow.so.1700:_ZN5arrow14month_intervalEv
libarrow.so.1700:_ZN5arrow15BaseBinaryTypesEv
libarrow.so.1700:_ZN5arrow15BaseListBuilderINS_13LargeListTypeEE12AppendValuesEPKlS4_l
libarrow.so.1700:_ZN5arrow15BaseListBuilderINS_13LargeListTypeEE12AppendValuesEPKlS4_lPKh
libarrow.so.1700:_ZN5arrow15BaseListBuilderINS_13LargeListTypeEE12AppendValuesEPKllPKh
libarrow.so.1700:_ZN5arrow15BaseListBuilderINS_13LargeListTypeEE14FinishInternalEPSt10shared_ptrINS_9ArrayDataEE
libarrow.so.1700:_ZN5arrow15BaseListBuilderINS_13LargeListTypeEE16AppendNextOffsetEv
libarrow.so.1700:_ZN5arrow15BaseListBuilderINS_13LargeListTypeEE6AppendEb
libarrow.so.1700:_ZN5arrow15BaseListBuilderINS_8ListTypeEE12AppendValuesEPKiS4_l
libarrow.so.1700:_ZN5arrow15BaseListBuilderINS_8ListTypeEE12AppendValuesEPKiS4_lPKh
libarrow.so.1700:_ZN5arrow15BaseListBuilderINS_8ListTypeEE12AppendValuesEPKilPKh
libarrow.so.1700:_ZN5arrow15BaseListBuilderINS_8ListTypeEE14FinishInternalEPSt10shared_ptrINS_9ArrayDataEE
libarrow.so.1700:_ZN5arrow15BaseListBuilderINS_8ListTypeEE16AppendNextOffsetEv
libarrow.so.1700:_ZN5arrow15BaseListBuilderINS_8ListTypeEE6AppendEb
libarrow.so.1700:_ZN5arrow15BasicDecimal12811GetMaxValueEi
libarrow.so.1700:_ZN5arrow15BasicDecimal12811GetMaxValueEv
libarrow.so.1700:_ZN5arrow15BasicDecimal12818GetScaleMultiplierEi
libarrow.so.1700:_ZN5arrow15BasicDecimal12822GetHalfScaleMultiplierEi
libarrow.so.1700:_ZN5arrow15BasicDecimal1283AbsERKS0_
libarrow.so.1700:_ZN5arrow15BasicDecimal1283AbsEv
libarrow.so.1700:_ZN5arrow15BasicDecimal1286NegateEv
libarrow.so.1700:_ZN5arrow15BasicDecimal128aNERKS0_
libarrow.so.1700:_ZN5arrow15BasicDecimal128dVERKS0_
libarrow.so.1700:_ZN5arrow15BasicDecimal128lSEj
libarrow.so.1700:_ZN5arrow15BasicDecimal128mIERKS0_
libarrow.so.1700:_ZN5arrow15BasicDecimal128mLERKS0_
libarrow.so.1700:_ZN5arrow15BasicDecimal128oRERKS0_
libarrow.so.1700:_ZN5arrow15BasicDecimal128pLERKS0_
libarrow.so.1700:_ZN5arrow15BasicDecimal128rSEj
libarrow.so.1700:_ZN5arrow15BasicDecimal25611GetMaxValueEi
libarrow.so.1700:_ZN5arrow15BasicDecimal25618GetScaleMultiplierEi
libarrow.so.1700:_ZN5arrow15BasicDecimal25622GetHalfScaleMultiplierEi
libarrow.so.1700:_ZN5arrow15BasicDecimal2563AbsERKS0_
libarrow.so.1700:_ZN5arrow15BasicDecimal2563AbsEv
libarrow.so.1700:_ZN5arrow15BasicDecimal2566NegateEv
libarrow.so.1700:_ZN5arrow15BasicDecimal256dVERKS0_
libarrow.so.1700:_ZN5arrow15BasicDecimal256lSEj
libarrow.so.1700:_ZN5arrow15BasicDecimal256mIERKS0_
libarrow.so.1700:_ZN5arrow15BasicDecimal256mLERKS0_
libarrow.so.1700:_ZN5arrow15BasicDecimal256pLERKS0_
libarrow.so.1700:_ZN5arrow15BasicDecimal256rSEj
libarrow.so.1700:_ZN5arrow15BinaryViewArrayC1ESt10shared_ptrINS_8DataTypeEElS1_INS_6BufferEESt6vectorIS5_SaIS5_EES5_ll
libarrow.so.1700:_ZN5arrow15BinaryViewArrayC1ESt10shared_ptrINS_9ArrayDataEE
libarrow.so.1700:_ZN5arrow15BinaryViewArrayC2ESt10shared_ptrINS_8DataTypeEElS1_INS_6BufferEESt6vectorIS5_SaIS5_EES5_ll
libarrow.so.1700:_ZN5arrow15BinaryViewArrayC2ESt10shared_ptrINS_9ArrayDataEE
libarrow.so.1700:_ZN5arrow15Decimal128ArrayC1ERKSt10shared_ptrINS_9ArrayDataEE
libarrow.so.1700:_ZN5arrow15Decimal128ArrayC2ERKSt10shared_ptrINS_9ArrayDataEE
libarrow.so.1700:_ZN5arrow15Decimal256ArrayC1ERKSt10shared_ptrINS_9ArrayDataEE
libarrow.so.1700:_ZN5arrow15Decimal256ArrayC2ERKSt10shared_ptrINS_9ArrayDataEE
libarrow.so.1700:_ZN5arrow15DenseUnionArray4MakeERKNS_5ArrayES3_St6vectorISt10shared_ptrIS1_ESaIS6_EES4_INSt7__cxx1112basic_stringIcSt11char_traitsIcESaIcEEESaISE_EES4_IaSaIaEE
libarrow.so.1700:_ZN5arrow15DenseUnionArray7SetDataERKSt10shared_ptrINS_9ArrayDataEE
libarrow.so.1700:_ZN5arrow15DenseUnionArrayC1ERKSt10shared_ptrINS_9ArrayDataEE
libarrow.so.1700:_ZN5arrow15DenseUnionArrayC1ESt10shared_ptrINS_8DataTypeEElSt6vectorIS1_INS_5ArrayEESaIS6_EES1_INS_6BufferEESA_l
libarrow.so.1700:_ZN5arrow15DenseUnionArrayC2ERKSt10shared_ptrINS_9ArrayDataEE
libarrow.so.1700:_ZN5arrow15DenseUnionArrayC2ESt10shared_ptrINS_8DataTypeEElSt6vectorIS1_INS_5ArrayEESaIS6_EES1_INS_6BufferEESA_l
libarrow.so.1700:_ZN5arrow15DictionaryArray10FromArraysERKSt10shared_ptrINS_8DataTypeEERKS1_INS_5ArrayEES9_
libarrow.so.1700:_ZN5arrow15DictionaryArray7SetDataERKSt10shared_ptrINS_9ArrayDataEE
libarrow.so.1700:_ZN5arrow15DictionaryArrayC1ERKSt10shared_ptrINS_8DataTypeEERKS1_INS_5ArrayEES9_
libarrow.so.1700:_ZN5arrow15DictionaryArrayC1ERKSt10shared_ptrINS_9ArrayDataEE
libarrow.so.1700:_ZN5arrow15DictionaryArrayC2ERKSt10shared_ptrINS_8DataTypeEERKS1_INS_5ArrayEES9_
libarrow.so.1700:_ZN5arrow15DictionaryArrayC2ERKSt10shared_ptrINS_9ArrayDataEE
libarrow.so.1700:_ZN5arrow15GetDeviceMapperENS_20DeviceAllocationTypeE
libarrow.so.1700:_ZN5arrow15GetPhysicalTypeERKSt10shared_ptrINS_8DataTypeEE
libarrow.so.1700:_ZN5arrow15LargeListScalar16FillScratchSpaceEPhRKSt10shared_ptrINS_5ArrayEE
libarrow.so.1700:_ZN5arrow15LargeListScalarC1ESt10shared_ptrINS_5ArrayEEb
libarrow.so.1700:_ZN5arrow15LargeListScalarC2ESt10shared_ptrINS_5ArrayEEb
libarrow.so.1700:_ZN5arrow15MakeArrayOfNullERKSt10shared_ptrINS_8DataTypeEElPNS_10MemoryPoolE
libarrow.so.1700:_ZN5arrow15ProxyMemoryPool10ReallocateElllPPh
libarrow.so.1700:_ZN5arrow15ProxyMemoryPool4FreeEPhll
libarrow.so.1700:_ZN5arrow15ProxyMemoryPool8AllocateEllPPh
libarrow.so.1700:_ZN5arrow15ProxyMemoryPoolC1EPNS_10MemoryPoolE
libarrow.so.1700:_ZN5arrow15ProxyMemoryPoolC2EPNS_10MemoryPoolE
libarrow.so.1700:_ZN5arrow15ProxyMemoryPoolD0Ev
libarrow.so.1700:_ZN5arrow15ProxyMemoryPoolD1Ev
libarrow.so.1700:_ZN5arrow15ProxyMemoryPoolD2Ev
libarrow.so.1700:_ZN5arrow15SliceBufferSafeERKSt10shared_ptrINS_6BufferEEl
libarrow.so.1700:_ZN5arrow15SliceBufferSafeERKSt10shared_ptrINS_6BufferEEll
libarrow.so.1700:_ZN5arrow15SparseUnionType4MakeESt6vectorISt10shared_ptrINS_5FieldEESaIS4_EES1_IaSaIaEE
libarrow.so.1700:_ZN5arrow15SparseUnionTypeC1ESt6vectorISt10shared_ptrINS_5FieldEESaIS4_EES1_IaSaIaEE
libarrow.so.1700:_ZN5arrow15SparseUnionTypeC2ESt6vectorISt10shared_ptrINS_5FieldEESaIS4_EES1_IaSaIaEE
libarrow.so.1700:_ZN5arrow15StringViewArrayC1ESt10shared_ptrINS_9ArrayDataEE
libarrow.so.1700:_ZN5arrow15StringViewArrayC2ESt10shared_ptrINS_9ArrayDataEE
libarrow.so.1700:_ZN5arrow15TimestampParser11MakeISO8601Ev
libarrow.so.1700:_ZN5arrow15TimestampParser12MakeStrptimeENSt7__cxx1112basic_stringIcSt11char_traitsIcESaIcEEE
libarrow.so.1700:_ZN5arrow15TimestampScalar11FromISO8601ESt17basic_string_viewIcSt11char_traitsIcEENS_8TimeUnit4typeE
libarrow.so.1700:_ZN5arrow15VisitEditScriptERKNS_5ArrayERKSt8functionIFNS_6StatusEllllEE
libarrow.so.1700:_ZN5arrow15fixed_size_listESt10shared_ptrINS_5FieldEEi
libarrow.so.1700:_ZN5arrow15fixed_size_listESt10shared_ptrINS_8DataTypeEEi
libarrow.so.1700:_ZN5arrow15large_list_viewESt10shared_ptrINS_5FieldEE
libarrow.so.1700:_ZN5arrow15large_list_viewESt10shared_ptrINS_8DataTypeEE
libarrow.so.1700:_ZN5arrow15run_end_encodedESt10shared_ptrINS_8DataTypeEES2_
libarrow.so.1700:_ZN5arrow16ArrayRangeEqualsERKNS_5ArrayES2_lllRKNS_12EqualOptionsE
libarrow.so.1700:_ZN5arrow16BaseBinaryScalarC1ENSt7__cxx1112basic_stringIcSt11char_traitsIcESaIcEEESt10shared_ptrINS_8DataTypeEE
libarrow.so.1700:_ZN5arrow16BaseBinaryScalarC2ENSt7__cxx1112basic_stringIcSt11char_traitsIcESaIcEEESt10shared_ptrINS_8DataTypeEE
libarrow.so.1700:_ZN5arrow16BinaryViewScalar16FillScratchSpaceEPhRKSt10shared_ptrINS_6BufferEE
libarrow.so.1700:_ZN5arrow16CPUMemoryManager12CopyBufferToERKSt10shared_ptrINS_6BufferEERKS1_INS_13MemoryManagerEE
libarrow.so.1700:_ZN5arrow16CPUMemoryManager12ViewBufferToERKSt10shared_ptrINS_6BufferEERKS1_INS_13MemoryManagerEE
libarrow.so.1700:_ZN5arrow16CPUMemoryManager14AllocateBufferEl
libarrow.so.1700:_ZN5arrow16CPUMemoryManager14CopyBufferFromERKSt10shared_ptrINS_6BufferEERKS1_INS_13MemoryManagerEE
libarrow.so.1700:_ZN5arrow16CPUMemoryManager14CopyNonOwnedToERKNS_6BufferERKSt10shared_ptrINS_13MemoryManagerEE
libarrow.so.1700:_ZN5arrow16CPUMemoryManager14ViewBufferFromERKSt10shared_ptrINS_6BufferEERKS1_INS_13MemoryManagerEE
libarrow.so.1700:_ZN5arrow16CPUMemoryManager15GetBufferReaderESt10shared_ptrINS_6BufferEE
libarrow.so.1700:_ZN5arrow16CPUMemoryManager15GetBufferWriterESt10shared_ptrINS_6BufferEE
libarrow.so.1700:_ZN5arrow16CPUMemoryManager16CopyNonOwnedFromERKNS_6BufferERKSt10shared_ptrINS_13MemoryManagerEE
libarrow.so.1700:_ZN5arrow16CPUMemoryManager4MakeERKSt10shared_ptrINS_6DeviceEEPNS_10MemoryPoolE
libarrow.so.1700:_ZN5arrow16DenseUnionScalar16FillScratchSpaceEPha
libarrow.so.1700:_ZN5arrow16DictionaryScalar4MakeESt10shared_ptrINS_6ScalarEES1_INS_5ArrayEE
libarrow.so.1700:_ZN5arrow16DictionaryScalarC1ESt10shared_ptrINS_8DataTypeEE
libarrow.so.1700:_ZN5arrow16DictionaryScalarC2ESt10shared_ptrINS_8DataTypeEE
libarrow.so.1700:_ZN5arrow16GetExtensionTypeERKNSt7__cxx1112basic_stringIcSt11char_traitsIcESaIcEEE
libarrow.so.1700:_ZN5arrow16KeyValueMetadata10DeleteManyESt6vectorIlSaIlEE
libarrow.so.1700:_ZN5arrow16KeyValueMetadata3SetENSt7__cxx1112basic_stringIcSt11char_traitsIcESaIcEEES6_
libarrow.so.1700:_ZN5arrow16KeyValueMetadata4MakeESt6vectorINSt7__cxx1112basic_stringIcSt11char_traitsIcESaIcEEESaIS7_EES9_
libarrow.so.1700:_ZN5arrow16KeyValueMetadata6AppendENSt7__cxx1112basic_stringIcSt11char_traitsIcESaIcEEES6_
libarrow.so.1700:_ZN5arrow16KeyValueMetadata6DeleteESt17basic_string_viewIcSt11char_traitsIcEE
libarrow.so.1700:_ZN5arrow16KeyValueMetadata6DeleteEl
libarrow.so.1700:_ZN5arrow16KeyValueMetadata7reserveEl
libarrow.so.1700:_ZN5arrow16KeyValueMetadataC1ERKSt13unordered_mapINSt7__cxx1112basic_stringIcSt11char_traitsIcESaIcEEES7_St4hashIS7_ESt8equal_toIS7_ESaISt4pairIKS7_S7_EEE
libarrow.so.1700:_ZN5arrow16KeyValueMetadataC1ESt6vectorINSt7__cxx1112basic_stringIcSt11char_traitsIcESaIcEEESaIS7_EES9_
libarrow.so.1700:_ZN5arrow16KeyValueMetadataC1Ev
libarrow.so.1700:_ZN5arrow16KeyValueMetadataC2ERKSt13unordered_mapINSt7__cxx1112basic_stringIcSt11char_traitsIcESaIcEEES7_St4hashIS7_ESt8equal_toIS7_ESaISt4pairIKS7_S7_EEE
libarrow.so.1700:_ZN5arrow16KeyValueMetadataC2ESt6vectorINSt7__cxx1112basic_stringIcSt11char_traitsIcESaIcEEESaIS7_EES9_
libarrow.so.1700:_ZN5arrow16KeyValueMetadataC2Ev
libarrow.so.1700:_ZN5arrow16LargeBinaryArrayC1ERKSt10shared_ptrINS_9ArrayDataEE
libarrow.so.1700:_ZN5arrow16LargeBinaryArrayC1ElRKSt10shared_ptrINS_6BufferEES5_S5_ll
libarrow.so.1700:_ZN5arrow16LargeBinaryArrayC2ERKSt10shared_ptrINS_9ArrayDataEE
libarrow.so.1700:_ZN5arrow16LargeBinaryArrayC2ElRKSt10shared_ptrINS_6BufferEES5_S5_ll
libarrow.so.1700:_ZN5arrow16LargeStringArrayC1ERKSt10shared_ptrINS_9ArrayDataEE
libarrow.so.1700:_ZN5arrow16LargeStringArrayC1ElRKSt10shared_ptrINS_6BufferEES5_S5_ll
libarrow.so.1700:_ZN5arrow16LargeStringArrayC2ERKSt10shared_ptrINS_9ArrayDataEE
libarrow.so.1700:_ZN5arrow16LargeStringArrayC2ElRKSt10shared_ptrINS_6BufferEES5_S5_ll
libarrow.so.1700:_ZN5arrow16SparseUnionArray4MakeERKNS_5ArrayESt6vectorISt10shared_ptrIS1_ESaIS6_EES4_INSt7__cxx1112basic_stringIcSt11char_traitsIcESaIcEEESaISE_EES4_IaSaIaEE
libarrow.so.1700:_ZN5arrow16SparseUnionArray7SetDataESt10shared_ptrINS_9ArrayDataEE
libarrow.so.1700:_ZN5arrow16SparseUnionArrayC1ESt10shared_ptrINS_8DataTypeEElSt6vectorIS1_INS_5ArrayEESaIS6_EES1_INS_6BufferEEl
libarrow.so.1700:_ZN5arrow16SparseUnionArrayC1ESt10shared_ptrINS_9ArrayDataEE
libarrow.so.1700:_ZN5arrow16SparseUnionArrayC2ESt10shared_ptrINS_8DataTypeEElSt6vectorIS1_INS_5ArrayEESaIS6_EES1_INS_6BufferEEl
libarrow.so.1700:_ZN5arrow16SparseUnionArrayC2ESt10shared_ptrINS_9ArrayDataEE
libarrow.so.1700:_ZN5arrow16TableBatchReader13set_chunksizeEl
libarrow.so.1700:_ZN5arrow16TableBatchReader8ReadNextEPSt10shared_ptrINS_11RecordBatchEE
libarrow.so.1700:_ZN5arrow16TableBatchReaderC1ERKNS_5TableE
libarrow.so.1700:_ZN5arrow16TableBatchReaderC1ESt10shared_ptrINS_5TableEE
libarrow.so.1700:_ZN5arrow16TableBatchReaderC2ERKNS_5TableE
libarrow.so.1700:_ZN5arrow16TableBatchReaderC2ESt10shared_ptrINS_5TableEE
libarrow.so.1700:_ZN5arrow16UnsignedIntTypesEv
libarrow.so.1700:_ZN5arrow17ArrayApproxEqualsERKNS_5ArrayES2_RKNS_12EqualOptionsE
libarrow.so.1700:_ZN5arrow17BasicUnionBuilder10NextTypeIdEv
libarrow.so.1700:_ZN5arrow17BasicUnionBuilder11AppendChildERKSt10shared_ptrINS_12ArrayBuilderEERKNSt7__cxx1112basic_stringIcSt11char_traitsIcESaIcEEE
libarrow.so.1700:_ZN5arrow17BasicUnionBuilder14FinishInternalEPSt10shared_ptrINS_9ArrayDataEE
libarrow.so.1700:_ZN5arrow17BasicUnionBuilderC1EPNS_10MemoryPoolElRKSt6vectorISt10shared_ptrINS_12ArrayBuilderEESaIS6_EERKS4_INS_8DataTypeEE
libarrow.so.1700:_ZN5arrow17BasicUnionBuilderC2EPNS_10MemoryPoolElRKSt6vectorISt10shared_ptrINS_12ArrayBuilderEESaIS6_EERKS4_INS_8DataTypeEE
libarrow.so.1700:_ZN5arrow17BinaryViewBuilder11ReserveDataEl
libarrow.so.1700:_ZN5arrow17BinaryViewBuilder14FinishInternalEPSt10shared_ptrINS_9ArrayDataEE
libarrow.so.1700:_ZN5arrow17BinaryViewBuilder16AppendArraySliceERKNS_9ArraySpanEll
libarrow.so.1700:_ZN5arrow17BinaryViewBuilder5ResetEv
libarrow.so.1700:_ZN5arrow17BinaryViewBuilderC1ERKSt10shared_ptrINS_8DataTypeEEPNS_10MemoryPoolE
libarrow.so.1700:_ZN5arrow17BinaryViewBuilderC2ERKSt10shared_ptrINS_8DataTypeEEPNS_10MemoryPoolE
libarrow.so.1700:_ZN5arrow17ConcatenateTablesERKSt6vectorISt10shared_ptrINS_5TableEESaIS3_EENS_24ConcatenateTablesOptionsEPNS_10MemoryPoolE
libarrow.so.1700:_ZN5arrow17Decimal128Builder12UnsafeAppendENS_10Decimal128E
libarrow.so.1700:_ZN5arrow17Decimal128Builder12UnsafeAppendESt17basic_string_viewIcSt11char_traitsIcEE
libarrow.so.1700:_ZN5arrow17Decimal128Builder14FinishInternalEPSt10shared_ptrINS_9ArrayDataEE
libarrow.so.1700:_ZN5arrow17Decimal128Builder6AppendENS_10Decimal128E
libarrow.so.1700:_ZN5arrow17Decimal128BuilderC1ERKSt10shared_ptrINS_8DataTypeEEPNS_10MemoryPoolEl
libarrow.so.1700:_ZN5arrow17Decimal128BuilderC2ERKSt10shared_ptrINS_8DataTypeEEPNS_10MemoryPoolEl
libarrow.so.1700:_ZN5arrow17Decimal256Builder12UnsafeAppendERKNS_10Decimal256E
libarrow.so.1700:_ZN5arrow17Decimal256Builder12UnsafeAppendESt17basic_string_viewIcSt11char_traitsIcEE
libarrow.so.1700:_ZN5arrow17Decimal256Builder14FinishInternalEPSt10shared_ptrINS_9ArrayDataEE
libarrow.so.1700:_ZN5arrow17Decimal256Builder6AppendERKNS_10Decimal256E
libarrow.so.1700:_ZN5arrow17Decimal256BuilderC1ERKSt10shared_ptrINS_8DataTypeEEPNS_10MemoryPoolEl
libarrow.so.1700:_ZN5arrow17Decimal256BuilderC2ERKSt10shared_ptrINS_8DataTypeEEPNS_10MemoryPoolEl
libarrow.so.1700:_ZN5arrow17DenseUnionBuilder14FinishInternalEPSt10shared_ptrINS_9ArrayDataEE
libarrow.so.1700:_ZN5arrow17DenseUnionBuilder16AppendArraySliceERKNS_9ArraySpanEll
libarrow.so.1700:_ZN5arrow17DictionaryUnifier10UnifyTableERKNS_5TableEPNS_10MemoryPoolE
libarrow.so.1700:_ZN5arrow17DictionaryUnifier17UnifyChunkedArrayERKSt10shared_ptrINS_12ChunkedArrayEEPNS_10MemoryPoolE
libarrow.so.1700:_ZN5arrow17DictionaryUnifier4MakeESt10shared_ptrINS_8DataTypeEEPNS_10MemoryPoolE
libarrow.so.1700:_ZN5arrow17ExportDeviceArrayERKNS_5ArrayESt10shared_ptrINS_6Device9SyncEventEEP16ArrowDeviceArrayP11ArrowSchema
libarrow.so.1700:_ZN5arrow17ExportRecordBatchERKNS_11RecordBatchEP10ArrowArrayP11ArrowSchema
libarrow.so.1700:_ZN5arrow17FloatingPointTypeD0Ev
libarrow.so.1700:_ZN5arrow17FloatingPointTypeD1Ev
libarrow.so.1700:_ZN5arrow17FloatingPointTypeD2Ev
libarrow.so.1700:_ZN5arrow17ImportDeviceArrayEP16ArrowDeviceArrayP11ArrowSchemaRKSt8functionIFNS_6ResultISt10shared_ptrINS_13MemoryManagerEEEEilEE
libarrow.so.1700:_ZN5arrow17ImportDeviceArrayEP16ArrowDeviceArraySt10shared_ptrINS_8DataTypeEERKSt8functionIFNS_6ResultIS2_INS_13MemoryManagerEEEEilEE
libarrow.so.1700:_ZN5arrow17ImportRecordBatchEP10ArrowArrayP11ArrowSchema
libarrow.so.1700:_ZN5arrow17ImportRecordBatchEP10ArrowArraySt10shared_ptrINS_6SchemaEE
libarrow.so.1700:_ZN5arrow17LargeBinaryScalar16FillScratchSpaceEPhRKSt10shared_ptrINS_6BufferEE
libarrow.so.1700:_ZN5arrow17LoggingMemoryPool10ReallocateElllPPh
libarrow.so.1700:_ZN5arrow17LoggingMemoryPool4FreeEPhll
libarrow.so.1700:_ZN5arrow17LoggingMemoryPool8AllocateEllPPh
libarrow.so.1700:_ZN5arrow17LoggingMemoryPoolC1EPNS_10MemoryPoolE
libarrow.so.1700:_ZN5arrow17LoggingMemoryPoolC2EPNS_10MemoryPoolE
libarrow.so.1700:_ZN5arrow17RecordBatchReader15ToRecordBatchesEv
libarrow.so.1700:_ZN5arrow17RecordBatchReader16MakeFromIteratorENS_8IteratorISt10shared_ptrINS_11RecordBatchEEEES2_INS_6SchemaEENS_20DeviceAllocationTypeE
libarrow.so.1700:_ZN5arrow17RecordBatchReader4MakeESt6vectorISt10shared_ptrINS_11RecordBatchEESaIS4_EES2_INS_6SchemaEENS_20DeviceAllocationTypeE
libarrow.so.1700:_ZN5arrow17RecordBatchReader7ToTableEv
libarrow.so.1700:_ZN5arrow17RecordBatchReaderD0Ev
libarrow.so.1700:_ZN5arrow17RecordBatchReaderD1Ev
libarrow.so.1700:_ZN5arrow17RecordBatchReaderD2Ev
libarrow.so.1700:_ZN5arrow17RunEndEncodedType15RunEndTypeValidERKNS_8DataTypeE
libarrow.so.1700:_ZN5arrow17RunEndEncodedTypeC1ESt10shared_ptrINS_8DataTypeEES3_
libarrow.so.1700:_ZN5arrow17RunEndEncodedTypeC2ESt10shared_ptrINS_8DataTypeEES3_
libarrow.so.1700:_ZN5arrow17RunEndEncodedTypeD0Ev
libarrow.so.1700:_ZN5arrow17RunEndEncodedTypeD1Ev
libarrow.so.1700:_ZN5arrow17RunEndEncodedTypeD2Ev
libarrow.so.1700:_ZN5arrow17SparseUnionScalar16FillScratchSpaceEPha
libarrow.so.1700:_ZN5arrow17SparseUnionScalar9FromValueESt10shared_ptrINS_6ScalarEEiS1_INS_8DataTypeEE
libarrow.so.1700:_ZN5arrow17SparseUnionScalarC1ESt6vectorISt10shared_ptrINS_6ScalarEESaIS4_EEaS2_INS_8DataTypeEE
libarrow.so.1700:_ZN5arrow17SparseUnionScalarC2ESt6vectorISt10shared_ptrINS_6ScalarEESaIS4_EEaS2_INS_8DataTypeEE
libarrow.so.1700:_ZN5arrow17day_time_intervalEv
libarrow.so.1700:_ZN5arrow17fixed_size_binaryEi
libarrow.so.1700:_ZN5arrow17jemalloc_get_statEPKc
libarrow.so.1700:_ZN5arrow18AdaptiveIntBuilder12AppendValuesEPKllPKh
libarrow.so.1700:_ZN5arrow18AdaptiveIntBuilder13ExpandIntSizeEh
libarrow.so.1700:_ZN5arrow18AdaptiveIntBuilder14FinishInternalEPSt10shared_ptrINS_9ArrayDataEE
libarrow.so.1700:_ZN5arrow18AdaptiveIntBuilder17CommitPendingDataEv
libarrow.so.1700:_ZN5arrow18AdaptiveIntBuilder20AppendValuesInternalEPKllPKh
libarrow.so.1700:_ZN5arrow18AdaptiveIntBuilderC1EhPNS_10MemoryPoolEl
libarrow.so.1700:_ZN5arrow18AdaptiveIntBuilderC2EhPNS_10MemoryPoolEl
libarrow.so.1700:_ZN5arrow18ConcatenateBuffersERKSt6vectorISt10shared_ptrINS_6BufferEESaIS3_EEPNS_10MemoryPoolE
libarrow.so.1700:_ZN5arrow18EndiannessToStringB5cxx11ENS_10EndiannessE
libarrow.so.1700:_ZN5arrow18ExportChunkedArrayESt10shared_ptrINS_12ChunkedArrayEEP16ArrowArrayStream
libarrow.so.1700:_ZN5arrow18FixedSizeListArray10FromArraysERKSt10shared_ptrINS_5ArrayEES1_INS_8DataTypeEES1_INS_6BufferEEl
libarrow.so.1700:_ZN5arrow18FixedSizeListArray10FromArraysERKSt10shared_ptrINS_5ArrayEEiS1_INS_6BufferEEl
libarrow.so.1700:_ZN5arrow18FixedSizeListArray7SetDataERKSt10shared_ptrINS_9ArrayDataEE
libarrow.so.1700:_ZN5arrow18FixedSizeListArrayC1ERKSt10shared_ptrINS_8DataTypeEElRKS1_INS_5ArrayEERKS1_INS_6BufferEEll
libarrow.so.1700:_ZN5arrow18FixedSizeListArrayC1ERKSt10shared_ptrINS_9ArrayDataEE
libarrow.so.1700:_ZN5arrow18FixedSizeListArrayC2ERKSt10shared_ptrINS_8DataTypeEElRKS1_INS_5ArrayEERKS1_INS_6BufferEEll
libarrow.so.1700:_ZN5arrow18FixedSizeListArrayC2ERKSt10shared_ptrINS_9ArrayDataEE
libarrow.so.1700:_ZN5arrow18FloatingPointTypesEv
libarrow.so.1700:_ZN5arrow18ImportChunkedArrayEP16ArrowArrayStream
libarrow.so.1700:_ZN5arrow18LargeListViewArray10FromArraysERKNS_5ArrayES3_S3_PNS_10MemoryPoolESt10shared_ptrINS_6BufferEEl
libarrow.so.1700:_ZN5arrow18LargeListViewArray10FromArraysESt10shared_ptrINS_8DataTypeEERKNS_5ArrayES6_S6_PNS_10MemoryPoolES1_INS_6BufferEEl
libarrow.so.1700:_ZN5arrow18LargeListViewArray7SetDataERKSt10shared_ptrINS_9ArrayDataEE
libarrow.so.1700:_ZN5arrow18LargeListViewArray8FromListERKNS_14LargeListArrayEPNS_10MemoryPoolE
libarrow.so.1700:_ZN5arrow18LargeListViewArrayC1ESt10shared_ptrINS_8DataTypeEElS1_INS_6BufferEES5_S1_INS_5ArrayEES5_ll
libarrow.so.1700:_ZN5arrow18LargeListViewArrayC1ESt10shared_ptrINS_9ArrayDataEE
libarrow.so.1700:_ZN5arrow18LargeListViewArrayC2ESt10shared_ptrINS_8DataTypeEElS1_INS_6BufferEES5_S1_INS_5ArrayEES5_ll
libarrow.so.1700:_ZN5arrow18LargeListViewArrayC2ESt10shared_ptrINS_9ArrayDataEE
libarrow.so.1700:_ZN5arrow18RecordBatchBuilder12InitBuildersEv
libarrow.so.1700:_ZN5arrow18RecordBatchBuilder14CreateBuildersEv
libarrow.so.1700:_ZN5arrow18RecordBatchBuilder18SetInitialCapacityEl
libarrow.so.1700:_ZN5arrow18RecordBatchBuilder4MakeERKSt10shared_ptrINS_6SchemaEEPNS_10MemoryPoolE
libarrow.so.1700:_ZN5arrow18RecordBatchBuilder4MakeERKSt10shared_ptrINS_6SchemaEEPNS_10MemoryPoolEl
libarrow.so.1700:_ZN5arrow18RecordBatchBuilder5FlushEb
libarrow.so.1700:_ZN5arrow18RecordBatchBuilder5FlushEv
libarrow.so.1700:_ZN5arrow18RecordBatchBuilderC1ERKSt10shared_ptrINS_6SchemaEEPNS_10MemoryPoolEl
libarrow.so.1700:_ZN5arrow18RecordBatchBuilderC2ERKSt10shared_ptrINS_6SchemaEEPNS_10MemoryPoolEl
libarrow.so.1700:_ZN5arrow18RunEndEncodedArray4MakeERKSt10shared_ptrINS_8DataTypeEElRKS1_INS_5ArrayEES9_l
libarrow.so.1700:_ZN5arrow18RunEndEncodedArray4MakeElRKSt10shared_ptrINS_5ArrayEES5_l
libarrow.so.1700:_ZN5arrow18RunEndEncodedArray7SetDataERKSt10shared_ptrINS_9ArrayDataEE
libarrow.so.1700:_ZN5arrow18RunEndEncodedArrayC1ERKSt10shared_ptrINS_8DataTypeEElRKS1_INS_5ArrayEES9_l
libarrow.so.1700:_ZN5arrow18RunEndEncodedArrayC1ERKSt10shared_ptrINS_9ArrayDataEE
libarrow.so.1700:_ZN5arrow18RunEndEncodedArrayC2ERKSt10shared_ptrINS_8DataTypeEElRKS1_INS_5ArrayEES9_l
libarrow.so.1700:_ZN5arrow18RunEndEncodedArrayC2ERKSt10shared_ptrINS_9ArrayDataEE
libarrow.so.1700:_ZN5arrow18ScalarApproxEqualsERKNS_6ScalarES2_RKNS_12EqualOptionsE
libarrow.so.1700:_ZN5arrow18SliceMutableBufferERKSt10shared_ptrINS_6BufferEEll
libarrow.so.1700:_ZN5arrow18SparseTensorEqualsERKNS_12SparseTensorES2_RKNS_12EqualOptionsE
libarrow.so.1700:_ZN5arrow18SparseUnionBuilder16AppendArraySliceERKNS_9ArraySpanEll
libarrow.so.1700:_ZN5arrow18ValidateDeviceInfoERKNS_9ArrayDataE
libarrow.so.1700:_ZN5arrow18ValidateDeviceInfoERKNS_9ArrayDataEPSt8optionalINS_20DeviceAllocationTypeEEPl
libarrow.so.1700:_ZN5arrow18key_value_metadataERKSt13unordered_mapINSt7__cxx1112basic_stringIcSt11char_traitsIcESaIcEEES6_St4hashIS6_ESt8equal_toIS6_ESaISt4pairIKS6_S6_EEE
libarrow.so.1700:_ZN5arrow18key_value_metadataESt6vectorINSt7__cxx1112basic_stringIcSt11char_traitsIcESaIcEEESaIS6_EES8_
libarrow.so.1700:_ZN5arrow18system_memory_poolEv
libarrow.so.1700:_ZN5arrow19AdaptiveUIntBuilder12AppendValuesEPKmlPKh
libarrow.so.1700:_ZN5arrow19AdaptiveUIntBuilder13ExpandIntSizeEh
libarrow.so.1700:_ZN5arrow19AdaptiveUIntBuilder14FinishInternalEPSt10shared_ptrINS_9ArrayDataEE
libarrow.so.1700:_ZN5arrow19AdaptiveUIntBuilder17CommitPendingDataEv
libarrow.so.1700:_ZN5arrow19AdaptiveUIntBuilder20AppendValuesInternalEPKmlPKh
libarrow.so.1700:_ZN5arrow19AdaptiveUIntBuilderC1EhPNS_10MemoryPoolE
libarrow.so.1700:_ZN5arrow19AdaptiveUIntBuilderC2EhPNS_10MemoryPoolE
libarrow.so.1700:_ZN5arrow19AllocateEmptyBitmapElPNS_10MemoryPoolE
libarrow.so.1700:_ZN5arrow19AllocateEmptyBitmapElPSt10shared_ptrINS_6BufferEE
libarrow.so.1700:_ZN5arrow19AllocateEmptyBitmapEllPNS_10MemoryPoolE
libarrow.so.1700:_ZN5arrow19BaseListViewBuilderINS_12ListViewTypeEE12AppendValuesEPKiS4_l
libarrow.so.1700:_ZN5arrow19BaseListViewBuilderINS_12ListViewTypeEE12AppendValuesEPKiS4_lPKh
libarrow.so.1700:_ZN5arrow19BaseListViewBuilderINS_12ListViewTypeEE14FinishInternalEPSt10shared_ptrINS_9ArrayDataEE
libarrow.so.1700:_ZN5arrow19BaseListViewBuilderINS_12ListViewTypeEE22UnsafeAppendDimensionsEll
libarrow.so.1700:_ZN5arrow19BaseListViewBuilderINS_12ListViewTypeEE27UnsafeAppendEmptyDimensionsEl
libarrow.so.1700:_ZN5arrow19BaseListViewBuilderINS_12ListViewTypeEE5ResetEv
libarrow.so.1700:_ZN5arrow19BaseListViewBuilderINS_12ListViewTypeEE6ResizeEl
libarrow.so.1700:_ZN5arrow19BaseListViewBuilderINS_17LargeListViewTypeEE12AppendValuesEPKlS4_l
libarrow.so.1700:_ZN5arrow19BaseListViewBuilderINS_17LargeListViewTypeEE12AppendValuesEPKlS4_lPKh
libarrow.so.1700:_ZN5arrow19BaseListViewBuilderINS_17LargeListViewTypeEE14FinishInternalEPSt10shared_ptrINS_9ArrayDataEE
libarrow.so.1700:_ZN5arrow19BaseListViewBuilderINS_17LargeListViewTypeEE22UnsafeAppendDimensionsEll
libarrow.so.1700:_ZN5arrow19BaseListViewBuilderINS_17LargeListViewTypeEE27UnsafeAppendEmptyDimensionsEl
libarrow.so.1700:_ZN5arrow19BaseListViewBuilderINS_17LargeListViewTypeEE5ResetEv
libarrow.so.1700:_ZN5arrow19BaseListViewBuilderINS_17LargeListViewTypeEE6ResizeEl
libarrow.so.1700:_ZN5arrow19FixedSizeBinaryType4MakeEi
libarrow.so.1700:_ZN5arrow19FixedSizeListScalarC1ESt10shared_ptrINS_5ArrayEES1_INS_8DataTypeEEb
libarrow.so.1700:_ZN5arrow19FixedSizeListScalarC1ESt10shared_ptrINS_5ArrayEEb
libarrow.so.1700:_ZN5arrow19FixedSizeListScalarC2ESt10shared_ptrINS_5ArrayEES1_INS_8DataTypeEEb
libarrow.so.1700:_ZN5arrow19FixedSizeListScalarC2ESt10shared_ptrINS_5ArrayEEb
libarrow.so.1700:_ZN5arrow19GenericBasicDecimalINS_15BasicDecimal128ELi128ELi2EE27mutable_native_endian_bytesEv
libarrow.so.1700:_ZN5arrow19GenericBasicDecimalINS_15BasicDecimal128ELi128ELi2EEC1ENS2_20LittleEndianArrayTagERKSt5arrayImLm2EE
libarrow.so.1700:_ZN5arrow19GenericBasicDecimalINS_15BasicDecimal128ELi128ELi2EEC1EPKh
libarrow.so.1700:_ZN5arrow19GenericBasicDecimalINS_15BasicDecimal128ELi128ELi2EEC1ERKSt5arrayImLm2EE
libarrow.so.1700:_ZN5arrow19GenericBasicDecimalINS_15BasicDecimal128ELi128ELi2EEC1Ev
libarrow.so.1700:_ZN5arrow19GenericBasicDecimalINS_15BasicDecimal128ELi128ELi2EEC2ENS2_20LittleEndianArrayTagERKSt5arrayImLm2EE
libarrow.so.1700:_ZN5arrow19GenericBasicDecimalINS_15BasicDecimal128ELi128ELi2EEC2EPKh
libarrow.so.1700:_ZN5arrow19GenericBasicDecimalINS_15BasicDecimal128ELi128ELi2EEC2ERKSt5arrayImLm2EE
libarrow.so.1700:_ZN5arrow19GenericBasicDecimalINS_15BasicDecimal128ELi128ELi2EEC2Ev
libarrow.so.1700:_ZN5arrow19GenericBasicDecimalINS_15BasicDecimal256ELi256ELi4EE27mutable_native_endian_bytesEv
libarrow.so.1700:_ZN5arrow19GenericBasicDecimalINS_15BasicDecimal256ELi256ELi4EEC1ENS2_20LittleEndianArrayTagERKSt5arrayImLm4EE
libarrow.so.1700:_ZN5arrow19GenericBasicDecimalINS_15BasicDecimal256ELi256ELi4EEC1EPKh
libarrow.so.1700:_ZN5arrow19GenericBasicDecimalINS_15BasicDecimal256ELi256ELi4EEC1ERKSt5arrayImLm4EE
libarrow.so.1700:_ZN5arrow19GenericBasicDecimalINS_15BasicDecimal256ELi256ELi4EEC1Ev
libarrow.so.1700:_ZN5arrow19GenericBasicDecimalINS_15BasicDecimal256ELi256ELi4EEC2ENS2_20LittleEndianArrayTagERKSt5arrayImLm4EE
libarrow.so.1700:_ZN5arrow19GenericBasicDecimalINS_15BasicDecimal256ELi256ELi4EEC2EPKh
libarrow.so.1700:_ZN5arrow19GenericBasicDecimalINS_15BasicDecimal256ELi256ELi4EEC2ERKSt5arrayImLm4EE
libarrow.so.1700:_ZN5arrow19GenericBasicDecimalINS_15BasicDecimal256ELi256ELi4EEC2Ev
libarrow.so.1700:_ZN5arrow19LargeListViewScalar16FillScratchSpaceEPhRKSt10shared_ptrINS_5ArrayEE
libarrow.so.1700:_ZN5arrow19LargeListViewScalarC1ESt10shared_ptrINS_5ArrayEEb
libarrow.so.1700:_ZN5arrow19LargeListViewScalarC2ESt10shared_ptrINS_5ArrayEEb
libarrow.so.1700:_ZN5arrow19MakeArrayFromScalarERKNS_6ScalarElPNS_10MemoryPoolE
libarrow.so.1700:_ZN5arrow19RunEndEncodedScalar16FillScratchSpaceEPhRKNS_8DataTypeE
libarrow.so.1700:_ZN5arrow19RunEndEncodedScalarC1ERKSt10shared_ptrINS_8DataTypeEE
libarrow.so.1700:_ZN5arrow19RunEndEncodedScalarC1ESt10shared_ptrINS_6ScalarEES1_INS_8DataTypeEE
libarrow.so.1700:_ZN5arrow19RunEndEncodedScalarC2ERKSt10shared_ptrINS_8DataTypeEE
libarrow.so.1700:_ZN5arrow19RunEndEncodedScalarC2ESt10shared_ptrINS_6ScalarEES1_INS_8DataTypeEE
libarrow.so.1700:_ZN5arrow19RunEndEncodedScalarD0Ev
libarrow.so.1700:_ZN5arrow19RunEndEncodedScalarD1Ev
libarrow.so.1700:_ZN5arrow19RunEndEncodedScalarD2Ev
libarrow.so.1700:_ZN5arrow19SetSignalStopSourceEv
libarrow.so.1700:_ZN5arrow19default_memory_poolEv
libarrow.so.1700:_ZN5arrow19jemalloc_peak_resetEv
libarrow.so.1700:_ZN5arrow20DayTimeIntervalArrayC1ERKSt10shared_ptrINS_8DataTypeEElRKS1_INS_6BufferEES9_ll
libarrow.so.1700:_ZN5arrow20DayTimeIntervalArrayC1ERKSt10shared_ptrINS_9ArrayDataEE
libarrow.so.1700:_ZN5arrow20DayTimeIntervalArrayC1ElRKSt10shared_ptrINS_6BufferEES5_ll
libarrow.so.1700:_ZN5arrow20DayTimeIntervalArrayC2ERKSt10shared_ptrINS_8DataTypeEElRKS1_INS_6BufferEES9_ll
libarrow.so.1700:_ZN5arrow20DayTimeIntervalArrayC2ERKSt10shared_ptrINS_9ArrayDataEE
libarrow.so.1700:_ZN5arrow20DayTimeIntervalArrayC2ElRKSt10shared_ptrINS_6BufferEES5_ll
libarrow.so.1700:_ZN5arrow20FixedSizeBinaryArrayC1ERKSt10shared_ptrINS_8DataTypeEElRKS1_INS_6BufferEES9_ll
libarrow.so.1700:_ZN5arrow20FixedSizeBinaryArrayC1ERKSt10shared_ptrINS_9ArrayDataEE
libarrow.so.1700:_ZN5arrow20FixedSizeBinaryArrayC2ERKSt10shared_ptrINS_8DataTypeEElRKS1_INS_6BufferEES9_ll
libarrow.so.1700:_ZN5arrow20FixedSizeBinaryArrayC2ERKSt10shared_ptrINS_9ArrayDataEE
libarrow.so.1700:_ZN5arrow20FixedSizeListBuilder10AppendNullEv
libarrow.so.1700:_ZN5arrow20FixedSizeListBuilder11AppendNullsEl
libarrow.so.1700:_ZN5arrow20FixedSizeListBuilder12AppendValuesElPKh
libarrow.so.1700:_ZN5arrow20FixedSizeListBuilder14FinishInternalEPSt10shared_ptrINS_9ArrayDataEE
libarrow.so.1700:_ZN5arrow20FixedSizeListBuilder16AppendEmptyValueEv
libarrow.so.1700:_ZN5arrow20FixedSizeListBuilder16ValidateOverflowEl
libarrow.so.1700:_ZN5arrow20FixedSizeListBuilder17AppendEmptyValuesEl
libarrow.so.1700:_ZN5arrow20FixedSizeListBuilder5ResetEv
libarrow.so.1700:_ZN5arrow20FixedSizeListBuilder6AppendEv
libarrow.so.1700:_ZN5arrow20FixedSizeListBuilder6ResizeEl
libarrow.so.1700:_ZN5arrow20FixedSizeListBuilderC1EPNS_10MemoryPoolERKSt10shared_ptrINS_12ArrayBuilderEERKS3_INS_8DataTypeEE
libarrow.so.1700:_ZN5arrow20FixedSizeListBuilderC1EPNS_10MemoryPoolERKSt10shared_ptrINS_12ArrayBuilderEEi
libarrow.so.1700:_ZN5arrow20FixedSizeListBuilderC2EPNS_10MemoryPoolERKSt10shared_ptrINS_12ArrayBuilderEERKS3_INS_8DataTypeEE
libarrow.so.1700:_ZN5arrow20FixedSizeListBuilderC2EPNS_10MemoryPoolERKSt10shared_ptrINS_12ArrayBuilderEEi
libarrow.so.1700:_ZN5arrow20PromoteTableToSchemaERKSt10shared_ptrINS_5TableEERKS0_INS_6SchemaEEPNS_10MemoryPoolE
libarrow.so.1700:_ZN5arrow20PromoteTableToSchemaERKSt10shared_ptrINS_5TableEERKS0_INS_6SchemaEERKNS_7compute11CastOptionsEPNS_10MemoryPoolE
libarrow.so.1700:_ZN5arrow20RegisterDeviceMapperENS_20DeviceAllocationTypeESt8functionIFNS_6ResultISt10shared_ptrINS_13MemoryManagerEEEElEE
libarrow.so.1700:_ZN5arrow20RunEndEncodedBuilder11AppendNullsEl
libarrow.so.1700:_ZN5arrow20RunEndEncodedBuilder12AppendRunEndEl
libarrow.so.1700:_ZN5arrow20RunEndEncodedBuilder12AppendScalarERKNS_6ScalarEl
libarrow.so.1700:_ZN5arrow20RunEndEncodedBuilder13AppendScalarsERKSt6vectorISt10shared_ptrINS_6ScalarEESaIS4_EE
libarrow.so.1700:_ZN5arrow20RunEndEncodedBuilder13value_builderEv
libarrow.so.1700:_ZN5arrow20RunEndEncodedBuilder14FinishInternalEPSt10shared_ptrINS_9ArrayDataEE
libarrow.so.1700:_ZN5arrow20RunEndEncodedBuilder14ResizePhysicalEl
libarrow.so.1700:_ZN5arrow20RunEndEncodedBuilder15ValueRunBuilderC1EPNS_10MemoryPoolERKSt10shared_ptrINS_12ArrayBuilderEERKS4_INS_8DataTypeEERS0_
libarrow.so.1700:_ZN5arrow20RunEndEncodedBuilder15ValueRunBuilderC2EPNS_10MemoryPoolERKSt10shared_ptrINS_12ArrayBuilderEERKS4_INS_8DataTypeEERS0_
libarrow.so.1700:_ZN5arrow20RunEndEncodedBuilder15run_end_builderEv
libarrow.so.1700:_ZN5arrow20RunEndEncodedBuilder16AppendArraySliceERKNS_9ArraySpanEll
libarrow.so.1700:_ZN5arrow20RunEndEncodedBuilder16FinishCurrentRunEv
libarrow.so.1700:_ZN5arrow20RunEndEncodedBuilder17AppendEmptyValuesEl
libarrow.so.1700:_ZN5arrow20RunEndEncodedBuilder5ResetEv
libarrow.so.1700:_ZN5arrow20RunEndEncodedBuilder8CloseRunEl
libarrow.so.1700:_ZN5arrow20RunEndEncodedBuilderC1EPNS_10MemoryPoolERKSt10shared_ptrINS_12ArrayBuilderEES7_S3_INS_8DataTypeEE
libarrow.so.1700:_ZN5arrow20RunEndEncodedBuilderC2EPNS_10MemoryPoolERKSt10shared_ptrINS_12ArrayBuilderEES7_S3_INS_8DataTypeEE
libarrow.so.1700:_ZN5arrow20jemalloc_memory_poolEPPNS_10MemoryPoolE
libarrow.so.1700:_ZN5arrow20jemalloc_stats_printEPKc
libarrow.so.1700:_ZN5arrow20jemalloc_stats_printESt8functionIFvPKcEES2_
libarrow.so.1700:_ZN5arrow20mimalloc_memory_poolEPPNS_10MemoryPoolE
libarrow.so.1700:_ZN5arrow21ExtensionTypeRegistry17GetGlobalRegistryEv
libarrow.so.1700:_ZN5arrow21FixedSizeBinaryScalarC1ENSt7__cxx1112basic_stringIcSt11char_traitsIcESaIcEEEb
libarrow.so.1700:_ZN5arrow21FixedSizeBinaryScalarC1ERKSt10shared_ptrINS_6BufferEEb
libarrow.so.1700:_ZN5arrow21FixedSizeBinaryScalarC1ESt10shared_ptrINS_6BufferEES1_INS_8DataTypeEEb
libarrow.so.1700:_ZN5arrow21FixedSizeBinaryScalarC2ENSt7__cxx1112basic_stringIcSt11char_traitsIcESaIcEEEb
libarrow.so.1700:_ZN5arrow21FixedSizeBinaryScalarC2ERKSt10shared_ptrINS_6BufferEEb
libarrow.so.1700:_ZN5arrow21FixedSizeBinaryScalarC2ESt10shared_ptrINS_6BufferEES1_INS_8DataTypeEEb
libarrow.so.1700:_ZN5arrow21MakeBuilderExactIndexEPNS_10MemoryPoolERKSt10shared_ptrINS_8DataTypeEEPSt10unique_ptrINS_12ArrayBuilderESt14default_deleteIS8_EE
libarrow.so.1700:_ZN5arrow21MakeDictionaryBuilderEPNS_10MemoryPoolERKSt10shared_ptrINS_8DataTypeEERKS2_INS_5ArrayEEPSt10unique_ptrINS_12ArrayBuilderESt14default_deleteISC_EE
libarrow.so.1700:_ZN5arrow21RegisterExtensionTypeESt10shared_ptrINS_13ExtensionTypeEE
libarrow.so.1700:_ZN5arrow21ResetSignalStopSourceEv
libarrow.so.1700:_ZN5arrow21jemalloc_set_decay_msEi
libarrow.so.1700:_ZN5arrow21jemalloc_stats_stringB5cxx11EPKc
libarrow.so.1700:_ZN5arrow22ArrayRangeApproxEqualsERKNS_5ArrayES2_lllRKNS_12EqualOptionsE
libarrow.so.1700:_ZN5arrow22FixedSizeBinaryBuilder10AppendNullEv
libarrow.so.1700:_ZN5arrow22FixedSizeBinaryBuilder11AppendNullsEl
libarrow.so.1700:_ZN5arrow22FixedSizeBinaryBuilder12AppendValuesEPKhlS2_
libarrow.so.1700:_ZN5arrow22FixedSizeBinaryBuilder12AppendValuesEPKhlS2_l
libarrow.so.1700:_ZN5arrow22FixedSizeBinaryBuilder14CheckValueSizeEl
libarrow.so.1700:_ZN5arrow22FixedSizeBinaryBuilder14FinishInternalEPSt10shared_ptrINS_9ArrayDataEE
libarrow.so.1700:_ZN5arrow22FixedSizeBinaryBuilder16AppendEmptyValueEv
libarrow.so.1700:_ZN5arrow22FixedSizeBinaryBuilder17AppendEmptyValuesEl
libarrow.so.1700:_ZN5arrow22FixedSizeBinaryBuilder5ResetEv
libarrow.so.1700:_ZN5arrow22FixedSizeBinaryBuilder6ResizeEl
libarrow.so.1700:_ZN5arrow22FixedSizeBinaryBuilderC1ERKSt10shared_ptrINS_8DataTypeEEPNS_10MemoryPoolEl
libarrow.so.1700:_ZN5arrow22FixedSizeBinaryBuilderC2ERKSt10shared_ptrINS_8DataTypeEEPNS_10MemoryPoolEl
libarrow.so.1700:_ZN5arrow22SliceMutableBufferSafeERKSt10shared_ptrINS_6BufferEEl
libarrow.so.1700:_ZN5arrow22SliceMutableBufferSafeERKSt10shared_ptrINS_6BufferEEll
libarrow.so.1700:_ZN5arrow23AllocateResizableBufferElPNS_10MemoryPoolE
libarrow.so.1700:_ZN5arrow23AllocateResizableBufferEllPNS_10MemoryPoolE
libarrow.so.1700:_ZN5arrow23ExportDeviceRecordBatchERKNS_11RecordBatchESt10shared_ptrINS_6Device9SyncEventEEP16ArrowDeviceArrayP11ArrowSchema
libarrow.so.1700:_ZN5arrow23ExportRecordBatchReaderESt10shared_ptrINS_17RecordBatchReaderEEP16ArrowArrayStream
libarrow.so.1700:_ZN5arrow23ImportDeviceRecordBatchEP16ArrowDeviceArrayP11ArrowSchemaRKSt8functionIFNS_6ResultISt10shared_ptrINS_13MemoryManagerEEEEilEE
libarrow.so.1700:_ZN5arrow23ImportDeviceRecordBatchEP16ArrowDeviceArraySt10shared_ptrINS_6SchemaEERKSt8functionIFNS_6ResultIS2_INS_13MemoryManagerEEEEilEE
libarrow.so.1700:_ZN5arrow23ImportRecordBatchReaderEP16ArrowArrayStream
libarrow.so.1700:_ZN5arrow23UnregisterExtensionTypeERKNSt7__cxx1112basic_stringIcSt11char_traitsIcESaIcEEE
libarrow.so.1700:_ZN5arrow23month_day_nano_intervalEv
libarrow.so.1700:_ZN5arrow24ConcatenateRecordBatchesERKSt6vectorISt10shared_ptrINS_11RecordBatchEESaIS3_EEPNS_10MemoryPoolE
libarrow.so.1700:_ZN5arrow24ExportDeviceChunkedArrayESt10shared_ptrINS_12ChunkedArrayEENS_20DeviceAllocationTypeEP22ArrowDeviceArrayStream
libarrow.so.1700:_ZN5arrow24FieldsFromArraysAndNamesESt6vectorINSt7__cxx1112basic_stringIcSt11char_traitsIcESaIcEEESaIS6_EERKS0_ISt10shared_ptrINS_5ArrayEESaISB_EE
libarrow.so.1700:_ZN5arrow24GetCpuThreadPoolCapacityEv
libarrow.so.1700:_ZN5arrow24ImportDeviceChunkedArrayEP22ArrowDeviceArrayStreamRKSt8functionIFNS_6ResultISt10shared_ptrINS_13MemoryManagerEEEEilEE
libarrow.so.1700:_ZN5arrow24MakeUnifiedDiffFormatterERKNS_8DataTypeEPSo
libarrow.so.1700:_ZN5arrow24SetCpuThreadPoolCapacityEi
libarrow.so.1700:_ZN5arrow24VarLengthListLikeBuilderINS_12ListViewTypeEE10AppendNullEv
libarrow.so.1700:_ZN5arrow24VarLengthListLikeBuilderINS_12ListViewTypeEE11AppendNullsEl
libarrow.so.1700:_ZN5arrow24VarLengthListLikeBuilderINS_12ListViewTypeEE16AppendArraySliceERKNS_9ArraySpanEll
libarrow.so.1700:_ZN5arrow24VarLengthListLikeBuilderINS_12ListViewTypeEE16AppendEmptyValueEv
libarrow.so.1700:_ZN5arrow24VarLengthListLikeBuilderINS_12ListViewTypeEE16maximum_elementsEv
libarrow.so.1700:_ZN5arrow24VarLengthListLikeBuilderINS_12ListViewTypeEE17AppendEmptyValuesEl
libarrow.so.1700:_ZN5arrow24VarLengthListLikeBuilderINS_12ListViewTypeEE22UnsafeAppendDimensionsEll
libarrow.so.1700:_ZN5arrow24VarLengthListLikeBuilderINS_12ListViewTypeEE27UnsafeAppendEmptyDimensionsEl
libarrow.so.1700:_ZN5arrow24VarLengthListLikeBuilderINS_12ListViewTypeEE5ResetEv
libarrow.so.1700:_ZN5arrow24VarLengthListLikeBuilderINS_12ListViewTypeEE6AppendEbl
libarrow.so.1700:_ZN5arrow24VarLengthListLikeBuilderINS_12ListViewTypeEE6ResizeEl
libarrow.so.1700:_ZN5arrow24VarLengthListLikeBuilderINS_12ListViewTypeEE9type_nameEv
libarrow.so.1700:_ZN5arrow24VarLengthListLikeBuilderINS_12ListViewTypeEEC1EPNS_10MemoryPoolERKSt10shared_ptrINS_12ArrayBuilderEERKS5_INS_8DataTypeEEl
libarrow.so.1700:_ZN5arrow24VarLengthListLikeBuilderINS_12ListViewTypeEEC1EPNS_10MemoryPoolERKSt10shared_ptrINS_12ArrayBuilderEEl
libarrow.so.1700:_ZN5arrow24VarLengthListLikeBuilderINS_12ListViewTypeEEC2EPNS_10MemoryPoolERKSt10shared_ptrINS_12ArrayBuilderEERKS5_INS_8DataTypeEEl
libarrow.so.1700:_ZN5arrow24VarLengthListLikeBuilderINS_12ListViewTypeEEC2EPNS_10MemoryPoolERKSt10shared_ptrINS_12ArrayBuilderEEl
libarrow.so.1700:_ZN5arrow24VarLengthListLikeBuilderINS_13LargeListTypeEE10AppendNullEv
libarrow.so.1700:_ZN5arrow24VarLengthListLikeBuilderINS_13LargeListTypeEE11AppendNullsEl
libarrow.so.1700:_ZN5arrow24VarLengthListLikeBuilderINS_13LargeListTypeEE16AppendArraySliceERKNS_9ArraySpanEll
libarrow.so.1700:_ZN5arrow24VarLengthListLikeBuilderINS_13LargeListTypeEE16AppendEmptyValueEv
libarrow.so.1700:_ZN5arrow24VarLengthListLikeBuilderINS_13LargeListTypeEE16maximum_elementsEv
libarrow.so.1700:_ZN5arrow24VarLengthListLikeBuilderINS_13LargeListTypeEE17AppendEmptyValuesEl
libarrow.so.1700:_ZN5arrow24VarLengthListLikeBuilderINS_13LargeListTypeEE22UnsafeAppendDimensionsEll
libarrow.so.1700:_ZN5arrow24VarLengthListLikeBuilderINS_13LargeListTypeEE27UnsafeAppendEmptyDimensionsEl
libarrow.so.1700:_ZN5arrow24VarLengthListLikeBuilderINS_13LargeListTypeEE5ResetEv
libarrow.so.1700:_ZN5arrow24VarLengthListLikeBuilderINS_13LargeListTypeEE6AppendEbl
libarrow.so.1700:_ZN5arrow24VarLengthListLikeBuilderINS_13LargeListTypeEE6ResizeEl
libarrow.so.1700:_ZN5arrow24VarLengthListLikeBuilderINS_13LargeListTypeEE9type_nameEv
libarrow.so.1700:_ZN5arrow24VarLengthListLikeBuilderINS_13LargeListTypeEEC1EPNS_10MemoryPoolERKSt10shared_ptrINS_12ArrayBuilderEERKS5_INS_8DataTypeEEl
libarrow.so.1700:_ZN5arrow24VarLengthListLikeBuilderINS_13LargeListTypeEEC1EPNS_10MemoryPoolERKSt10shared_ptrINS_12ArrayBuilderEEl
libarrow.so.1700:_ZN5arrow24VarLengthListLikeBuilderINS_13LargeListTypeEEC2EPNS_10MemoryPoolERKSt10shared_ptrINS_12ArrayBuilderEERKS5_INS_8DataTypeEEl
libarrow.so.1700:_ZN5arrow24VarLengthListLikeBuilderINS_13LargeListTypeEEC2EPNS_10MemoryPoolERKSt10shared_ptrINS_12ArrayBuilderEEl
libarrow.so.1700:_ZN5arrow24VarLengthListLikeBuilderINS_17LargeListViewTypeEE10AppendNullEv
libarrow.so.1700:_ZN5arrow24VarLengthListLikeBuilderINS_17LargeListViewTypeEE11AppendNullsEl
libarrow.so.1700:_ZN5arrow24VarLengthListLikeBuilderINS_17LargeListViewTypeEE16AppendArraySliceERKNS_9ArraySpanEll
libarrow.so.1700:_ZN5arrow24VarLengthListLikeBuilderINS_17LargeListViewTypeEE16AppendEmptyValueEv
libarrow.so.1700:_ZN5arrow24VarLengthListLikeBuilderINS_17LargeListViewTypeEE16maximum_elementsEv
libarrow.so.1700:_ZN5arrow24VarLengthListLikeBuilderINS_17LargeListViewTypeEE17AppendEmptyValuesEl
libarrow.so.1700:_ZN5arrow24VarLengthListLikeBuilderINS_17LargeListViewTypeEE22UnsafeAppendDimensionsEll
libarrow.so.1700:_ZN5arrow24VarLengthListLikeBuilderINS_17LargeListViewTypeEE27UnsafeAppendEmptyDimensionsEl
libarrow.so.1700:_ZN5arrow24VarLengthListLikeBuilderINS_17LargeListViewTypeEE5ResetEv
libarrow.so.1700:_ZN5arrow24VarLengthListLikeBuilderINS_17LargeListViewTypeEE6AppendEbl
libarrow.so.1700:_ZN5arrow24VarLengthListLikeBuilderINS_17LargeListViewTypeEE6ResizeEl
libarrow.so.1700:_ZN5arrow24VarLengthListLikeBuilderINS_17LargeListViewTypeEE9type_nameEv
libarrow.so.1700:_ZN5arrow24VarLengthListLikeBuilderINS_17LargeListViewTypeEEC1EPNS_10MemoryPoolERKSt10shared_ptrINS_12ArrayBuilderEERKS5_INS_8DataTypeEEl
libarrow.so.1700:_ZN5arrow24VarLengthListLikeBuilderINS_17LargeListViewTypeEEC1EPNS_10MemoryPoolERKSt10shared_ptrINS_12ArrayBuilderEEl
libarrow.so.1700:_ZN5arrow24VarLengthListLikeBuilderINS_17LargeListViewTypeEEC2EPNS_10MemoryPoolERKSt10shared_ptrINS_12ArrayBuilderEERKS5_INS_8DataTypeEEl
libarrow.so.1700:_ZN5arrow24VarLengthListLikeBuilderINS_17LargeListViewTypeEEC2EPNS_10MemoryPoolERKSt10shared_ptrINS_12ArrayBuilderEEl
libarrow.so.1700:_ZN5arrow24VarLengthListLikeBuilderINS_8ListTypeEE10AppendNullEv
libarrow.so.1700:_ZN5arrow24VarLengthListLikeBuilderINS_8ListTypeEE11AppendNullsEl
libarrow.so.1700:_ZN5arrow24VarLengthListLikeBuilderINS_8ListTypeEE16AppendArraySliceERKNS_9ArraySpanEll
libarrow.so.1700:_ZN5arrow24VarLengthListLikeBuilderINS_8ListTypeEE16AppendEmptyValueEv
libarrow.so.1700:_ZN5arrow24VarLengthListLikeBuilderINS_8ListTypeEE16maximum_elementsEv
libarrow.so.1700:_ZN5arrow24VarLengthListLikeBuilderINS_8ListTypeEE17AppendEmptyValuesEl
libarrow.so.1700:_ZN5arrow24VarLengthListLikeBuilderINS_8ListTypeEE22UnsafeAppendDimensionsEll
libarrow.so.1700:_ZN5arrow24VarLengthListLikeBuilderINS_8ListTypeEE27UnsafeAppendEmptyDimensionsEl
libarrow.so.1700:_ZN5arrow24VarLengthListLikeBuilderINS_8ListTypeEE5ResetEv
libarrow.so.1700:_ZN5arrow24VarLengthListLikeBuilderINS_8ListTypeEE6AppendEbl
libarrow.so.1700:_ZN5arrow24VarLengthListLikeBuilderINS_8ListTypeEE6ResizeEl
libarrow.so.1700:_ZN5arrow24VarLengthListLikeBuilderINS_8ListTypeEE9type_nameEv
libarrow.so.1700:_ZN5arrow24VarLengthListLikeBuilderINS_8ListTypeEEC1EPNS_10MemoryPoolERKSt10shared_ptrINS_12ArrayBuilderEERKS5_INS_8DataTypeEEl
libarrow.so.1700:_ZN5arrow24VarLengthListLikeBuilderINS_8ListTypeEEC1EPNS_10MemoryPoolERKSt10shared_ptrINS_12ArrayBuilderEEl
libarrow.so.1700:_ZN5arrow24VarLengthListLikeBuilderINS_8ListTypeEEC2EPNS_10MemoryPoolERKSt10shared_ptrINS_12ArrayBuilderEERKS5_INS_8DataTypeEEl
libarrow.so.1700:_ZN5arrow24VarLengthListLikeBuilderINS_8ListTypeEEC2EPNS_10MemoryPoolERKSt10shared_ptrINS_12ArrayBuilderEEl
libarrow.so.1700:_ZN5arrow25DefaultDeviceMemoryMapperEil
libarrow.so.1700:_ZN5arrow25MakeNewlineBoundaryFinderEv
libarrow.so.1700:_ZN5arrow25MonthDayNanoIntervalArrayC1ERKSt10shared_ptrINS_8DataTypeEElRKS1_INS_6BufferEES9_ll
libarrow.so.1700:_ZN5arrow25MonthDayNanoIntervalArrayC1ERKSt10shared_ptrINS_9ArrayDataEE
libarrow.so.1700:_ZN5arrow25MonthDayNanoIntervalArrayC1ElRKSt10shared_ptrINS_6BufferEES5_ll
libarrow.so.1700:_ZN5arrow25MonthDayNanoIntervalArrayC2ERKSt10shared_ptrINS_8DataTypeEElRKS1_INS_6BufferEES9_ll
libarrow.so.1700:_ZN5arrow25MonthDayNanoIntervalArrayC2ERKSt10shared_ptrINS_9ArrayDataEE
libarrow.so.1700:_ZN5arrow25MonthDayNanoIntervalArrayC2ElRKSt10shared_ptrINS_6BufferEES5_ll
libarrow.so.1700:_ZN5arrow26default_cpu_memory_managerEv
libarrow.so.1700:_ZN5arrow27SupportedMemoryBackendNamesB5cxx11Ev
libarrow.so.1700:_ZN5arrow29ExportDeviceRecordBatchReaderESt10shared_ptrINS_17RecordBatchReaderEEP22ArrowDeviceArrayStream
libarrow.so.1700:_ZN5arrow29ImportDeviceRecordBatchReaderEP22ArrowDeviceArrayStreamRKSt8functionIFNS_6ResultISt10shared_ptrINS_13MemoryManagerEEEEilEE
libarrow.so.1700:_ZN5arrow2fs10FileSystem11DeleteFilesERKSt6vectorINSt7__cxx1112basic_stringIcSt11char_traitsIcESaIcEEESaIS8_EE
libarrow.so.1700:_ZN5arrow2fs10FileSystem11GetFileInfoERKSt6vectorINSt7__cxx1112basic_stringIcSt11char_traitsIcESaIcEEESaIS8_EE
libarrow.so.1700:_ZN5arrow2fs10FileSystem13NormalizePathENSt7__cxx1112basic_stringIcSt11char_traitsIcESaIcEEE
libarrow.so.1700:_ZN5arrow2fs10FileSystem13OpenInputFileERKNS0_8FileInfoE
libarrow.so.1700:_ZN5arrow2fs10FileSystem15OpenInputStreamERKNS0_8FileInfoE
libarrow.so.1700:_ZN5arrow2fs10FileSystem16GetFileInfoAsyncERKSt6vectorINSt7__cxx1112basic_stringIcSt11char_traitsIcESaIcEEESaIS8_EE
libarrow.so.1700:_ZN5arrow2fs10FileSystem16OpenAppendStreamERKNSt7__cxx1112basic_stringIcSt11char_traitsIcESaIcEEE
libarrow.so.1700:_ZN5arrow2fs10FileSystem16OpenOutputStreamERKNSt7__cxx1112basic_stringIcSt11char_traitsIcESaIcEEE
libarrow.so.1700:_ZN5arrow2fs10FileSystem18OpenInputFileAsyncERKNS0_8FileInfoE
libarrow.so.1700:_ZN5arrow2fs10FileSystem18OpenInputFileAsyncERKNSt7__cxx1112basic_stringIcSt11char_traitsIcESaIcEEE
libarrow.so.1700:_ZN5arrow2fs10FileSystem20GetFileInfoGeneratorERKNS0_12FileSelectorE
libarrow.so.1700:_ZN5arrow2fs10FileSystem20OpenInputStreamAsyncERKNS0_8FileInfoE
libarrow.so.1700:_ZN5arrow2fs10FileSystem20OpenInputStreamAsyncERKNSt7__cxx1112basic_stringIcSt11char_traitsIcESaIcEEE
libarrow.so.1700:_ZN5arrow2fs10FileSystem22DeleteDirContentsAsyncERKNSt7__cxx1112basic_stringIcSt11char_traitsIcESaIcEEE
libarrow.so.1700:_ZN5arrow2fs10FileSystem22DeleteDirContentsAsyncERKNSt7__cxx1112basic_stringIcSt11char_traitsIcESaIcEEEb
libarrow.so.1700:_ZN5arrow2fs10FileSystemD0Ev
libarrow.so.1700:_ZN5arrow2fs10FileSystemD1Ev
libarrow.so.1700:_ZN5arrow2fs10FileSystemD2Ev
libarrow.so.1700:_ZN5arrow2fs10GcsOptions15FromAccessTokenERKNSt7__cxx1112basic_stringIcSt11char_traitsIcESaIcEEENSt6chrono10time_pointINSA_3_V212system_clockENSA_8durationIlSt5ratioILl1ELl1000000000EEEEEE
libarrow.so.1700:_ZN5arrow2fs10GcsOptions29FromServiceAccountCredentialsERKNSt7__cxx1112basic_stringIcSt11char_traitsIcESaIcEEE
libarrow.so.1700:_ZN5arrow2fs10GcsOptions30FromImpersonatedServiceAccountERKNS0_14GcsCredentialsERKNSt7__cxx1112basic_stringIcSt11char_traitsIcESaIcEEE
libarrow.so.1700:_ZN5arrow2fs10GcsOptions7FromUriERKNS_4util3UriEPNSt7__cxx1112basic_stringIcSt11char_traitsIcESaIcEEE
libarrow.so.1700:_ZN5arrow2fs10GcsOptions7FromUriERKNSt7__cxx1112basic_stringIcSt11char_traitsIcESaIcEEEPS7_
libarrow.so.1700:_ZN5arrow2fs10GcsOptions8DefaultsEv
libarrow.so.1700:_ZN5arrow2fs10GcsOptions9AnonymousEv
libarrow.so.1700:_ZN5arrow2fs10GcsOptionsC1Ev
libarrow.so.1700:_ZN5arrow2fs10GcsOptionsC2Ev
libarrow.so.1700:_ZN5arrow2fs10InitializeERKNS0_23FileSystemGlobalOptionsE
libarrow.so.1700:_ZN5arrow2fs11HdfsOptions13ConfigureUserENSt7__cxx1112basic_stringIcSt11char_traitsIcESaIcEEE
libarrow.so.1700:_ZN5arrow2fs11HdfsOptions17ConfigureEndPointENSt7__cxx1112basic_stringIcSt11char_traitsIcESaIcEEEi
libarrow.so.1700:_ZN5arrow2fs11HdfsOptions18ConfigureBlockSizeEl
libarrow.so.1700:_ZN5arrow2fs11HdfsOptions18ConfigureExtraConfENSt7__cxx1112basic_stringIcSt11char_traitsIcESaIcEEES7_
libarrow.so.1700:_ZN5arrow2fs11HdfsOptions19ConfigureBufferSizeEi
libarrow.so.1700:_ZN5arrow2fs11HdfsOptions20ConfigureReplicationEs
libarrow.so.1700:_ZN5arrow2fs11HdfsOptions32ConfigureKerberosTicketCachePathENSt7__cxx1112basic_stringIcSt11char_traitsIcESaIcEEE
libarrow.so.1700:_ZN5arrow2fs11HdfsOptions7FromUriERKNS_4util3UriE
libarrow.so.1700:_ZN5arrow2fs11HdfsOptions7FromUriERKNSt7__cxx1112basic_stringIcSt11char_traitsIcESaIcEEE
libarrow.so.1700:_ZN5arrow2fs13GcsFileSystem10DeleteFileERKNSt7__cxx1112basic_stringIcSt11char_traitsIcESaIcEEE
libarrow.so.1700:_ZN5arrow2fs13GcsFileSystem11GetFileInfoERKNS0_12FileSelectorE
libarrow.so.1700:_ZN5arrow2fs13GcsFileSystem11GetFileInfoERKNSt7__cxx1112basic_stringIcSt11char_traitsIcESaIcEEE
libarrow.so.1700:_ZN5arrow2fs13GcsFileSystem13OpenInputFileERKNS0_8FileInfoE
libarrow.so.1700:_ZN5arrow2fs13GcsFileSystem13OpenInputFileERKNSt7__cxx1112basic_stringIcSt11char_traitsIcESaIcEEE
libarrow.so.1700:_ZN5arrow2fs13GcsFileSystem15OpenInputStreamERKNS0_8FileInfoE
libarrow.so.1700:_ZN5arrow2fs13GcsFileSystem15OpenInputStreamERKNSt7__cxx1112basic_stringIcSt11char_traitsIcESaIcEEE
libarrow.so.1700:_ZN5arrow2fs13GcsFileSystem16OpenAppendStreamERKNSt7__cxx1112basic_stringIcSt11char_traitsIcESaIcEEERKSt10shared_ptrIKNS_16KeyValueMetadataEE
libarrow.so.1700:_ZN5arrow2fs13GcsFileSystem16OpenOutputStreamERKNSt7__cxx1112basic_stringIcSt11char_traitsIcESaIcEEERKSt10shared_ptrIKNS_16KeyValueMetadataEE
libarrow.so.1700:_ZN5arrow2fs13GcsFileSystem17DeleteDirContentsERKNSt7__cxx1112basic_stringIcSt11char_traitsIcESaIcEEEb
libarrow.so.1700:_ZN5arrow2fs13GcsFileSystem21DeleteRootDirContentsEv
libarrow.so.1700:_ZN5arrow2fs13GcsFileSystem4MakeERKNS0_10GcsOptionsERKNS_2io9IOContextE
libarrow.so.1700:_ZN5arrow2fs13GcsFileSystem4MoveERKNSt7__cxx1112basic_stringIcSt11char_traitsIcESaIcEEES9_
libarrow.so.1700:_ZN5arrow2fs13GcsFileSystem8CopyFileERKNSt7__cxx1112basic_stringIcSt11char_traitsIcESaIcEEES9_
libarrow.so.1700:_ZN5arrow2fs13GcsFileSystem9CreateDirERKNSt7__cxx1112basic_stringIcSt11char_traitsIcESaIcEEEb
libarrow.so.1700:_ZN5arrow2fs13GcsFileSystem9DeleteDirERKNSt7__cxx1112basic_stringIcSt11char_traitsIcESaIcEEE
libarrow.so.1700:_ZN5arrow2fs13GcsFileSystemC1ERKNS0_10GcsOptionsERKNS_2io9IOContextE
libarrow.so.1700:_ZN5arrow2fs13GcsFileSystemC2ERKNS0_10GcsOptionsERKNS_2io9IOContextE
libarrow.so.1700:_ZN5arrow2fs14SlowFileSystem10DeleteFileERKNSt7__cxx1112basic_stringIcSt11char_traitsIcESaIcEEE
libarrow.so.1700:_ZN5arrow2fs14SlowFileSystem11GetFileInfoERKNS0_12FileSelectorE
libarrow.so.1700:_ZN5arrow2fs14SlowFileSystem11GetFileInfoERKNSt7__cxx1112basic_stringIcSt11char_traitsIcESaIcEEE
libarrow.so.1700:_ZN5arrow2fs14SlowFileSystem13OpenInputFileERKNS0_8FileInfoE
libarrow.so.1700:_ZN5arrow2fs14SlowFileSystem13OpenInputFileERKNSt7__cxx1112basic_stringIcSt11char_traitsIcESaIcEEE
libarrow.so.1700:_ZN5arrow2fs14SlowFileSystem15OpenInputStreamERKNS0_8FileInfoE
libarrow.so.1700:_ZN5arrow2fs14SlowFileSystem15OpenInputStreamERKNSt7__cxx1112basic_stringIcSt11char_traitsIcESaIcEEE
libarrow.so.1700:_ZN5arrow2fs14SlowFileSystem16OpenAppendStreamERKNSt7__cxx1112basic_stringIcSt11char_traitsIcESaIcEEERKSt10shared_ptrIKNS_16KeyValueMetadataEE
libarrow.so.1700:_ZN5arrow2fs14SlowFileSystem16OpenOutputStreamERKNSt7__cxx1112basic_stringIcSt11char_traitsIcESaIcEEERKSt10shared_ptrIKNS_16KeyValueMetadataEE
libarrow.so.1700:_ZN5arrow2fs14SlowFileSystem17DeleteDirContentsERKNSt7__cxx1112basic_stringIcSt11char_traitsIcESaIcEEEb
libarrow.so.1700:_ZN5arrow2fs14SlowFileSystem21DeleteRootDirContentsEv
libarrow.so.1700:_ZN5arrow2fs14SlowFileSystem4MoveERKNSt7__cxx1112basic_stringIcSt11char_traitsIcESaIcEEES9_
libarrow.so.1700:_ZN5arrow2fs14SlowFileSystem8CopyFileERKNSt7__cxx1112basic_stringIcSt11char_traitsIcESaIcEEES9_
libarrow.so.1700:_ZN5arrow2fs14SlowFileSystem9CreateDirERKNSt7__cxx1112basic_stringIcSt11char_traitsIcESaIcEEEb
libarrow.so.1700:_ZN5arrow2fs14SlowFileSystem9DeleteDirERKNSt7__cxx1112basic_stringIcSt11char_traitsIcESaIcEEE
libarrow.so.1700:_ZN5arrow2fs14SlowFileSystemC1ESt10shared_ptrINS0_10FileSystemEES2_INS_2io16LatencyGeneratorEE
libarrow.so.1700:_ZN5arrow2fs14SlowFileSystemC1ESt10shared_ptrINS0_10FileSystemEEd
libarrow.so.1700:_ZN5arrow2fs14SlowFileSystemC1ESt10shared_ptrINS0_10FileSystemEEdi
libarrow.so.1700:_ZN5arrow2fs14SlowFileSystemC2ESt10shared_ptrINS0_10FileSystemEES2_INS_2io16LatencyGeneratorEE
libarrow.so.1700:_ZN5arrow2fs14SlowFileSystemC2ESt10shared_ptrINS0_10FileSystemEEd
libarrow.so.1700:_ZN5arrow2fs14SlowFileSystemC2ESt10shared_ptrINS0_10FileSystemEEdi
libarrow.so.1700:_ZN5arrow2fs15EnsureFinalizedEv
libarrow.so.1700:_ZN5arrow2fs15LocalFileSystem10DeleteFileERKNSt7__cxx1112basic_stringIcSt11char_traitsIcESaIcEEE
libarrow.so.1700:_ZN5arrow2fs15LocalFileSystem11GetFileInfoERKNS0_12FileSelectorE
libarrow.so.1700:_ZN5arrow2fs15LocalFileSystem11GetFileInfoERKNSt7__cxx1112basic_stringIcSt11char_traitsIcESaIcEEE
libarrow.so.1700:_ZN5arrow2fs15LocalFileSystem13NormalizePathENSt7__cxx1112basic_stringIcSt11char_traitsIcESaIcEEE
libarrow.so.1700:_ZN5arrow2fs15LocalFileSystem13OpenInputFileERKNSt7__cxx1112basic_stringIcSt11char_traitsIcESaIcEEE
libarrow.so.1700:_ZN5arrow2fs15LocalFileSystem15OpenInputStreamERKNSt7__cxx1112basic_stringIcSt11char_traitsIcESaIcEEE
libarrow.so.1700:_ZN5arrow2fs15LocalFileSystem16OpenAppendStreamERKNSt7__cxx1112basic_stringIcSt11char_traitsIcESaIcEEERKSt10shared_ptrIKNS_16KeyValueMetadataEE
libarrow.so.1700:_ZN5arrow2fs15LocalFileSystem16OpenOutputStreamERKNSt7__cxx1112basic_stringIcSt11char_traitsIcESaIcEEERKSt10shared_ptrIKNS_16KeyValueMetadataEE
libarrow.so.1700:_ZN5arrow2fs15LocalFileSystem17DeleteDirContentsERKNSt7__cxx1112basic_stringIcSt11char_traitsIcESaIcEEEb
libarrow.so.1700:_ZN5arrow2fs15LocalFileSystem20GetFileInfoGeneratorERKNS0_12FileSelectorE
libarrow.so.1700:_ZN5arrow2fs15LocalFileSystem21DeleteRootDirContentsEv
libarrow.so.1700:_ZN5arrow2fs15LocalFileSystem4MoveERKNSt7__cxx1112basic_stringIcSt11char_traitsIcESaIcEEES9_
libarrow.so.1700:_ZN5arrow2fs15LocalFileSystem8CopyFileERKNSt7__cxx1112basic_stringIcSt11char_traitsIcESaIcEEES9_
libarrow.so.1700:_ZN5arrow2fs15LocalFileSystem9CreateDirERKNSt7__cxx1112basic_stringIcSt11char_traitsIcESaIcEEEb
libarrow.so.1700:_ZN5arrow2fs15LocalFileSystem9DeleteDirERKNSt7__cxx1112basic_stringIcSt11char_traitsIcESaIcEEE
libarrow.so.1700:_ZN5arrow2fs15LocalFileSystemC1ERKNS0_22LocalFileSystemOptionsERKNS_2io9IOContextE
libarrow.so.1700:_ZN5arrow2fs15LocalFileSystemC1ERKNS_2io9IOContextE
libarrow.so.1700:_ZN5arrow2fs15LocalFileSystemC2ERKNS0_22LocalFileSystemOptionsERKNS_2io9IOContextE
libarrow.so.1700:_ZN5arrow2fs15LocalFileSystemC2ERKNS_2io9IOContextE
libarrow.so.1700:_ZN5arrow2fs15LocalFileSystemD0Ev
libarrow.so.1700:_ZN5arrow2fs15LocalFileSystemD1Ev
libarrow.so.1700:_ZN5arrow2fs15LocalFileSystemD2Ev
libarrow.so.1700:_ZN5arrow2fs16HadoopFileSystem10DeleteFileERKNSt7__cxx1112basic_stringIcSt11char_traitsIcESaIcEEE
libarrow.so.1700:_ZN5arrow2fs16HadoopFileSystem11GetFileInfoERKNS0_12FileSelectorE
libarrow.so.1700:_ZN5arrow2fs16HadoopFileSystem11GetFileInfoERKNSt7__cxx1112basic_stringIcSt11char_traitsIcESaIcEEE
libarrow.so.1700:_ZN5arrow2fs16HadoopFileSystem13OpenInputFileERKNSt7__cxx1112basic_stringIcSt11char_traitsIcESaIcEEE
libarrow.so.1700:_ZN5arrow2fs16HadoopFileSystem15OpenInputStreamERKNSt7__cxx1112basic_stringIcSt11char_traitsIcESaIcEEE
libarrow.so.1700:_ZN5arrow2fs16HadoopFileSystem16OpenAppendStreamERKNSt7__cxx1112basic_stringIcSt11char_traitsIcESaIcEEERKSt10shared_ptrIKNS_16KeyValueMetadataEE
libarrow.so.1700:_ZN5arrow2fs16HadoopFileSystem16OpenOutputStreamERKNSt7__cxx1112basic_stringIcSt11char_traitsIcESaIcEEERKSt10shared_ptrIKNS_16KeyValueMetadataEE
libarrow.so.1700:_ZN5arrow2fs16HadoopFileSystem17DeleteDirContentsERKNSt7__cxx1112basic_stringIcSt11char_traitsIcESaIcEEEb
libarrow.so.1700:_ZN5arrow2fs16HadoopFileSystem21DeleteRootDirContentsEv
libarrow.so.1700:_ZN5arrow2fs16HadoopFileSystem4MakeERKNS0_11HdfsOptionsERKNS_2io9IOContextE
libarrow.so.1700:_ZN5arrow2fs16HadoopFileSystem4MoveERKNSt7__cxx1112basic_stringIcSt11char_traitsIcESaIcEEES9_
libarrow.so.1700:_ZN5arrow2fs16HadoopFileSystem8CopyFileERKNSt7__cxx1112basic_stringIcSt11char_traitsIcESaIcEEES9_
libarrow.so.1700:_ZN5arrow2fs16HadoopFileSystem9CreateDirERKNSt7__cxx1112basic_stringIcSt11char_traitsIcESaIcEEEb
libarrow.so.1700:_ZN5arrow2fs16HadoopFileSystem9DeleteDirERKNSt7__cxx1112basic_stringIcSt11char_traitsIcESaIcEEE
libarrow.so.1700:_ZN5arrow2fs16HadoopFileSystemC1ERKNS0_11HdfsOptionsERKNS_2io9IOContextE
libarrow.so.1700:_ZN5arrow2fs16HadoopFileSystemC2ERKNS0_11HdfsOptionsERKNS_2io9IOContextE
libarrow.so.1700:_ZN5arrow2fs16HadoopFileSystemD0Ev
libarrow.so.1700:_ZN5arrow2fs16HadoopFileSystemD1Ev
libarrow.so.1700:_ZN5arrow2fs16HadoopFileSystemD2Ev
libarrow.so.1700:_ZN5arrow2fs17FileSystemFromUriERKNSt7__cxx1112basic_stringIcSt11char_traitsIcESaIcEEEPS6_
libarrow.so.1700:_ZN5arrow2fs17FileSystemFromUriERKNSt7__cxx1112basic_stringIcSt11char_traitsIcESaIcEEEPSt10shared_ptrINS0_10FileSystemEEPS6_
libarrow.so.1700:_ZN5arrow2fs17FileSystemFromUriERKNSt7__cxx1112basic_stringIcSt11char_traitsIcESaIcEEERKNS_2io9IOContextEPS6_
libarrow.so.1700:_ZN5arrow2fs17SubTreeFileSystem10DeleteFileERKNSt7__cxx1112basic_stringIcSt11char_traitsIcESaIcEEE
libarrow.so.1700:_ZN5arrow2fs17SubTreeFileSystem11GetFileInfoERKNS0_12FileSelectorE
libarrow.so.1700:_ZN5arrow2fs17SubTreeFileSystem11GetFileInfoERKNSt7__cxx1112basic_stringIcSt11char_traitsIcESaIcEEE
libarrow.so.1700:_ZN5arrow2fs17SubTreeFileSystem13NormalizePathENSt7__cxx1112basic_stringIcSt11char_traitsIcESaIcEEE
libarrow.so.1700:_ZN5arrow2fs17SubTreeFileSystem13OpenInputFileERKNS0_8FileInfoE
libarrow.so.1700:_ZN5arrow2fs17SubTreeFileSystem13OpenInputFileERKNSt7__cxx1112basic_stringIcSt11char_traitsIcESaIcEEE
libarrow.so.1700:_ZN5arrow2fs17SubTreeFileSystem15OpenInputStreamERKNS0_8FileInfoE
libarrow.so.1700:_ZN5arrow2fs17SubTreeFileSystem15OpenInputStreamERKNSt7__cxx1112basic_stringIcSt11char_traitsIcESaIcEEE
libarrow.so.1700:_ZN5arrow2fs17SubTreeFileSystem16OpenAppendStreamERKNSt7__cxx1112basic_stringIcSt11char_traitsIcESaIcEEERKSt10shared_ptrIKNS_16KeyValueMetadataEE
libarrow.so.1700:_ZN5arrow2fs17SubTreeFileSystem16OpenOutputStreamERKNSt7__cxx1112basic_stringIcSt11char_traitsIcESaIcEEERKSt10shared_ptrIKNS_16KeyValueMetadataEE
libarrow.so.1700:_ZN5arrow2fs17SubTreeFileSystem17DeleteDirContentsERKNSt7__cxx1112basic_stringIcSt11char_traitsIcESaIcEEEb
libarrow.so.1700:_ZN5arrow2fs17SubTreeFileSystem17NormalizeBasePathENSt7__cxx1112basic_stringIcSt11char_traitsIcESaIcEEERKSt10shared_ptrINS0_10FileSystemEE
libarrow.so.1700:_ZN5arrow2fs17SubTreeFileSystem18OpenInputFileAsyncERKNS0_8FileInfoE
libarrow.so.1700:_ZN5arrow2fs17SubTreeFileSystem18OpenInputFileAsyncERKNSt7__cxx1112basic_stringIcSt11char_traitsIcESaIcEEE
libarrow.so.1700:_ZN5arrow2fs17SubTreeFileSystem20GetFileInfoGeneratorERKNS0_12FileSelectorE
libarrow.so.1700:_ZN5arrow2fs17SubTreeFileSystem20OpenInputStreamAsyncERKNS0_8FileInfoE
libarrow.so.1700:_ZN5arrow2fs17SubTreeFileSystem20OpenInputStreamAsyncERKNSt7__cxx1112basic_stringIcSt11char_traitsIcESaIcEEE
libarrow.so.1700:_ZN5arrow2fs17SubTreeFileSystem21DeleteRootDirContentsEv
libarrow.so.1700:_ZN5arrow2fs17SubTreeFileSystem4MoveERKNSt7__cxx1112basic_stringIcSt11char_traitsIcESaIcEEES9_
libarrow.so.1700:_ZN5arrow2fs17SubTreeFileSystem8CopyFileERKNSt7__cxx1112basic_stringIcSt11char_traitsIcESaIcEEES9_
libarrow.so.1700:_ZN5arrow2fs17SubTreeFileSystem9CreateDirERKNSt7__cxx1112basic_stringIcSt11char_traitsIcESaIcEEEb
libarrow.so.1700:_ZN5arrow2fs17SubTreeFileSystem9DeleteDirERKNSt7__cxx1112basic_stringIcSt11char_traitsIcESaIcEEE
libarrow.so.1700:_ZN5arrow2fs17SubTreeFileSystemC1ERKNSt7__cxx1112basic_stringIcSt11char_traitsIcESaIcEEESt10shared_ptrINS0_10FileSystemEE
libarrow.so.1700:_ZN5arrow2fs17SubTreeFileSystemC2ERKNSt7__cxx1112basic_stringIcSt11char_traitsIcESaIcEEESt10shared_ptrINS0_10FileSystemEE
libarrow.so.1700:_ZN5arrow2fs17SubTreeFileSystemD0Ev
libarrow.so.1700:_ZN5arrow2fs17SubTreeFileSystemD1Ev
libarrow.so.1700:_ZN5arrow2fs17SubTreeFileSystemD2Ev
libarrow.so.1700:_ZN5arrow2fs19FileSystemRegistrarC1ENSt7__cxx1112basic_stringIcSt11char_traitsIcESaIcEEENS0_17FileSystemFactoryESt8functionIFvvEE
libarrow.so.1700:_ZN5arrow2fs19FileSystemRegistrarC2ENSt7__cxx1112basic_stringIcSt11char_traitsIcESaIcEEENS0_17FileSystemFactoryESt8functionIFvvEE
libarrow.so.1700:_ZN5arrow2fs22LocalFileSystemOptions7FromUriERKNS_4util3UriEPNSt7__cxx1112basic_stringIcSt11char_traitsIcESaIcEEE
libarrow.so.1700:_ZN5arrow2fs22LocalFileSystemOptions8DefaultsEv
libarrow.so.1700:_ZN5arrow2fs23FileSystemFromUriOrPathERKNSt7__cxx1112basic_stringIcSt11char_traitsIcESaIcEEEPS6_
libarrow.so.1700:_ZN5arrow2fs23FileSystemFromUriOrPathERKNSt7__cxx1112basic_stringIcSt11char_traitsIcESaIcEEERKNS_2io9IOContextEPS6_
libarrow.so.1700:_ZN5arrow2fs23LoadFileSystemFactoriesEPKc
libarrow.so.1700:_ZN5arrow2fs25RegisterFileSystemFactoryENSt7__cxx1112basic_stringIcSt11char_traitsIcESaIcEEENS0_17FileSystemFactoryESt8functionIFvvEE
libarrow.so.1700:_ZN5arrow2fs8ToStringB5cxx11ENS0_8FileTypeE
libarrow.so.1700:_ZN5arrow2fs8internal10CopyStreamERKSt10shared_ptrINS_2io11InputStreamEERKS2_INS3_12OutputStreamEElRKNS3_9IOContextE
libarrow.so.1700:_ZN5arrow2fs8internal11IsEmptyPathESt17basic_string_viewIcSt11char_traitsIcEE
libarrow.so.1700:_ZN5arrow2fs8internal11IsLikelyUriESt17basic_string_viewIcSt11char_traitsIcEE
libarrow.so.1700:_ZN5arrow2fs8internal12IsAncestorOfESt17basic_string_viewIcSt11char_traitsIcEES5_
libarrow.so.1700:_ZN5arrow2fs8internal12PathNotFoundESt17basic_string_viewIcSt11char_traitsIcEE
libarrow.so.1700:_ZN5arrow2fs8internal12ToKmsKeyNameERKSt10shared_ptrIKNS_16KeyValueMetadataEE
libarrow.so.1700:_ZN5arrow2fs8internal13ToArrowStatusERKN6google5cloud5v2_296StatusE
libarrow.so.1700:_ZN5arrow2fs8internal13ToBackslashesB5cxx11ESt17basic_string_viewIcSt11char_traitsIcEE
libarrow.so.1700:_ZN5arrow2fs8internal14MockFileSystem10CreateFileERKNSt7__cxx1112basic_stringIcSt11char_traitsIcESaIcEEESt17basic_string_viewIcS6_Eb
libarrow.so.1700:_ZN5arrow2fs8internal14MockFileSystem10DeleteFileERKNSt7__cxx1112basic_stringIcSt11char_traitsIcESaIcEEE
libarrow.so.1700:_ZN5arrow2fs8internal14MockFileSystem11GetFileInfoERKNS0_12FileSelectorE
libarrow.so.1700:_ZN5arrow2fs8internal14MockFileSystem11GetFileInfoERKNSt7__cxx1112basic_stringIcSt11char_traitsIcESaIcEEE
libarrow.so.1700:_ZN5arrow2fs8internal14MockFileSystem13OpenInputFileERKNSt7__cxx1112basic_stringIcSt11char_traitsIcESaIcEEE
libarrow.so.1700:_ZN5arrow2fs8internal14MockFileSystem15OpenInputStreamERKNSt7__cxx1112basic_stringIcSt11char_traitsIcESaIcEEE
libarrow.so.1700:_ZN5arrow2fs8internal14MockFileSystem16OpenAppendStreamERKNSt7__cxx1112basic_stringIcSt11char_traitsIcESaIcEEERKSt10shared_ptrIKNS_16KeyValueMetadataEE
libarrow.so.1700:_ZN5arrow2fs8internal14MockFileSystem16OpenOutputStreamERKNSt7__cxx1112basic_stringIcSt11char_traitsIcESaIcEEERKSt10shared_ptrIKNS_16KeyValueMetadataEE
libarrow.so.1700:_ZN5arrow2fs8internal14MockFileSystem17DeleteDirContentsERKNSt7__cxx1112basic_stringIcSt11char_traitsIcESaIcEEEb
libarrow.so.1700:_ZN5arrow2fs8internal14MockFileSystem21DeleteRootDirContentsEv
libarrow.so.1700:_ZN5arrow2fs8internal14MockFileSystem4MakeENSt6chrono10time_pointINS3_3_V212system_clockENS3_8durationIlSt5ratioILl1ELl1000000000EEEEEERKSt6vectorINS0_8FileInfoESaISD_EE
libarrow.so.1700:_ZN5arrow2fs8internal14MockFileSystem4MoveERKNSt7__cxx1112basic_stringIcSt11char_traitsIcESaIcEEESA_
libarrow.so.1700:_ZN5arrow2fs8internal14MockFileSystem7AllDirsEv
libarrow.so.1700:_ZN5arrow2fs8internal14MockFileSystem8AllFilesEv
libarrow.so.1700:_ZN5arrow2fs8internal14MockFileSystem8CopyFileERKNSt7__cxx1112basic_stringIcSt11char_traitsIcESaIcEEESA_
libarrow.so.1700:_ZN5arrow2fs8internal14MockFileSystem9CreateDirERKNSt7__cxx1112basic_stringIcSt11char_traitsIcESaIcEEEb
libarrow.so.1700:_ZN5arrow2fs8internal14MockFileSystem9DeleteDirERKNSt7__cxx1112basic_stringIcSt11char_traitsIcESaIcEEE
libarrow.so.1700:_ZN5arrow2fs8internal14MockFileSystemC1ENSt6chrono10time_pointINS3_3_V212system_clockENS3_8durationIlSt5ratioILl1ELl1000000000EEEEEERKNS_2io9IOContextE
libarrow.so.1700:_ZN5arrow2fs8internal14MockFileSystemC2ENSt6chrono10time_pointINS3_3_V212system_clockENS3_8durationIlSt5ratioILl1ELl1000000000EEEEEERKNS_2io9IOContextE
libarrow.so.1700:_ZN5arrow2fs8internal14MockFileSystemD0Ev
libarrow.so.1700:_ZN5arrow2fs8internal14MockFileSystemD1Ev
libarrow.so.1700:_ZN5arrow2fs8internal14MockFileSystemD2Ev
libarrow.so.1700:_ZN5arrow2fs8internal14RemoveAncestorESt17basic_string_viewIcSt11char_traitsIcEES5_
libarrow.so.1700:_ZN5arrow2fs8internal15ErrnoFromStatusERKN6google5cloud5v2_296StatusE
libarrow.so.1700:_ZN5arrow2fs8internal15ToEncryptionKeyERKSt10shared_ptrIKNS_16KeyValueMetadataEE
libarrow.so.1700:_ZN5arrow2fs8internal15ToPredefinedAclERKSt10shared_ptrIKNS_16KeyValueMetadataEE
libarrow.so.1700:_ZN5arrow2fs8internal16CurrentTimePointEv
libarrow.so.1700:_ZN5arrow2fs8internal16ToObjectMetadataERKSt10shared_ptrIKNS_16KeyValueMetadataEE
libarrow.so.1700:_ZN5arrow2fs8internal17PathFromUriHelperERKNSt7__cxx1112basic_stringIcSt11char_traitsIcESaIcEEESt6vectorIS7_SaIS7_EEbNS1_25AuthorityHandlingBehaviorE
libarrow.so.1700:_ZN5arrow2fs8internal17SliceAbstractPathERKNSt7__cxx1112basic_stringIcSt11char_traitsIcESaIcEEEiic
libarrow.so.1700:_ZN5arrow2fs8internal17SplitAbstractPathERKNSt7__cxx1112basic_stringIcSt11char_traitsIcESaIcEEEc
libarrow.so.1700:_ZN5arrow2fs8internal18ConcatAbstractPathB5cxx11ESt17basic_string_viewIcSt11char_traitsIcEES5_
libarrow.so.1700:_ZN5arrow2fs8internal18DetectAbsolutePathERKNSt7__cxx1112basic_stringIcSt11char_traitsIcESaIcEEE
libarrow.so.1700:_ZN5arrow2fs8internal18EnsureLeadingSlashB5cxx11ESt17basic_string_viewIcSt11char_traitsIcEE
libarrow.so.1700:_ZN5arrow2fs8internal18FromObjectMetadataERKN6google5cloud7storage5v2_2914ObjectMetadataE
libarrow.so.1700:_ZN5arrow2fs8internal18ParseFileSystemUriERKNSt7__cxx1112basic_stringIcSt11char_traitsIcESaIcEEE
libarrow.so.1700:_ZN5arrow2fs8internal18RemoveLeadingSlashESt17basic_string_viewIcSt11char_traitsIcEE
libarrow.so.1700:_ZN5arrow2fs8internal19EnsureTrailingSlashB5cxx11ESt17basic_string_viewIcSt11char_traitsIcEE
libarrow.so.1700:_ZN5arrow2fs8internal19MinimalCreateDirSetESt6vectorINSt7__cxx1112basic_stringIcSt11char_traitsIcESaIcEEESaIS8_EE
libarrow.so.1700:_ZN5arrow2fs8internal19MockAsyncFileSystem20GetFileInfoGeneratorERKNS0_12FileSelectorE
libarrow.so.1700:_ZN5arrow2fs8internal19RemoveTrailingSlashESt17basic_string_viewIcSt11char_traitsIcEEb
libarrow.so.1700:_ZN5arrow2fs8internal20AsGoogleCloudOptionsERKNS0_10GcsOptionsE
libarrow.so.1700:_ZN5arrow2fs8internal20GetAbstractPathDepthESt17basic_string_viewIcSt11char_traitsIcEE
libarrow.so.1700:_ZN5arrow2fs8internal20ValidateAbstractPathESt17basic_string_viewIcSt11char_traitsIcEE
libarrow.so.1700:_ZN5arrow2fs8internal21AncestorsFromBasePathB5cxx11ESt17basic_string_viewIcSt11char_traitsIcEES5_
libarrow.so.1700:_ZN5arrow2fs8internal21AssertNoTrailingSlashESt17basic_string_viewIcSt11char_traitsIcEE
libarrow.so.1700:_ZN5arrow2fs8internal21GetAbstractPathParentERKNSt7__cxx1112basic_stringIcSt11char_traitsIcESaIcEEE
libarrow.so.1700:_ZN5arrow2fs8internal21GetFileSystemRegistryEv
libarrow.so.1700:_ZN5arrow2fs8internal24GetAbstractPathExtensionERKNSt7__cxx1112basic_stringIcSt11char_traitsIcESaIcEEE
libarrow.so.1700:_ZN5arrow2fs8internal24InvalidDeleteDirContentsESt17basic_string_viewIcSt11char_traitsIcEE
libarrow.so.1700:_ZN5arrow2fs8internal24MakeAbstractPathRelativeERKNSt7__cxx1112basic_stringIcSt11char_traitsIcESaIcEEES9_
libarrow.so.1700:_ZN5arrow2fs8internal25ValidateAbstractPathPartsERKSt6vectorINSt7__cxx1112basic_stringIcSt11char_traitsIcESaIcEEESaIS8_EE
libarrow.so.1700:_ZN5arrow2fs8internal5DepthESt17basic_string_viewIcSt11char_traitsIcEE
libarrow.so.1700:_ZN5arrow2fs8internal6IsADirESt17basic_string_viewIcSt11char_traitsIcEE
libarrow.so.1700:_ZN5arrow2fs8internal7Globber7MatchesERKNSt7__cxx1112basic_stringIcSt11char_traitsIcESaIcEEE
libarrow.so.1700:_ZN5arrow2fs8internal7GlobberC1ENSt7__cxx1112basic_stringIcSt11char_traitsIcESaIcEEE
libarrow.so.1700:_ZN5arrow2fs8internal7GlobberC2ENSt7__cxx1112basic_stringIcSt11char_traitsIcESaIcEEE
libarrow.so.1700:_ZN5arrow2fs8internal7GlobberD1Ev
libarrow.so.1700:_ZN5arrow2fs8internal7GlobberD2Ev
libarrow.so.1700:_ZN5arrow2fs8internal7NotADirESt17basic_string_viewIcSt11char_traitsIcEE
libarrow.so.1700:_ZN5arrow2fs8internal8NotAFileESt17basic_string_viewIcSt11char_traitsIcEE
libarrow.so.1700:_ZN5arrow2fs8internal8NotEmptyESt17basic_string_viewIcSt11char_traitsIcEE
libarrow.so.1700:_ZN5arrow2fs8internal9GlobFilesERKSt10shared_ptrINS0_10FileSystemEERKNSt7__cxx1112basic_stringIcSt11char_traitsIcESaIcEEE
libarrow.so.1700:_ZN5arrow2fs8internal9ToSlashesB5cxx11ESt17basic_string_viewIcSt11char_traitsIcEE
libarrow.so.1700:_ZN5arrow2fs8internallsERSoRKNS1_11MockDirInfoE
libarrow.so.1700:_ZN5arrow2fs8internallsERSoRKNS1_12MockFileInfoE
libarrow.so.1700:_ZN5arrow2fs9CopyFilesERKSt10shared_ptrINS0_10FileSystemEERKNS0_12FileSelectorES5_RKNSt7__cxx1112basic_stringIcSt11char_traitsIcESaIcEEERKNS_2io9IOContextElb
libarrow.so.1700:_ZN5arrow2fs9CopyFilesERKSt6vectorINS0_11FileLocatorESaIS2_EES6_RKNS_2io9IOContextElb
libarrow.so.1700:_ZN5arrow2fslsERSoNS0_8FileTypeE
libarrow.so.1700:_ZN5arrow2fslsERSoRKNS0_8FileInfoE
libarrow.so.1700:_ZN5arrow2io11HaveLibHdfsEv
libarrow.so.1700:_ZN5arrow2io11InputStream12ReadMetadataEv
libarrow.so.1700:_ZN5arrow2io11InputStream17ReadMetadataAsyncERKNS0_9IOContextE
libarrow.so.1700:_ZN5arrow2io11InputStream17ReadMetadataAsyncEv
libarrow.so.1700:_ZN5arrow2io11InputStream4PeekEl
libarrow.so.1700:_ZN5arrow2io11InputStream7AdvanceEl
libarrow.so.1700:_ZN5arrow2io11StdinStream4ReadEl
libarrow.so.1700:_ZN5arrow2io11StdinStream4ReadElPv
libarrow.so.1700:_ZN5arrow2io11StdinStream5CloseEv
libarrow.so.1700:_ZN5arrow2io11StdinStreamC1Ev
libarrow.so.1700:_ZN5arrow2io11StdinStreamC2Ev
libarrow.so.1700:_ZN5arrow2io12BufferReader10FromStringENSt7__cxx1112basic_stringIcSt11char_traitsIcESaIcEEE
libarrow.so.1700:_ZN5arrow2io12BufferReader6DoPeekEl
libarrow.so.1700:_ZN5arrow2io12BufferReader6DoReadEl
libarrow.so.1700:_ZN5arrow2io12BufferReader6DoReadElPv
libarrow.so.1700:_ZN5arrow2io12BufferReader6DoSeekEl
libarrow.so.1700:_ZN5arrow2io12BufferReader7DoCloseEv
libarrow.so.1700:_ZN5arrow2io12BufferReader8DoReadAtEll
libarrow.so.1700:_ZN5arrow2io12BufferReader8DoReadAtEllPv
libarrow.so.1700:_ZN5arrow2io12BufferReader8WillNeedERKSt6vectorINS0_9ReadRangeESaIS3_EE
libarrow.so.1700:_ZN5arrow2io12BufferReader9DoGetSizeEv
libarrow.so.1700:_ZN5arrow2io12BufferReader9ReadAsyncERKNS0_9IOContextEll
libarrow.so.1700:_ZN5arrow2io12BufferReaderC1EPKhl
libarrow.so.1700:_ZN5arrow2io12BufferReaderC1ERKNS_6BufferE
libarrow.so.1700:_ZN5arrow2io12BufferReaderC1ESt10shared_ptrINS_6BufferEE
libarrow.so.1700:_ZN5arrow2io12BufferReaderC1ESt17basic_string_viewIcSt11char_traitsIcEE
libarrow.so.1700:_ZN5arrow2io12BufferReaderC2EPKhl
libarrow.so.1700:_ZN5arrow2io12BufferReaderC2ERKNS_6BufferE
libarrow.so.1700:_ZN5arrow2io12BufferReaderC2ESt10shared_ptrINS_6BufferEE
libarrow.so.1700:_ZN5arrow2io12BufferReaderC2ESt17basic_string_viewIcSt11char_traitsIcEE
libarrow.so.1700:_ZN5arrow2io12CacheOptions12LazyDefaultsEv
libarrow.so.1700:_ZN5arrow2io12CacheOptions22MakeFromNetworkMetricsElldl
libarrow.so.1700:_ZN5arrow2io12CacheOptions8DefaultsEv
libarrow.so.1700:_ZN5arrow2io12ReadableFile4OpenERKNSt7__cxx1112basic_stringIcSt11char_traitsIcESaIcEEEPNS_10MemoryPoolE
libarrow.so.1700:_ZN5arrow2io12ReadableFile4OpenEiPNS_10MemoryPoolE
libarrow.so.1700:_ZN5arrow2io12ReadableFile6DoReadEl
libarrow.so.1700:_ZN5arrow2io12ReadableFile6DoReadElPv
libarrow.so.1700:_ZN5arrow2io12ReadableFile6DoSeekEl
libarrow.so.1700:_ZN5arrow2io12ReadableFile7DoCloseEv
libarrow.so.1700:_ZN5arrow2io12ReadableFile8DoReadAtEll
libarrow.so.1700:_ZN5arrow2io12ReadableFile8DoReadAtEllPv
libarrow.so.1700:_ZN5arrow2io12ReadableFile8WillNeedERKSt6vectorINS0_9ReadRangeESaIS3_EE
libarrow.so.1700:_ZN5arrow2io12ReadableFile9DoGetSizeEv
libarrow.so.1700:_ZN5arrow2io12ReadableFileC1EPNS_10MemoryPoolE
libarrow.so.1700:_ZN5arrow2io12ReadableFileC2EPNS_10MemoryPoolE
libarrow.so.1700:_ZN5arrow2io12ReadableFileD0Ev
libarrow.so.1700:_ZN5arrow2io12ReadableFileD1Ev
libarrow.so.1700:_ZN5arrow2io12ReadableFileD2Ev
libarrow.so.1700:_ZN5arrow2io12StderrStream5CloseEv
libarrow.so.1700:_ZN5arrow2io12StderrStream5WriteEPKvl
libarrow.so.1700:_ZN5arrow2io12StderrStreamC1Ev
libarrow.so.1700:_ZN5arrow2io12StderrStreamC2Ev
libarrow.so.1700:_ZN5arrow2io12StdoutStream5CloseEv
libarrow.so.1700:_ZN5arrow2io12StdoutStream5WriteEPKvl
libarrow.so.1700:_ZN5arrow2io12StdoutStreamC1Ev
libarrow.so.1700:_ZN5arrow2io12StdoutStreamC2Ev
libarrow.so.1700:_ZN5arrow2io13FileInterface10CloseAsyncEv
libarrow.so.1700:_ZN5arrow2io13FileInterface5AbortEv
libarrow.so.1700:_ZN5arrow2io13FileInterfaceD0Ev
libarrow.so.1700:_ZN5arrow2io13FileInterfaceD1Ev
libarrow.so.1700:_ZN5arrow2io13FileInterfaceD2Ev
libarrow.so.1700:_ZN5arrow2io15SlowInputStream4PeekEl
libarrow.so.1700:_ZN5arrow2io15SlowInputStream4ReadEl
libarrow.so.1700:_ZN5arrow2io15SlowInputStream4ReadElPv
libarrow.so.1700:_ZN5arrow2io15SlowInputStream5AbortEv
libarrow.so.1700:_ZN5arrow2io15SlowInputStream5CloseEv
libarrow.so.1700:_ZN5arrow2io15SlowInputStreamD0Ev
libarrow.so.1700:_ZN5arrow2io15SlowInputStreamD1Ev
libarrow.so.1700:_ZN5arrow2io15SlowInputStreamD2Ev
libarrow.so.1700:_ZN5arrow2io16FileOutputStream4OpenERKNSt7__cxx1112basic_stringIcSt11char_traitsIcESaIcEEEb
libarrow.so.1700:_ZN5arrow2io16FileOutputStream4OpenEi
libarrow.so.1700:_ZN5arrow2io16FileOutputStream5CloseEv
libarrow.so.1700:_ZN5arrow2io16FileOutputStream5WriteEPKvl
libarrow.so.1700:_ZN5arrow2io16FileOutputStreamC1Ev
libarrow.so.1700:_ZN5arrow2io16FileOutputStreamC2Ev
libarrow.so.1700:_ZN5arrow2io16FileOutputStreamD0Ev
libarrow.so.1700:_ZN5arrow2io16FileOutputStreamD1Ev
libarrow.so.1700:_ZN5arrow2io16FileOutputStreamD2Ev
libarrow.so.1700:_ZN5arrow2io16HadoopFileSystem10DisconnectEv
libarrow.so.1700:_ZN5arrow2io16HadoopFileSystem11GetCapacityEPl
libarrow.so.1700:_ZN5arrow2io16HadoopFileSystem11GetChildrenERKNSt7__cxx1112basic_stringIcSt11char_traitsIcESaIcEEEPSt6vectorIS7_SaIS7_EE
libarrow.so.1700:_ZN5arrow2io16HadoopFileSystem11GetPathInfoERKNSt7__cxx1112basic_stringIcSt11char_traitsIcESaIcEEEPNS0_12HdfsPathInfoE
libarrow.so.1700:_ZN5arrow2io16HadoopFileSystem12OpenReadableERKNSt7__cxx1112basic_stringIcSt11char_traitsIcESaIcEEEPSt10shared_ptrINS0_16HdfsReadableFileEE
libarrow.so.1700:_ZN5arrow2io16HadoopFileSystem12OpenReadableERKNSt7__cxx1112basic_stringIcSt11char_traitsIcESaIcEEERKNS0_9IOContextEPSt10shared_ptrINS0_16HdfsReadableFileEE
libarrow.so.1700:_ZN5arrow2io16HadoopFileSystem12OpenReadableERKNSt7__cxx1112basic_stringIcSt11char_traitsIcESaIcEEEiPSt10shared_ptrINS0_16HdfsReadableFileEE
libarrow.so.1700:_ZN5arrow2io16HadoopFileSystem12OpenReadableERKNSt7__cxx1112basic_stringIcSt11char_traitsIcESaIcEEEiRKNS0_9IOContextEPSt10shared_ptrINS0_16HdfsReadableFileEE
libarrow.so.1700:_ZN5arrow2io16HadoopFileSystem12OpenWritableERKNSt7__cxx1112basic_stringIcSt11char_traitsIcESaIcEEEbPSt10shared_ptrINS0_16HdfsOutputStreamEE
libarrow.so.1700:_ZN5arrow2io16HadoopFileSystem12OpenWritableERKNSt7__cxx1112basic_stringIcSt11char_traitsIcESaIcEEEbislPSt10shared_ptrINS0_16HdfsOutputStreamEE
libarrow.so.1700:_ZN5arrow2io16HadoopFileSystem13ListDirectoryERKNSt7__cxx1112basic_stringIcSt11char_traitsIcESaIcEEEPSt6vectorINS0_12HdfsPathInfoESaISB_EE
libarrow.so.1700:_ZN5arrow2io16HadoopFileSystem13MakeDirectoryERKNSt7__cxx1112basic_stringIcSt11char_traitsIcESaIcEEE
libarrow.so.1700:_ZN5arrow2io16HadoopFileSystem15DeleteDirectoryERKNSt7__cxx1112basic_stringIcSt11char_traitsIcESaIcEEE
libarrow.so.1700:_ZN5arrow2io16HadoopFileSystem19GetWorkingDirectoryEPNSt7__cxx1112basic_stringIcSt11char_traitsIcESaIcEEE
libarrow.so.1700:_ZN5arrow2io16HadoopFileSystem4CopyERKNSt7__cxx1112basic_stringIcSt11char_traitsIcESaIcEEES9_
libarrow.so.1700:_ZN5arrow2io16HadoopFileSystem4MoveERKNSt7__cxx1112basic_stringIcSt11char_traitsIcESaIcEEES9_
libarrow.so.1700:_ZN5arrow2io16HadoopFileSystem4StatERKNSt7__cxx1112basic_stringIcSt11char_traitsIcESaIcEEEPNS0_14FileStatisticsE
libarrow.so.1700:_ZN5arrow2io16HadoopFileSystem5ChmodERKNSt7__cxx1112basic_stringIcSt11char_traitsIcESaIcEEEi
libarrow.so.1700:_ZN5arrow2io16HadoopFileSystem5ChownERKNSt7__cxx1112basic_stringIcSt11char_traitsIcESaIcEEEPKcSB_
libarrow.so.1700:_ZN5arrow2io16HadoopFileSystem6DeleteERKNSt7__cxx1112basic_stringIcSt11char_traitsIcESaIcEEEb
libarrow.so.1700:_ZN5arrow2io16HadoopFileSystem6ExistsERKNSt7__cxx1112basic_stringIcSt11char_traitsIcESaIcEEE
libarrow.so.1700:_ZN5arrow2io16HadoopFileSystem6RenameERKNSt7__cxx1112basic_stringIcSt11char_traitsIcESaIcEEES9_
libarrow.so.1700:_ZN5arrow2io16HadoopFileSystem7ConnectEPKNS0_20HdfsConnectionConfigEPSt10shared_ptrIS1_E
libarrow.so.1700:_ZN5arrow2io16HadoopFileSystem7GetUsedEPl
libarrow.so.1700:_ZN5arrow2io16HadoopFileSystemC1Ev
libarrow.so.1700:_ZN5arrow2io16HadoopFileSystemC2Ev
libarrow.so.1700:_ZN5arrow2io16HadoopFileSystemD0Ev
libarrow.so.1700:_ZN5arrow2io16HadoopFileSystemD1Ev
libarrow.so.1700:_ZN5arrow2io16HadoopFileSystemD2Ev
libarrow.so.1700:_ZN5arrow2io16HdfsOutputStream5CloseEv
libarrow.so.1700:_ZN5arrow2io16HdfsOutputStream5FlushEv
libarrow.so.1700:_ZN5arrow2io16HdfsOutputStream5WriteEPKvl
libarrow.so.1700:_ZN5arrow2io16HdfsOutputStreamC1Ev
libarrow.so.1700:_ZN5arrow2io16HdfsOutputStreamC2Ev
libarrow.so.1700:_ZN5arrow2io16HdfsOutputStreamD0Ev
libarrow.so.1700:_ZN5arrow2io16HdfsOutputStreamD1Ev
libarrow.so.1700:_ZN5arrow2io16HdfsOutputStreamD2Ev
libarrow.so.1700:_ZN5arrow2io16HdfsReadableFile4ReadEl
libarrow.so.1700:_ZN5arrow2io16HdfsReadableFile4ReadElPv
libarrow.so.1700:_ZN5arrow2io16HdfsReadableFile4SeekEl
libarrow.so.1700:_ZN5arrow2io16HdfsReadableFile5CloseEv
libarrow.so.1700:_ZN5arrow2io16HdfsReadableFile6ReadAtEll
libarrow.so.1700:_ZN5arrow2io16HdfsReadableFile6ReadAtEllPv
libarrow.so.1700:_ZN5arrow2io16HdfsReadableFile7GetSizeEv
libarrow.so.1700:_ZN5arrow2io16HdfsReadableFileC1ERKNS0_9IOContextE
libarrow.so.1700:_ZN5arrow2io16HdfsReadableFileC2ERKNS0_9IOContextE
libarrow.so.1700:_ZN5arrow2io16HdfsReadableFileD0Ev
libarrow.so.1700:_ZN5arrow2io16HdfsReadableFileD1Ev
libarrow.so.1700:_ZN5arrow2io16HdfsReadableFileD2Ev
libarrow.so.1700:_ZN5arrow2io16LatencyGenerator4MakeEd
libarrow.so.1700:_ZN5arrow2io16LatencyGenerator4MakeEdi
libarrow.so.1700:_ZN5arrow2io16LatencyGenerator5SleepEv
libarrow.so.1700:_ZN5arrow2io16LatencyGeneratorD0Ev
libarrow.so.1700:_ZN5arrow2io16LatencyGeneratorD1Ev
libarrow.so.1700:_ZN5arrow2io16LatencyGeneratorD2Ev
libarrow.so.1700:_ZN5arrow2io16MemoryMappedFile13WriteInternalEPKvl
libarrow.so.1700:_ZN5arrow2io16MemoryMappedFile4OpenERKNSt7__cxx1112basic_stringIcSt11char_traitsIcESaIcEEENS0_8FileMode4typeE
libarrow.so.1700:_ZN5arrow2io16MemoryMappedFile4OpenERKNSt7__cxx1112basic_stringIcSt11char_traitsIcESaIcEEENS0_8FileMode4typeEll
libarrow.so.1700:_ZN5arrow2io16MemoryMappedFile4ReadEl
libarrow.so.1700:_ZN5arrow2io16MemoryMappedFile4ReadElPv
libarrow.so.1700:_ZN5arrow2io16MemoryMappedFile4SeekEl
libarrow.so.1700:_ZN5arrow2io16MemoryMappedFile5CloseEv
libarrow.so.1700:_ZN5arrow2io16MemoryMappedFile5WriteEPKvl
libarrow.so.1700:_ZN5arrow2io16MemoryMappedFile6CreateERKNSt7__cxx1112basic_stringIcSt11char_traitsIcESaIcEEEl
libarrow.so.1700:_ZN5arrow2io16MemoryMappedFile6ReadAtEll
libarrow.so.1700:_ZN5arrow2io16MemoryMappedFile6ReadAtEllPv
libarrow.so.1700:_ZN5arrow2io16MemoryMappedFile6ResizeEl
libarrow.so.1700:_ZN5arrow2io16MemoryMappedFile7GetSizeEv
libarrow.so.1700:_ZN5arrow2io16MemoryMappedFile7WriteAtElPKvl
libarrow.so.1700:_ZN5arrow2io16MemoryMappedFile8WillNeedERKSt6vectorINS0_9ReadRangeESaIS3_EE
libarrow.so.1700:_ZN5arrow2io16MemoryMappedFile9ReadAsyncERKNS0_9IOContextEll
libarrow.so.1700:_ZN5arrow2io16MemoryMappedFileC1Ev
libarrow.so.1700:_ZN5arrow2io16MemoryMappedFileC2Ev
libarrow.so.1700:_ZN5arrow2io16MemoryMappedFileD0Ev
libarrow.so.1700:_ZN5arrow2io16MemoryMappedFileD1Ev
libarrow.so.1700:_ZN5arrow2io16MemoryMappedFileD2Ev
libarrow.so.1700:_ZN5arrow2io16MockOutputStream5CloseEv
libarrow.so.1700:_ZN5arrow2io16MockOutputStream5WriteEPKvl
libarrow.so.1700:_ZN5arrow2io16RandomAccessFile13ReadManyAsyncERKNS0_9IOContextERKSt6vectorINS0_9ReadRangeESaIS6_EE
libarrow.so.1700:_ZN5arrow2io16RandomAccessFile13ReadManyAsyncERKSt6vectorINS0_9ReadRangeESaIS3_EE
libarrow.so.1700:_ZN5arrow2io16RandomAccessFile6ReadAtEll
libarrow.so.1700:_ZN5arrow2io16RandomAccessFile6ReadAtEllPv
libarrow.so.1700:_ZN5arrow2io16RandomAccessFile8WillNeedERKSt6vectorINS0_9ReadRangeESaIS3_EE
libarrow.so.1700:_ZN5arrow2io16RandomAccessFile9GetStreamESt10shared_ptrIS1_Ell
libarrow.so.1700:_ZN5arrow2io16RandomAccessFile9ReadAsyncERKNS0_9IOContextEll
libarrow.so.1700:_ZN5arrow2io16RandomAccessFile9ReadAsyncEll
libarrow.so.1700:_ZN5arrow2io16RandomAccessFileC1Ev
libarrow.so.1700:_ZN5arrow2io16RandomAccessFileC2Ev
libarrow.so.1700:_ZN5arrow2io16RandomAccessFileD0Ev
libarrow.so.1700:_ZN5arrow2io16RandomAccessFileD1Ev
libarrow.so.1700:_ZN5arrow2io16RandomAccessFileD2Ev
libarrow.so.1700:_ZN5arrow2io18BufferOutputStream5CloseEv
libarrow.so.1700:_ZN5arrow2io18BufferOutputStream5ResetElPNS_10MemoryPoolE
libarrow.so.1700:_ZN5arrow2io18BufferOutputStream5WriteEPKvl
libarrow.so.1700:_ZN5arrow2io18BufferOutputStream6CreateElPNS_10MemoryPoolE
libarrow.so.1700:_ZN5arrow2io18BufferOutputStream6FinishEv
libarrow.so.1700:_ZN5arrow2io18BufferOutputStream7ReserveEl
libarrow.so.1700:_ZN5arrow2io18BufferOutputStreamC1ERKSt10shared_ptrINS_15ResizableBufferEE
libarrow.so.1700:_ZN5arrow2io18BufferOutputStreamC1Ev
libarrow.so.1700:_ZN5arrow2io18BufferOutputStreamC2ERKSt10shared_ptrINS_15ResizableBufferEE
libarrow.so.1700:_ZN5arrow2io18BufferOutputStreamC2Ev
libarrow.so.1700:_ZN5arrow2io18BufferOutputStreamD0Ev
libarrow.so.1700:_ZN5arrow2io18BufferOutputStreamD1Ev
libarrow.so.1700:_ZN5arrow2io18BufferOutputStreamD2Ev
libarrow.so.1700:_ZN5arrow2io18default_io_contextEv
libarrow.so.1700:_ZN5arrow2io19BufferedInputStream12ReadMetadataEv
libarrow.so.1700:_ZN5arrow2io19BufferedInputStream13SetBufferSizeEl
libarrow.so.1700:_ZN5arrow2io19BufferedInputStream17ReadMetadataAsyncERKNS0_9IOContextE
libarrow.so.1700:_ZN5arrow2io19BufferedInputStream6CreateElPNS_10MemoryPoolESt10shared_ptrINS0_11InputStreamEEl
libarrow.so.1700:_ZN5arrow2io19BufferedInputStream6DetachEv
libarrow.so.1700:_ZN5arrow2io19BufferedInputStream6DoPeekEl
libarrow.so.1700:_ZN5arrow2io19BufferedInputStream6DoReadEl
libarrow.so.1700:_ZN5arrow2io19BufferedInputStream6DoReadElPv
libarrow.so.1700:_ZN5arrow2io19BufferedInputStream7DoAbortEv
libarrow.so.1700:_ZN5arrow2io19BufferedInputStream7DoCloseEv
libarrow.so.1700:_ZN5arrow2io19BufferedInputStreamC1ESt10shared_ptrINS0_11InputStreamEEPNS_10MemoryPoolEl
libarrow.so.1700:_ZN5arrow2io19BufferedInputStreamC2ESt10shared_ptrINS0_11InputStreamEEPNS_10MemoryPoolEl
libarrow.so.1700:_ZN5arrow2io19BufferedInputStreamD0Ev
libarrow.so.1700:_ZN5arrow2io19BufferedInputStreamD1Ev
libarrow.so.1700:_ZN5arrow2io19BufferedInputStreamD2Ev
libarrow.so.1700:_ZN5arrow2io20BufferedOutputStream13SetBufferSizeEl
libarrow.so.1700:_ZN5arrow2io20BufferedOutputStream5AbortEv
libarrow.so.1700:_ZN5arrow2io20BufferedOutputStream5CloseEv
libarrow.so.1700:_ZN5arrow2io20BufferedOutputStream5FlushEv
libarrow.so.1700:_ZN5arrow2io20BufferedOutputStream5WriteEPKvl
libarrow.so.1700:_ZN5arrow2io20BufferedOutputStream5WriteERKSt10shared_ptrINS_6BufferEE
libarrow.so.1700:_ZN5arrow2io20BufferedOutputStream6CreateElPNS_10MemoryPoolESt10shared_ptrINS0_12OutputStreamEE
libarrow.so.1700:_ZN5arrow2io20BufferedOutputStream6DetachEv
libarrow.so.1700:_ZN5arrow2io20BufferedOutputStreamC1ESt10shared_ptrINS0_12OutputStreamEEPNS_10MemoryPoolE
libarrow.so.1700:_ZN5arrow2io20BufferedOutputStreamC2ESt10shared_ptrINS0_12OutputStreamEEPNS_10MemoryPoolE
libarrow.so.1700:_ZN5arrow2io20BufferedOutputStreamD0Ev
libarrow.so.1700:_ZN5arrow2io20BufferedOutputStreamD1Ev
libarrow.so.1700:_ZN5arrow2io20BufferedOutputStreamD2Ev
libarrow.so.1700:_ZN5arrow2io20SlowRandomAccessFile4PeekEl
libarrow.so.1700:_ZN5arrow2io20SlowRandomAccessFile4ReadEl
libarrow.so.1700:_ZN5arrow2io20SlowRandomAccessFile4ReadElPv
libarrow.so.1700:_ZN5arrow2io20SlowRandomAccessFile4SeekEl
libarrow.so.1700:_ZN5arrow2io20SlowRandomAccessFile5AbortEv
libarrow.so.1700:_ZN5arrow2io20SlowRandomAccessFile5CloseEv
libarrow.so.1700:_ZN5arrow2io20SlowRandomAccessFile6ReadAtEll
libarrow.so.1700:_ZN5arrow2io20SlowRandomAccessFile6ReadAtEllPv
libarrow.so.1700:_ZN5arrow2io20SlowRandomAccessFile7GetSizeEv
libarrow.so.1700:_ZN5arrow2io20SlowRandomAccessFileD0Ev
libarrow.so.1700:_ZN5arrow2io20SlowRandomAccessFileD1Ev
libarrow.so.1700:_ZN5arrow2io20SlowRandomAccessFileD2Ev
libarrow.so.1700:_ZN5arrow2io20TransformInputStream12ReadMetadataEv
libarrow.so.1700:_ZN5arrow2io20TransformInputStream17ReadMetadataAsyncERKNS0_9IOContextE
libarrow.so.1700:_ZN5arrow2io20TransformInputStream4ReadEl
libarrow.so.1700:_ZN5arrow2io20TransformInputStream4ReadElPv
libarrow.so.1700:_ZN5arrow2io20TransformInputStream5AbortEv
libarrow.so.1700:_ZN5arrow2io20TransformInputStream5CloseEv
libarrow.so.1700:_ZN5arrow2io20TransformInputStreamC1ESt10shared_ptrINS0_11InputStreamEESt8functionIFNS_6ResultIS2_INS_6BufferEEEERKS8_EE
libarrow.so.1700:_ZN5arrow2io20TransformInputStreamC2ESt10shared_ptrINS0_11InputStreamEESt8functionIFNS_6ResultIS2_INS_6BufferEEEERKS8_EE
libarrow.so.1700:_ZN5arrow2io20TransformInputStreamD0Ev
libarrow.so.1700:_ZN5arrow2io20TransformInputStreamD1Ev
libarrow.so.1700:_ZN5arrow2io20TransformInputStreamD2Ev
libarrow.so.1700:_ZN5arrow2io21CompressedInputStream12ReadMetadataEv
libarrow.so.1700:_ZN5arrow2io21CompressedInputStream17ReadMetadataAsyncERKNS0_9IOContextE
libarrow.so.1700:_ZN5arrow2io21CompressedInputStream4MakeEPNS_4util5CodecERKSt10shared_ptrINS0_11InputStreamEEPNS_10MemoryPoolE
libarrow.so.1700:_ZN5arrow2io21CompressedInputStream6DoReadEl
libarrow.so.1700:_ZN5arrow2io21CompressedInputStream6DoReadElPv
libarrow.so.1700:_ZN5arrow2io21CompressedInputStream7DoAbortEv
libarrow.so.1700:_ZN5arrow2io21CompressedInputStream7DoCloseEv
libarrow.so.1700:_ZN5arrow2io21CompressedInputStreamD0Ev
libarrow.so.1700:_ZN5arrow2io21CompressedInputStreamD1Ev
libarrow.so.1700:_ZN5arrow2io21CompressedInputStreamD2Ev
libarrow.so.1700:_ZN5arrow2io21FixedSizeBufferWriter19set_memcopy_threadsEi
libarrow.so.1700:_ZN5arrow2io21FixedSizeBufferWriter21set_memcopy_blocksizeEl
libarrow.so.1700:_ZN5arrow2io21FixedSizeBufferWriter21set_memcopy_thresholdEl
libarrow.so.1700:_ZN5arrow2io21FixedSizeBufferWriter4SeekEl
libarrow.so.1700:_ZN5arrow2io21FixedSizeBufferWriter5CloseEv
libarrow.so.1700:_ZN5arrow2io21FixedSizeBufferWriter5WriteEPKvl
libarrow.so.1700:_ZN5arrow2io21FixedSizeBufferWriter7WriteAtElPKvl
libarrow.so.1700:_ZN5arrow2io21FixedSizeBufferWriterC1ERKSt10shared_ptrINS_6BufferEE
libarrow.so.1700:_ZN5arrow2io21FixedSizeBufferWriterC2ERKSt10shared_ptrINS_6BufferEE
libarrow.so.1700:_ZN5arrow2io21FixedSizeBufferWriterD0Ev
libarrow.so.1700:_ZN5arrow2io21FixedSizeBufferWriterD1Ev
libarrow.so.1700:_ZN5arrow2io21FixedSizeBufferWriterD2Ev
libarrow.so.1700:_ZN5arrow2io22CompressedOutputStream4MakeEPNS_4util5CodecERKSt10shared_ptrINS0_12OutputStreamEEPNS_10MemoryPoolE
libarrow.so.1700:_ZN5arrow2io22CompressedOutputStream5AbortEv
libarrow.so.1700:_ZN5arrow2io22CompressedOutputStream5CloseEv
libarrow.so.1700:_ZN5arrow2io22CompressedOutputStream5FlushEv
libarrow.so.1700:_ZN5arrow2io22CompressedOutputStream5WriteEPKvl
libarrow.so.1700:_ZN5arrow2io22CompressedOutputStreamD0Ev
libarrow.so.1700:_ZN5arrow2io22CompressedOutputStreamD1Ev
libarrow.so.1700:_ZN5arrow2io22CompressedOutputStreamD2Ev
libarrow.so.1700:_ZN5arrow2io23GetIOThreadPoolCapacityEv
libarrow.so.1700:_ZN5arrow2io23MakeInputStreamIteratorESt10shared_ptrINS0_11InputStreamEEl
libarrow.so.1700:_ZN5arrow2io23SetIOThreadPoolCapacityEi
libarrow.so.1700:_ZN5arrow2io8Writable5FlushEv
libarrow.so.1700:_ZN5arrow2io8Writable5WriteERKSt10shared_ptrINS_6BufferEE
libarrow.so.1700:_ZN5arrow2io8Writable5WriteESt17basic_string_viewIcSt11char_traitsIcEE
libarrow.so.1700:_ZN5arrow2io8internal11LibHdfsShim10DisconnectEP13hdfs_internal
libarrow.so.1700:_ZN5arrow2io8internal11LibHdfsShim10NewBuilderEv
libarrow.so.1700:_ZN5arrow2io8internal11LibHdfsShim11GetCapacityEP13hdfs_internal
libarrow.so.1700:_ZN5arrow2io8internal11LibHdfsShim11GetPathInfoEP13hdfs_internalPKc
libarrow.so.1700:_ZN5arrow2io8internal11LibHdfsShim12FreeFileInfoEP12hdfsFileInfoi
libarrow.so.1700:_ZN5arrow2io8internal11LibHdfsShim13ListDirectoryEP13hdfs_internalPKcPi
libarrow.so.1700:_ZN5arrow2io8internal11LibHdfsShim13MakeDirectoryEP13hdfs_internalPKc
libarrow.so.1700:_ZN5arrow2io8internal11LibHdfsShim14BuilderConnectEP11hdfsBuilder
libarrow.so.1700:_ZN5arrow2io8internal11LibHdfsShim14SetReplicationEP13hdfs_internalPKcs
libarrow.so.1700:_ZN5arrow2io8internal11LibHdfsShim17BuilderConfSetStrEP11hdfsBuilderPKcS6_
libarrow.so.1700:_ZN5arrow2io8internal11LibHdfsShim18BuilderSetNameNodeEP11hdfsBuilderPKc
libarrow.so.1700:_ZN5arrow2io8internal11LibHdfsShim18BuilderSetUserNameEP11hdfsBuilderPKc
libarrow.so.1700:_ZN5arrow2io8internal11LibHdfsShim18GetRequiredSymbolsEv
libarrow.so.1700:_ZN5arrow2io8internal11LibHdfsShim19GetDefaultBlockSizeEP13hdfs_internal
libarrow.so.1700:_ZN5arrow2io8internal11LibHdfsShim19GetWorkingDirectoryEP13hdfs_internalPcm
libarrow.so.1700:_ZN5arrow2io8internal11LibHdfsShim19SetWorkingDirectoryEP13hdfs_internalPKc
libarrow.so.1700:_ZN5arrow2io8internal11LibHdfsShim22BuilderSetNameNodePortEP11hdfsBuildert
libarrow.so.1700:_ZN5arrow2io8internal11LibHdfsShim26BuilderSetForceNewInstanceEP11hdfsBuilder
libarrow.so.1700:_ZN5arrow2io8internal11LibHdfsShim29BuilderSetKerbTicketCachePathEP11hdfsBuilderPKc
libarrow.so.1700:_ZN5arrow2io8internal11LibHdfsShim4CopyEP13hdfs_internalPKcS4_S6_
libarrow.so.1700:_ZN5arrow2io8internal11LibHdfsShim4MoveEP13hdfs_internalPKcS4_S6_
libarrow.so.1700:_ZN5arrow2io8internal11LibHdfsShim4ReadEP13hdfs_internalP17hdfsFile_internalPvi
libarrow.so.1700:_ZN5arrow2io8internal11LibHdfsShim4SeekEP13hdfs_internalP17hdfsFile_internall
libarrow.so.1700:_ZN5arrow2io8internal11LibHdfsShim4TellEP13hdfs_internalP17hdfsFile_internal
libarrow.so.1700:_ZN5arrow2io8internal11LibHdfsShim5ChmodEP13hdfs_internalPKcs
libarrow.so.1700:_ZN5arrow2io8internal11LibHdfsShim5ChownEP13hdfs_internalPKcS6_S6_
libarrow.so.1700:_ZN5arrow2io8internal11LibHdfsShim5FlushEP13hdfs_internalP17hdfsFile_internal
libarrow.so.1700:_ZN5arrow2io8internal11LibHdfsShim5PreadEP13hdfs_internalP17hdfsFile_internallPvi
libarrow.so.1700:_ZN5arrow2io8internal11LibHdfsShim5UtimeEP13hdfs_internalPKcll
libarrow.so.1700:_ZN5arrow2io8internal11LibHdfsShim5WriteEP13hdfs_internalP17hdfsFile_internalPKvi
libarrow.so.1700:_ZN5arrow2io8internal11LibHdfsShim6DeleteEP13hdfs_internalPKci
libarrow.so.1700:_ZN5arrow2io8internal11LibHdfsShim6ExistsEP13hdfs_internalPKc
libarrow.so.1700:_ZN5arrow2io8internal11LibHdfsShim6RenameEP13hdfs_internalPKcS6_
libarrow.so.1700:_ZN5arrow2io8internal11LibHdfsShim7GetUsedEP13hdfs_internal
libarrow.so.1700:_ZN5arrow2io8internal11LibHdfsShim8GetHostsEP13hdfs_internalPKcll
libarrow.so.1700:_ZN5arrow2io8internal11LibHdfsShim8HasPreadEv
libarrow.so.1700:_ZN5arrow2io8internal11LibHdfsShim8OpenFileEP13hdfs_internalPKciisi
libarrow.so.1700:_ZN5arrow2io8internal11LibHdfsShim9AvailableEP13hdfs_internalP17hdfsFile_internal
libarrow.so.1700:_ZN5arrow2io8internal11LibHdfsShim9CloseFileEP13hdfs_internalP17hdfsFile_internal
libarrow.so.1700:_ZN5arrow2io8internal11LibHdfsShim9FreeHostsEPPPc
libarrow.so.1700:_ZN5arrow2io8internal13ValidateRangeEll
libarrow.so.1700:_ZN5arrow2io8internal14ConnectLibHdfsEPPNS1_11LibHdfsShimE
libarrow.so.1700:_ZN5arrow2io8internal14ReadRangeCache4ReadENS0_9ReadRangeE
libarrow.so.1700:_ZN5arrow2io8internal14ReadRangeCache4WaitEv
libarrow.so.1700:_ZN5arrow2io8internal14ReadRangeCache5CacheESt6vectorINS0_9ReadRangeESaIS4_EE
libarrow.so.1700:_ZN5arrow2io8internal14ReadRangeCache7WaitForESt6vectorINS0_9ReadRangeESaIS4_EE
libarrow.so.1700:_ZN5arrow2io8internal14ReadRangeCacheC1ESt10shared_ptrINS0_16RandomAccessFileEEPS4_NS0_9IOContextENS0_12CacheOptionsE
libarrow.so.1700:_ZN5arrow2io8internal14ReadRangeCacheC2ESt10shared_ptrINS0_16RandomAccessFileEEPS4_NS0_9IOContextENS0_12CacheOptionsE
libarrow.so.1700:_ZN5arrow2io8internal14ReadRangeCacheD1Ev
libarrow.so.1700:_ZN5arrow2io8internal14ReadRangeCacheD2Ev
libarrow.so.1700:_ZN5arrow2io8internal15GetIOThreadPoolEv
libarrow.so.1700:_ZN5arrow2io8internal17ValidateReadRangeElll
libarrow.so.1700:_ZN5arrow2io8internal18CoalesceReadRangesESt6vectorINS0_9ReadRangeESaIS3_EEll
libarrow.so.1700:_ZN5arrow2io8internal18ValidateWriteRangeElll
libarrow.so.1700:_ZN5arrow2io8internal19CloseFromDestructorEPNS0_13FileInterfaceE
libarrow.so.1700:_ZN5arrow2io8internal22SharedExclusiveChecker10LockSharedEv
libarrow.so.1700:_ZN5arrow2io8internal22SharedExclusiveChecker12UnlockSharedEv
libarrow.so.1700:_ZN5arrow2io8internal22SharedExclusiveChecker13LockExclusiveEv
libarrow.so.1700:_ZN5arrow2io8internal22SharedExclusiveChecker15UnlockExclusiveEv
libarrow.so.1700:_ZN5arrow2io8internal22SharedExclusiveCheckerC1Ev
libarrow.so.1700:_ZN5arrow2io8internal22SharedExclusiveCheckerC2Ev
libarrow.so.1700:_ZN5arrow2io9IOContextC1EPNS_10MemoryPoolENS_9StopTokenE
libarrow.so.1700:_ZN5arrow2io9IOContextC2EPNS_10MemoryPoolENS_9StopTokenE
libarrow.so.1700:_ZN5arrow31RegisterCancellingSignalHandlerERKSt6vectorIiSaIiEE
libarrow.so.1700:_ZN5arrow31RequiredValueAlignmentForBufferENS_4Type4typeEi
libarrow.so.1700:_ZN5arrow33UnregisterCancellingSignalHandlerEv
libarrow.so.1700:_ZN5arrow3csv11BlockParser10ParseFinalERKSt6vectorISt17basic_string_viewIcSt11char_traitsIcEESaIS6_EEPj
libarrow.so.1700:_ZN5arrow3csv11BlockParser10ParseFinalESt17basic_string_viewIcSt11char_traitsIcEEPj
libarrow.so.1700:_ZN5arrow3csv11BlockParser5ParseERKSt6vectorISt17basic_string_viewIcSt11char_traitsIcEESaIS6_EEPj
libarrow.so.1700:_ZN5arrow3csv11BlockParser5ParseESt17basic_string_viewIcSt11char_traitsIcEEPj
libarrow.so.1700:_ZN5arrow3csv11BlockParserC1ENS0_12ParseOptionsEili
libarrow.so.1700:_ZN5arrow3csv11BlockParserC1EPNS_10MemoryPoolENS0_12ParseOptionsEili
libarrow.so.1700:_ZN5arrow3csv11BlockParserC2ENS0_12ParseOptionsEili
libarrow.so.1700:_ZN5arrow3csv11BlockParserC2EPNS_10MemoryPoolENS0_12ParseOptionsEili
libarrow.so.1700:_ZN5arrow3csv11BlockParserD1Ev
libarrow.so.1700:_ZN5arrow3csv11BlockParserD2Ev
libarrow.so.1700:_ZN5arrow3csv11MakeChunkerERKNS0_12ParseOptionsE
libarrow.so.1700:_ZN5arrow3csv11ReadOptions8DefaultsEv
libarrow.so.1700:_ZN5arrow3csv11TableReader4MakeENS_2io9IOContextESt10shared_ptrINS2_11InputStreamEERKNS0_11ReadOptionsERKNS0_12ParseOptionsERKNS0_14ConvertOptionsE
libarrow.so.1700:_ZN5arrow3csv12ParseOptions8DefaultsEv
libarrow.so.1700:_ZN5arrow3csv12WriteOptions8DefaultsEv
libarrow.so.1700:_ZN5arrow3csv13ColumnBuilder4MakeEPNS_10MemoryPoolERKSt10shared_ptrINS_8DataTypeEEiRKNS0_14ConvertOptionsERKS4_INS_8internal9TaskGroupEE
libarrow.so.1700:_ZN5arrow3csv13ColumnBuilder4MakeEPNS_10MemoryPoolEiRKNS0_14ConvertOptionsERKSt10shared_ptrINS_8internal9TaskGroupEE
libarrow.so.1700:_ZN5arrow3csv13ColumnBuilder8MakeNullEPNS_10MemoryPoolERKSt10shared_ptrINS_8DataTypeEERKS4_INS_8internal9TaskGroupEE
libarrow.so.1700:_ZN5arrow3csv13ColumnDecoder4MakeEPNS_10MemoryPoolESt10shared_ptrINS_8DataTypeEEiRKNS0_14ConvertOptionsE
libarrow.so.1700:_ZN5arrow3csv13ColumnDecoder4MakeEPNS_10MemoryPoolEiRKNS0_14ConvertOptionsE
libarrow.so.1700:_ZN5arrow3csv13ColumnDecoder8MakeNullEPNS_10MemoryPoolESt10shared_ptrINS_8DataTypeEE
libarrow.so.1700:_ZN5arrow3csv13MakeCSVWriterEPNS_2io12OutputStreamERKSt10shared_ptrINS_6SchemaEERKNS0_12WriteOptionsE
libarrow.so.1700:_ZN5arrow3csv13MakeCSVWriterESt10shared_ptrINS_2io12OutputStreamEERKS1_INS_6SchemaEERKNS0_12WriteOptionsE
libarrow.so.1700:_ZN5arrow3csv14ConvertOptions8DefaultsEv
libarrow.so.1700:_ZN5arrow3csv14CountRowsAsyncENS_2io9IOContextESt10shared_ptrINS1_11InputStreamEEPNS_8internal8ExecutorERKNS0_11ReadOptionsERKNS0_12ParseOptionsE
libarrow.so.1700:_ZN5arrow3csv15StreamingReader4MakeENS_2io9IOContextESt10shared_ptrINS2_11InputStreamEERKNS0_11ReadOptionsERKNS0_12ParseOptionsERKNS0_14ConvertOptionsE
libarrow.so.1700:_ZN5arrow3csv15StreamingReader9MakeAsyncENS_2io9IOContextESt10shared_ptrINS2_11InputStreamEEPNS_8internal8ExecutorERKNS0_11ReadOptionsERKNS0_12ParseOptionsERKNS0_14ConvertOptionsE
libarrow.so.1700:_ZN5arrow3csv17NullColumnBuilder6InsertElRKSt10shared_ptrINS0_11BlockParserEE
libarrow.so.1700:_ZN5arrow3csv17NullColumnDecoder6DecodeERKSt10shared_ptrINS0_11BlockParserEE
libarrow.so.1700:_ZN5arrow3csv18TypedColumnBuilder4InitEv
libarrow.so.1700:_ZN5arrow3csv18TypedColumnBuilder6InsertElRKSt10shared_ptrINS0_11BlockParserEE
libarrow.so.1700:_ZN5arrow3csv18TypedColumnDecoder4InitEv
libarrow.so.1700:_ZN5arrow3csv18TypedColumnDecoder6DecodeERKSt10shared_ptrINS0_11BlockParserEE
libarrow.so.1700:_ZN5arrow3csv19DictionaryConverter4MakeERKSt10shared_ptrINS_8DataTypeEERKNS0_14ConvertOptionsEPNS_10MemoryPoolE
libarrow.so.1700:_ZN5arrow3csv19DictionaryConverterC1ERKSt10shared_ptrINS_8DataTypeEERKNS0_14ConvertOptionsEPNS_10MemoryPoolE
libarrow.so.1700:_ZN5arrow3csv19DictionaryConverterC2ERKSt10shared_ptrINS_8DataTypeEERKNS0_14ConvertOptionsEPNS_10MemoryPoolE
libarrow.so.1700:_ZN5arrow3csv22InferringColumnBuilder10UpdateTypeEv
libarrow.so.1700:_ZN5arrow3csv22InferringColumnBuilder15TryConvertChunkEl
libarrow.so.1700:_ZN5arrow3csv22InferringColumnBuilder20ScheduleConvertChunkEl
libarrow.so.1700:_ZN5arrow3csv22InferringColumnBuilder4InitEv
libarrow.so.1700:_ZN5arrow3csv22InferringColumnBuilder6FinishEv
libarrow.so.1700:_ZN5arrow3csv22InferringColumnBuilder6InsertElRKSt10shared_ptrINS0_11BlockParserEE
libarrow.so.1700:_ZN5arrow3csv22InferringColumnDecoder10UpdateTypeEv
libarrow.so.1700:_ZN5arrow3csv22InferringColumnDecoder12RunInferenceERKSt10shared_ptrINS0_11BlockParserEE
libarrow.so.1700:_ZN5arrow3csv22InferringColumnDecoder4InitEv
libarrow.so.1700:_ZN5arrow3csv22InferringColumnDecoder6DecodeERKSt10shared_ptrINS0_11BlockParserEE
libarrow.so.1700:_ZN5arrow3csv8SkipRowsEPKhjiPS2_
libarrow.so.1700:_ZN5arrow3csv8WriteCSVERKNS_11RecordBatchERKNS0_12WriteOptionsEPNS_2io12OutputStreamE
libarrow.so.1700:_ZN5arrow3csv8WriteCSVERKNS_5TableERKNS0_12WriteOptionsEPNS_2io12OutputStreamE
libarrow.so.1700:_ZN5arrow3csv8WriteCSVERKSt10shared_ptrINS_17RecordBatchReaderEERKNS0_12WriteOptionsEPNS_2io12OutputStreamE
libarrow.so.1700:_ZN5arrow3csv9Converter4MakeERKSt10shared_ptrINS_8DataTypeEERKNS0_14ConvertOptionsEPNS_10MemoryPoolE
libarrow.so.1700:_ZN5arrow3csv9ConverterC1ERKSt10shared_ptrINS_8DataTypeEERKNS0_14ConvertOptionsEPNS_10MemoryPoolE
libarrow.so.1700:_ZN5arrow3csv9ConverterC2ERKSt10shared_ptrINS_8DataTypeEERKNS0_14ConvertOptionsEPNS_10MemoryPoolE
libarrow.so.1700:_ZN5arrow3ipc10ReadSchemaEPNS_2io11InputStreamEPNS0_14DictionaryMemoE
libarrow.so.1700:_ZN5arrow3ipc10ReadSchemaERKNS0_7MessageEPNS0_14DictionaryMemoE
libarrow.so.1700:_ZN5arrow3ipc10ReadTensorEPNS_2io11InputStreamE
libarrow.so.1700:_ZN5arrow3ipc10ReadTensorERKNS0_7MessageE
libarrow.so.1700:_ZN5arrow3ipc11AlignStreamEPNS_2io11InputStreamEi
libarrow.so.1700:_ZN5arrow3ipc11AlignStreamEPNS_2io12OutputStreamEi
libarrow.so.1700:_ZN5arrow3ipc11ReadMessageEPNS_2io11InputStreamEPNS_10MemoryPoolE
libarrow.so.1700:_ZN5arrow3ipc11ReadMessageESt10shared_ptrINS_6BufferEES3_
libarrow.so.1700:_ZN5arrow3ipc11ReadMessageEliPNS_2io16RandomAccessFileERKSt8functionIFNS_6StatusEPKvS3_EE
libarrow.so.1700:_ZN5arrow3ipc11WriteTensorERKNS_6TensorEPNS_2io12OutputStreamEPiPl
libarrow.so.1700:_ZN5arrow3ipc12CheckAlignedEPNS_2io13FileInterfaceEi
libarrow.so.1700:_ZN5arrow3ipc12CheckAlignedERKNS0_8internal9FileBlockE
libarrow.so.1700:_ZN5arrow3ipc12WriteMessageERKNS_6BufferERKNS0_15IpcWriteOptionsEPNS_2io12OutputStreamEPi
libarrow.so.1700:_ZN5arrow3ipc12WritePaddingEPNS_2io12OutputStreamEl
libarrow.so.1700:_ZN5arrow3ipc13DecodeMessageEPNS0_14MessageDecoderEPNS_2io11InputStreamE
libarrow.so.1700:_ZN5arrow3ipc13GetTensorSizeERKNS_6TensorEPl
libarrow.so.1700:_ZN5arrow3ipc13MessageReader4OpenEPNS_2io11InputStreamE
libarrow.so.1700:_ZN5arrow3ipc13MessageReader4OpenERKSt10shared_ptrINS_2io11InputStreamEE
libarrow.so.1700:_ZN5arrow3ipc13NewFileWriterEPNS_2io12OutputStreamERKSt10shared_ptrINS_6SchemaEERKNS0_15IpcWriteOptionsERKS4_IKNS_16KeyValueMetadataEE
libarrow.so.1700:_ZN5arrow3ipc13StreamDecoder5ResetEv
libarrow.so.1700:_ZN5arrow3ipc13StreamDecoder7ConsumeEPKhl
libarrow.so.1700:_ZN5arrow3ipc13StreamDecoder7ConsumeESt10shared_ptrINS_6BufferEE
libarrow.so.1700:_ZN5arrow3ipc13StreamDecoderC1ESt10shared_ptrINS0_8ListenerEENS0_14IpcReadOptionsE
libarrow.so.1700:_ZN5arrow3ipc13StreamDecoderC2ESt10shared_ptrINS0_8ListenerEENS0_14IpcReadOptionsE
libarrow.so.1700:_ZN5arrow3ipc13StreamDecoderD0Ev
libarrow.so.1700:_ZN5arrow3ipc13StreamDecoderD1Ev
libarrow.so.1700:_ZN5arrow3ipc13StreamDecoderD2Ev
libarrow.so.1700:_ZN5arrow3ipc14DictionaryMemo13AddDictionaryElRKSt10shared_ptrINS_9ArrayDataEE
libarrow.so.1700:_ZN5arrow3ipc14DictionaryMemo17AddDictionaryTypeElRKSt10shared_ptrINS_8DataTypeEE
libarrow.so.1700:_ZN5arrow3ipc14DictionaryMemo18AddDictionaryDeltaElRKSt10shared_ptrINS_9ArrayDataEE
libarrow.so.1700:_ZN5arrow3ipc14DictionaryMemo22AddOrReplaceDictionaryElRKSt10shared_ptrINS_9ArrayDataEE
libarrow.so.1700:_ZN5arrow3ipc14DictionaryMemo6fieldsEv
libarrow.so.1700:_ZN5arrow3ipc14DictionaryMemoC1Ev
libarrow.so.1700:_ZN5arrow3ipc14DictionaryMemoC2Ev
libarrow.so.1700:_ZN5arrow3ipc14DictionaryMemoD1Ev
libarrow.so.1700:_ZN5arrow3ipc14DictionaryMemoD2Ev
libarrow.so.1700:_ZN5arrow3ipc14GetPayloadSizeERKNS0_10IpcPayloadERKNS0_15IpcWriteOptionsE
libarrow.so.1700:_ZN5arrow3ipc14IpcReadOptions8DefaultsEv
libarrow.so.1700:_ZN5arrow3ipc14MakeFileWriterEPNS_2io12OutputStreamERKSt10shared_ptrINS_6SchemaEERKNS0_15IpcWriteOptionsERKS4_IKNS_16KeyValueMetadataEE
libarrow.so.1700:_ZN5arrow3ipc14MakeFileWriterESt10shared_ptrINS_2io12OutputStreamEERKS1_INS_6SchemaEERKNS0_15IpcWriteOptionsERKS1_IKNS_16KeyValueMetadataEE
libarrow.so.1700:_ZN5arrow3ipc14MessageDecoder7ConsumeEPKhl
libarrow.so.1700:_ZN5arrow3ipc14MessageDecoder7ConsumeESt10shared_ptrINS_6BufferEE
libarrow.so.1700:_ZN5arrow3ipc14MessageDecoderC1ESt10shared_ptrINS0_22MessageDecoderListenerEENS1_5StateElPNS_10MemoryPoolEb
libarrow.so.1700:_ZN5arrow3ipc14MessageDecoderC1ESt10shared_ptrINS0_22MessageDecoderListenerEEPNS_10MemoryPoolEb
libarrow.so.1700:_ZN5arrow3ipc14MessageDecoderC2ESt10shared_ptrINS0_22MessageDecoderListenerEENS1_5StateElPNS_10MemoryPoolEb
libarrow.so.1700:_ZN5arrow3ipc14MessageDecoderC2ESt10shared_ptrINS0_22MessageDecoderListenerEEPNS_10MemoryPoolEb
libarrow.so.1700:_ZN5arrow3ipc14MessageDecoderD0Ev
libarrow.so.1700:_ZN5arrow3ipc14MessageDecoderD1Ev
libarrow.so.1700:_ZN5arrow3ipc14MessageDecoderD2Ev
libarrow.so.1700:_ZN5arrow3ipc15IpcWriteOptions8DefaultsEv
libarrow.so.1700:_ZN5arrow3ipc15NewStreamWriterEPNS_2io12OutputStreamERKSt10shared_ptrINS_6SchemaEERKNS0_15IpcWriteOptionsE
libarrow.so.1700:_ZN5arrow3ipc15ReadRecordBatchERKNS0_7MessageERKSt10shared_ptrINS_6SchemaEEPKNS0_14DictionaryMemoERKNS0_14IpcReadOptionsE
libarrow.so.1700:_ZN5arrow3ipc15ReadRecordBatchERKNS_6BufferERKSt10shared_ptrINS_6SchemaEEPKNS0_14DictionaryMemoERKNS0_14IpcReadOptionsEPNS_2io16RandomAccessFileE
libarrow.so.1700:_ZN5arrow3ipc15ReadRecordBatchERKSt10shared_ptrINS_6SchemaEEPKNS0_14DictionaryMemoERKNS0_14IpcReadOptionsEPNS_2io11InputStreamE
libarrow.so.1700:_ZN5arrow3ipc15SerializeSchemaERKNS_6SchemaEPNS_10MemoryPoolE
libarrow.so.1700:_ZN5arrow3ipc15WriteIpcPayloadERKNS0_10IpcPayloadERKNS0_15IpcWriteOptionsEPNS_2io12OutputStreamEPi
libarrow.so.1700:_ZN5arrow3ipc16GetSchemaPayloadERKNS_6SchemaERKNS0_15IpcWriteOptionsERKNS0_21DictionaryFieldMapperEPNS0_10IpcPayloadE
libarrow.so.1700:_ZN5arrow3ipc16GetTensorMessageERKNS_6TensorEPNS_10MemoryPoolE
libarrow.so.1700:_ZN5arrow3ipc16MakeStreamWriterEPNS_2io12OutputStreamERKSt10shared_ptrINS_6SchemaEERKNS0_15IpcWriteOptionsE
libarrow.so.1700:_ZN5arrow3ipc16MakeStreamWriterESt10shared_ptrINS_2io12OutputStreamEERKS1_INS_6SchemaEERKNS0_15IpcWriteOptionsE
libarrow.so.1700:_ZN5arrow3ipc16ReadFieldsSubsetEliPNS_2io16RandomAccessFileERKSt8functionIFNS_6StatusEPKvS3_EERKSt10shared_ptrINS_6BufferEElRSE_
libarrow.so.1700:_ZN5arrow3ipc16ReadMessageAsyncElilPNS_2io16RandomAccessFileERKNS1_9IOContextE
libarrow.so.1700:_ZN5arrow3ipc16ReadSparseTensorEPNS_2io11InputStreamE
libarrow.so.1700:_ZN5arrow3ipc16ReadSparseTensorERKNS0_7MessageE
libarrow.so.1700:_ZN5arrow3ipc16ReadSparseTensorERKNS_6BufferEPNS_2io16RandomAccessFileE
libarrow.so.1700:_ZN5arrow3ipc16WriteRecordBatchERKNS_11RecordBatchElPNS_2io12OutputStreamEPiPlRKNS0_15IpcWriteOptionsE
libarrow.so.1700:_ZN5arrow3ipc17FormatMessageTypeB5cxx11ENS0_11MessageTypeE
libarrow.so.1700:_ZN5arrow3ipc17RecordBatchWriter10WriteTableERKNS_5TableE
libarrow.so.1700:_ZN5arrow3ipc17RecordBatchWriter10WriteTableERKNS_5TableEl
libarrow.so.1700:_ZN5arrow3ipc17RecordBatchWriter16WriteRecordBatchERKNS_11RecordBatchERKSt10shared_ptrIKNS_16KeyValueMetadataEE
libarrow.so.1700:_ZN5arrow3ipc17RecordBatchWriterD0Ev
libarrow.so.1700:_ZN5arrow3ipc17RecordBatchWriterD1Ev
libarrow.so.1700:_ZN5arrow3ipc17RecordBatchWriterD2Ev
libarrow.so.1700:_ZN5arrow3ipc17WriteSparseTensorERKNS_12SparseTensorEPNS_2io12OutputStreamEPiPl
libarrow.so.1700:_ZN5arrow3ipc18GetRecordBatchSizeERKNS_11RecordBatchEPl
libarrow.so.1700:_ZN5arrow3ipc18GetRecordBatchSizeERKNS_11RecordBatchERKNS0_15IpcWriteOptionsEPl
libarrow.so.1700:_ZN5arrow3ipc18MaybeAlignMetadataEPSt10shared_ptrINS_6BufferEE
libarrow.so.1700:_ZN5arrow3ipc19CollectDictionariesERKNS_11RecordBatchERKNS0_21DictionaryFieldMapperE
libarrow.so.1700:_ZN5arrow3ipc19ResolveDictionariesERKSt6vectorISt10shared_ptrINS_9ArrayDataEESaIS4_EERKNS0_14DictionaryMemoEPNS_10MemoryPoolE
libarrow.so.1700:_ZN5arrow3ipc20GetDictionaryPayloadElRKSt10shared_ptrINS_5ArrayEERKNS0_15IpcWriteOptionsEPNS0_10IpcPayloadE
libarrow.so.1700:_ZN5arrow3ipc20GetDictionaryPayloadElbRKSt10shared_ptrINS_5ArrayEERKNS0_15IpcWriteOptionsEPNS0_10IpcPayloadE
libarrow.so.1700:_ZN5arrow3ipc20SerializeRecordBatchERKNS_11RecordBatchERKNS0_15IpcWriteOptionsE
libarrow.so.1700:_ZN5arrow3ipc20SerializeRecordBatchERKNS_11RecordBatchERKNS0_15IpcWriteOptionsEPNS_2io12OutputStreamE
libarrow.so.1700:_ZN5arrow3ipc20SerializeRecordBatchERKNS_11RecordBatchESt10shared_ptrINS_13MemoryManagerEE
libarrow.so.1700:_ZN5arrow3ipc21DictionaryFieldMapper15AddSchemaFieldsERKNS_6SchemaE
libarrow.so.1700:_ZN5arrow3ipc21DictionaryFieldMapper8AddFieldElSt6vectorIiSaIiEE
libarrow.so.1700:_ZN5arrow3ipc21DictionaryFieldMapperC1ERKNS_6SchemaE
libarrow.so.1700:_ZN5arrow3ipc21DictionaryFieldMapperC1Ev
libarrow.so.1700:_ZN5arrow3ipc21DictionaryFieldMapperC2ERKNS_6SchemaE
libarrow.so.1700:_ZN5arrow3ipc21DictionaryFieldMapperC2Ev
libarrow.so.1700:_ZN5arrow3ipc21DictionaryFieldMapperD1Ev
libarrow.so.1700:_ZN5arrow3ipc21DictionaryFieldMapperD2Ev
libarrow.so.1700:_ZN5arrow3ipc21GetRecordBatchPayloadERKNS_11RecordBatchERKNS0_15IpcWriteOptionsEPNS0_10IpcPayloadE
libarrow.so.1700:_ZN5arrow3ipc21GetRecordBatchPayloadERKNS_11RecordBatchERKSt10shared_ptrIKNS_16KeyValueMetadataEERKNS0_15IpcWriteOptionsEPNS0_10IpcPayloadE
libarrow.so.1700:_ZN5arrow3ipc21RecordBatchFileReader15ToRecordBatchesEv
libarrow.so.1700:_ZN5arrow3ipc21RecordBatchFileReader4OpenEPNS_2io16RandomAccessFileERKNS0_14IpcReadOptionsE
libarrow.so.1700:_ZN5arrow3ipc21RecordBatchFileReader4OpenEPNS_2io16RandomAccessFileElRKNS0_14IpcReadOptionsE
libarrow.so.1700:_ZN5arrow3ipc21RecordBatchFileReader4OpenERKSt10shared_ptrINS_2io16RandomAccessFileEERKNS0_14IpcReadOptionsE
libarrow.so.1700:_ZN5arrow3ipc21RecordBatchFileReader4OpenERKSt10shared_ptrINS_2io16RandomAccessFileEElRKNS0_14IpcReadOptionsE
libarrow.so.1700:_ZN5arrow3ipc21RecordBatchFileReader7ToTableEv
libarrow.so.1700:_ZN5arrow3ipc21RecordBatchFileReader9OpenAsyncEPNS_2io16RandomAccessFileERKNS0_14IpcReadOptionsE
libarrow.so.1700:_ZN5arrow3ipc21RecordBatchFileReader9OpenAsyncEPNS_2io16RandomAccessFileElRKNS0_14IpcReadOptionsE
libarrow.so.1700:_ZN5arrow3ipc21RecordBatchFileReader9OpenAsyncERKSt10shared_ptrINS_2io16RandomAccessFileEERKNS0_14IpcReadOptionsE
libarrow.so.1700:_ZN5arrow3ipc21RecordBatchFileReader9OpenAsyncERKSt10shared_ptrINS_2io16RandomAccessFileEElRKNS0_14IpcReadOptionsE
libarrow.so.1700:_ZN5arrow3ipc22GetSparseTensorMessageERKNS_12SparseTensorEPNS_10MemoryPoolE
libarrow.so.1700:_ZN5arrow3ipc22GetSparseTensorPayloadERKNS_12SparseTensorEPNS_10MemoryPoolEPNS0_10IpcPayloadE
libarrow.so.1700:_ZN5arrow3ipc22MessageDecoderListener10OnMetadataEv
libarrow.so.1700:_ZN5arrow3ipc22MessageDecoderListener16OnMetadataLengthEv
libarrow.so.1700:_ZN5arrow3ipc22MessageDecoderListener5OnEOSEv
libarrow.so.1700:_ZN5arrow3ipc22MessageDecoderListener6OnBodyEv
libarrow.so.1700:_ZN5arrow3ipc22MessageDecoderListener9OnInitialEv
libarrow.so.1700:_ZN5arrow3ipc22WriteRecordBatchStreamERKSt6vectorISt10shared_ptrINS_11RecordBatchEESaIS4_EERKNS0_15IpcWriteOptionsEPNS_2io12OutputStreamE
libarrow.so.1700:_ZN5arrow3ipc23RecordBatchStreamReader4OpenEPNS_2io11InputStreamERKNS0_14IpcReadOptionsE
libarrow.so.1700:_ZN5arrow3ipc23RecordBatchStreamReader4OpenERKSt10shared_ptrINS_2io11InputStreamEERKNS0_14IpcReadOptionsE
libarrow.so.1700:_ZN5arrow3ipc23RecordBatchStreamReader4OpenESt10unique_ptrINS0_13MessageReaderESt14default_deleteIS3_EERKNS0_14IpcReadOptionsE
libarrow.so.1700:_ZN5arrow3ipc29CheckMetadataAndGetBodyLengthERKNS_6BufferEPl
libarrow.so.1700:_ZN5arrow3ipc32WholeIpcFileRecordBatchGenerator15ReadRecordBatchEPNS0_25RecordBatchFileReaderImplEPNS0_7MessageE
libarrow.so.1700:_ZN5arrow3ipc32WholeIpcFileRecordBatchGenerator16ReadDictionariesEPNS0_25RecordBatchFileReaderImplESt6vectorISt10shared_ptrINS0_7MessageEESaIS7_EE
libarrow.so.1700:_ZN5arrow3ipc32WholeIpcFileRecordBatchGenerator9ReadBlockERKNS0_8internal9FileBlockE
libarrow.so.1700:_ZN5arrow3ipc32WholeIpcFileRecordBatchGeneratorclEv
libarrow.so.1700:_ZN5arrow3ipc36SelectiveIpcFileRecordBatchGeneratorclEv
libarrow.so.1700:_ZN5arrow3ipc7Message4OpenESt10shared_ptrINS_6BufferEES4_
libarrow.so.1700:_ZN5arrow3ipc7Message8ReadFromESt10shared_ptrINS_6BufferEEPNS_2io11InputStreamE
libarrow.so.1700:_ZN5arrow3ipc7Message8ReadFromElSt10shared_ptrINS_6BufferEEPNS_2io16RandomAccessFileE
libarrow.so.1700:_ZN5arrow3ipc7MessageC1ESt10shared_ptrINS_6BufferEES4_
libarrow.so.1700:_ZN5arrow3ipc7MessageC2ESt10shared_ptrINS_6BufferEES4_
libarrow.so.1700:_ZN5arrow3ipc7MessageD1Ev
libarrow.so.1700:_ZN5arrow3ipc7MessageD2Ev
libarrow.so.1700:_ZN5arrow3ipc7feather10WriteTableERKNS_5TableEPNS_2io12OutputStreamERKNS1_15WritePropertiesE
libarrow.so.1700:_ZN5arrow3ipc7feather15WriteProperties8DefaultsEv
libarrow.so.1700:_ZN5arrow3ipc7feather6Reader4OpenERKSt10shared_ptrINS_2io16RandomAccessFileEE
libarrow.so.1700:_ZN5arrow3ipc7feather6Reader4OpenERKSt10shared_ptrINS_2io16RandomAccessFileEERKNS0_14IpcReadOptionsE
libarrow.so.1700:_ZN5arrow3ipc8Listener15OnSchemaDecodedESt10shared_ptrINS_6SchemaEE
libarrow.so.1700:_ZN5arrow3ipc8Listener15OnSchemaDecodedESt10shared_ptrINS_6SchemaEES4_
libarrow.so.1700:_ZN5arrow3ipc8Listener20OnRecordBatchDecodedESt10shared_ptrINS_11RecordBatchEE
libarrow.so.1700:_ZN5arrow3ipc8Listener32OnRecordBatchWithMetadataDecodedENS_23RecordBatchWithMetadataE
libarrow.so.1700:_ZN5arrow3ipc8Listener5OnEOSEv
libarrow.so.1700:_ZN5arrow3ipc8internal11FuzzIpcFileEPKhl
libarrow.so.1700:_ZN5arrow3ipc8internal13FuzzIpcStreamEPKhl
libarrow.so.1700:_ZN5arrow3ipc8internal15WriteFileFooterERKNS_6SchemaERKSt6vectorINS1_9FileBlockESaIS6_EESA_RKSt10shared_ptrIKNS_16KeyValueMetadataEEPNS_2io12OutputStreamE
libarrow.so.1700:_ZN5arrow3ipc8internal16IpcPayloadWriter5StartEv
libarrow.so.1700:_ZN5arrow3ipc8internal16IpcPayloadWriterD0Ev
libarrow.so.1700:_ZN5arrow3ipc8internal16IpcPayloadWriterD1Ev
libarrow.so.1700:_ZN5arrow3ipc8internal16IpcPayloadWriterD2Ev
libarrow.so.1700:_ZN5arrow3ipc8internal16ToFlatbufferUnitENS_8TimeUnit4typeE
libarrow.so.1700:_ZN5arrow3ipc8internal17GetTensorMetadataERKNS_6BufferEPSt10shared_ptrINS_8DataTypeEEPSt6vectorIlSaIlEESC_PS9_INSt7__cxx1112basic_stringIcSt11char_traitsIcESaIcEEESaISI_EE
libarrow.so.1700:_ZN5arrow3ipc8internal17HasValidityBitmapENS_4Type4typeENS0_15MetadataVersionE
libarrow.so.1700:_ZN5arrow3ipc8internal18FromFlatbufferUnitEN3org6apache5arrow7flatbuf8TimeUnitE
libarrow.so.1700:_ZN5arrow3ipc8internal18GetMetadataVersionEN3org6apache5arrow7flatbuf15MetadataVersionE
libarrow.so.1700:_ZN5arrow3ipc8internal18WriteSchemaMessageERKNS_6SchemaERKNS0_21DictionaryFieldMapperERKNS0_15IpcWriteOptionsEPSt10shared_ptrINS_6BufferEE
libarrow.so.1700:_ZN5arrow3ipc8internal18WriteTensorMessageERKNS_6TensorElRKNS0_15IpcWriteOptionsE
libarrow.so.1700:_ZN5arrow3ipc8internal19CollectDictionariesERKNS_11RecordBatchEPNS0_14DictionaryMemoE
libarrow.so.1700:_ZN5arrow3ipc8internal19FuzzIpcTensorStreamEPKhl
libarrow.so.1700:_ZN5arrow3ipc8internal19GetKeyValueMetadataEPKN22arrow_vendored_private11flatbuffers6VectorINS3_6OffsetIN3org6apache5arrow7flatbuf8KeyValueEEEjEEPSt10shared_ptrINS_16KeyValueMetadataEE
libarrow.so.1700:_ZN5arrow3ipc8internal21MakePayloadFileWriterEPNS_2io12OutputStreamERKSt10shared_ptrINS_6SchemaEERKNS0_15IpcWriteOptionsERKS5_IKNS_16KeyValueMetadataEE
libarrow.so.1700:_ZN5arrow3ipc8internal21OpenRecordBatchWriterESt10unique_ptrINS1_16IpcPayloadWriterESt14default_deleteIS3_EERKSt10shared_ptrINS_6SchemaEERKNS0_15IpcWriteOptionsE
libarrow.so.1700:_ZN5arrow3ipc8internal22WriteDictionaryMessageElbllRKSt10shared_ptrIKNS_16KeyValueMetadataEERKSt6vectorINS1_13FieldMetadataESaIS9_EERKS8_INS1_14BufferMetadataESaISE_EERKS8_IlSaIlEERKNS0_15IpcWriteOptionsEPS2_INS_6BufferEE
libarrow.so.1700:_ZN5arrow3ipc8internal23GetSparseTensorMetadataERKNS_6BufferEPSt10shared_ptrINS_8DataTypeEEPSt6vectorIlSaIlEEPS9_INSt7__cxx1112basic_stringIcSt11char_traitsIcESaIcEEESaISI_EEPlPNS_18SparseTensorFormat4typeE
libarrow.so.1700:_ZN5arrow3ipc8internal23MakePayloadStreamWriterEPNS_2io12OutputStreamERKNS0_15IpcWriteOptionsE
libarrow.so.1700:_ZN5arrow3ipc8internal23ReadSparseTensorPayloadERKNS0_10IpcPayloadE
libarrow.so.1700:_ZN5arrow3ipc8internal23WriteRecordBatchMessageEllRKSt10shared_ptrIKNS_16KeyValueMetadataEERKSt6vectorINS1_13FieldMetadataESaIS9_EERKS8_INS1_14BufferMetadataESaISE_EERKS8_IlSaIlEERKNS0_15IpcWriteOptionsEPS2_INS_6BufferEE
libarrow.so.1700:_ZN5arrow3ipc8internal24WriteSparseTensorMessageERKNS_12SparseTensorElRKSt6vectorINS1_14BufferMetadataESaIS6_EERKNS0_15IpcWriteOptionsE
libarrow.so.1700:_ZN5arrow3ipc8internal25CheckCompressionSupportedENS_11Compression4typeE
libarrow.so.1700:_ZN5arrow3ipc8internal25GetSparseCOOIndexMetadataEPKN3org6apache5arrow7flatbuf20SparseTensorIndexCOOEPSt10shared_ptrINS_8DataTypeEE
libarrow.so.1700:_ZN5arrow3ipc8internal25GetSparseCSFIndexMetadataEPKN3org6apache5arrow7flatbuf20SparseTensorIndexCSFEPSt6vectorIlSaIlEESC_PSt10shared_ptrINS_8DataTypeEESG_
libarrow.so.1700:_ZN5arrow3ipc8internal25GetSparseCSXIndexMetadataEPKN3org6apache5arrow7flatbuf20SparseMatrixIndexCSXEPSt10shared_ptrINS_8DataTypeEESC_
libarrow.so.1700:_ZN5arrow3ipc8internal26ConcreteTypeFromFlatbufferEN3org6apache5arrow7flatbuf4TypeEPKvSt6vectorISt10shared_ptrINS_5FieldEESaISC_EEPSA_INS_8DataTypeEE
libarrow.so.1700:_ZN5arrow3ipc8internal26IoRecordedRandomAccessFile4ReadEl
libarrow.so.1700:_ZN5arrow3ipc8internal26IoRecordedRandomAccessFile4ReadElPv
libarrow.so.1700:_ZN5arrow3ipc8internal26IoRecordedRandomAccessFile4SeekEl
libarrow.so.1700:_ZN5arrow3ipc8internal26IoRecordedRandomAccessFile5AbortEv
libarrow.so.1700:_ZN5arrow3ipc8internal26IoRecordedRandomAccessFile5CloseEv
libarrow.so.1700:_ZN5arrow3ipc8internal26IoRecordedRandomAccessFile6ReadAtEll
libarrow.so.1700:_ZN5arrow3ipc8internal26IoRecordedRandomAccessFile6ReadAtEllPv
libarrow.so.1700:_ZN5arrow3ipc8internal26IoRecordedRandomAccessFile7GetSizeEv
libarrow.so.1700:_ZN5arrow3ipc8internal27MetadataVersionToFlatbufferENS0_15MetadataVersionE
libarrow.so.1700:_ZN5arrow3ipc8internal31ReadSparseTensorBodyBufferCountERKNS_6BufferE
libarrow.so.1700:_ZN5arrow3ipc8internal4json13ArrayFromJSONERKSt10shared_ptrINS_8DataTypeEEPKc
libarrow.so.1700:_ZN5arrow3ipc8internal4json13ArrayFromJSONERKSt10shared_ptrINS_8DataTypeEERKNSt7__cxx1112basic_stringIcSt11char_traitsIcESaIcEEE
libarrow.so.1700:_ZN5arrow3ipc8internal4json13ArrayFromJSONERKSt10shared_ptrINS_8DataTypeEESt17basic_string_viewIcSt11char_traitsIcEE
libarrow.so.1700:_ZN5arrow3ipc8internal4json14ScalarFromJSONERKSt10shared_ptrINS_8DataTypeEESt17basic_string_viewIcSt11char_traitsIcEEPS3_INS_6ScalarEE
libarrow.so.1700:_ZN5arrow3ipc8internal4json17DictArrayFromJSONERKSt10shared_ptrINS_8DataTypeEESt17basic_string_viewIcSt11char_traitsIcEESB_PS3_INS_5ArrayEE
libarrow.so.1700:_ZN5arrow3ipc8internal4json18DictScalarFromJSONERKSt10shared_ptrINS_8DataTypeEESt17basic_string_viewIcSt11char_traitsIcEESB_PS3_INS_6ScalarEE
libarrow.so.1700:_ZN5arrow3ipc8internal4json20ChunkedArrayFromJSONERKSt10shared_ptrINS_8DataTypeEERKSt6vectorINSt7__cxx1112basic_stringIcSt11char_traitsIcESaIcEEESaISE_EEPS3_INS_12ChunkedArrayEE
libarrow.so.1700:_ZN5arrow3ipc8internal9GetSchemaEPKvPNS0_14DictionaryMemoEPSt10shared_ptrINS_6SchemaEE
libarrow.so.1700:_ZN5arrow3mapESt10shared_ptrINS_5FieldEES2_b
libarrow.so.1700:_ZN5arrow3mapESt10shared_ptrINS_8DataTypeEES0_INS_5FieldEEb
libarrow.so.1700:_ZN5arrow3mapESt10shared_ptrINS_8DataTypeEES2_b
libarrow.so.1700:_ZN5arrow4DiffERKNS_5ArrayES2_PNS_10MemoryPoolE
libarrow.so.1700:_ZN5arrow4int8Ev
libarrow.so.1700:_ZN5arrow4json11BlockParser4MakeEPNS_10MemoryPoolERKNS0_12ParseOptionsEPSt10unique_ptrIS1_St14default_deleteIS1_EE
libarrow.so.1700:_ZN5arrow4json11BlockParser4MakeERKNS0_12ParseOptionsEPSt10unique_ptrIS1_St14default_deleteIS1_EE
libarrow.so.1700:_ZN5arrow4json11MakeChunkerERKNS0_12ParseOptionsE
libarrow.so.1700:_ZN5arrow4json11ReadOptions8DefaultsEv
libarrow.so.1700:_ZN5arrow4json11TableReader4MakeEPNS_10MemoryPoolESt10shared_ptrINS_2io11InputStreamEERKNS0_11ReadOptionsERKNS0_12ParseOptionsE
libarrow.so.1700:_ZN5arrow4json12ParseOptions8DefaultsEv
libarrow.so.1700:_ZN5arrow4json13MakeConverterERKSt10shared_ptrINS_8DataTypeEEPNS_10MemoryPoolEPS1_INS0_9ConverterEE
libarrow.so.1700:_ZN5arrow4json15StreamingReader4MakeESt10shared_ptrINS_2io11InputStreamEERKNS0_11ReadOptionsERKNS0_12ParseOptionsERKNS3_9IOContextEPNS_8internal8ExecutorE
libarrow.so.1700:_ZN5arrow4json15StreamingReader9MakeAsyncESt10shared_ptrINS_2io11InputStreamEERKNS0_11ReadOptionsERKNS0_12ParseOptionsERKNS3_9IOContextEPNS_8internal8ExecutorE
libarrow.so.1700:_ZN5arrow4json17GetPromotionGraphEv
libarrow.so.1700:_ZN5arrow4json23MakeChunkedArrayBuilderERKSt10shared_ptrINS_8internal9TaskGroupEEPNS_10MemoryPoolEPKNS0_14PromotionGraphERKS1_INS_8DataTypeEEPS1_INS0_19ChunkedArrayBuilderEE
libarrow.so.1700:_ZN5arrow4json4Kind3TagENS1_4typeE
libarrow.so.1700:_ZN5arrow4json4Kind4NameB5cxx11ENS1_4typeE
libarrow.so.1700:_ZN5arrow4json4Kind7ForTypeERKNS_8DataTypeEPNS1_4typeE
libarrow.so.1700:_ZN5arrow4json4Kind7FromTagERKSt10shared_ptrIKNS_16KeyValueMetadataEE
libarrow.so.1700:_ZN5arrow4json8ParseOneENS0_12ParseOptionsESt10shared_ptrINS_6BufferEE
libarrow.so.1700:_ZN5arrow4json8internal12ObjectParser5ParseESt17basic_string_viewIcSt11char_traitsIcEE
libarrow.so.1700:_ZN5arrow4json8internal12ObjectParserC1Ev
libarrow.so.1700:_ZN5arrow4json8internal12ObjectParserC2Ev
libarrow.so.1700:_ZN5arrow4json8internal12ObjectParserD1Ev
libarrow.so.1700:_ZN5arrow4json8internal12ObjectParserD2Ev
libarrow.so.1700:_ZN5arrow4json8internal12ObjectWriter7SetBoolESt17basic_string_viewIcSt11char_traitsIcEEb
libarrow.so.1700:_ZN5arrow4json8internal12ObjectWriter9SerializeB5cxx11Ev
libarrow.so.1700:_ZN5arrow4json8internal12ObjectWriter9SetStringESt17basic_string_viewIcSt11char_traitsIcEES6_
libarrow.so.1700:_ZN5arrow4json8internal12ObjectWriterC1Ev
libarrow.so.1700:_ZN5arrow4json8internal12ObjectWriterC2Ev
libarrow.so.1700:_ZN5arrow4json8internal12ObjectWriterD1Ev
libarrow.so.1700:_ZN5arrow4json8internal12ObjectWriterD2Ev
libarrow.so.1700:_ZN5arrow4listESt10shared_ptrINS_5FieldEE
libarrow.so.1700:_ZN5arrow4listESt10shared_ptrINS_8DataTypeEE
libarrow.so.1700:_ZN5arrow4nullEv
libarrow.so.1700:_ZN5arrow4utf8Ev
libarrow.so.1700:_ZN5arrow4util10LogMessage14CheckIsEnabledEv
libarrow.so.1700:_ZN5arrow4util10LogMessage6StreamEv
libarrow.so.1700:_ZN5arrow4util10LogMessageC1ENS0_13ArrowLogLevelESt10shared_ptrINS0_6LoggerEENS0_14SourceLocationE
libarrow.so.1700:_ZN5arrow4util10LogMessageC1ENS0_13ArrowLogLevelESt17basic_string_viewIcSt11char_traitsIcEENS0_14SourceLocationE
libarrow.so.1700:_ZN5arrow4util10LogMessageC2ENS0_13ArrowLogLevelESt10shared_ptrINS0_6LoggerEENS0_14SourceLocationE
libarrow.so.1700:_ZN5arrow4util10LogMessageC2ENS0_13ArrowLogLevelESt17basic_string_viewIcSt11char_traitsIcEENS0_14SourceLocationE
libarrow.so.1700:_ZN5arrow4util11SkipUTF8BOMEPKhl
libarrow.so.1700:_ZN5arrow4util11UriUnescapeB5cxx11ESt17basic_string_viewIcSt11char_traitsIcEE
libarrow.so.1700:_ZN5arrow4util12ValidateUTF8EPKhl
libarrow.so.1700:_ZN5arrow4util12ValidateUTF8ESt17basic_string_viewIcSt11char_traitsIcEE
libarrow.so.1700:_ZN5arrow4util13UriEncodeHostB5cxx11ESt17basic_string_viewIcSt11char_traitsIcEE
libarrow.so.1700:_ZN5arrow4util13base64_decodeB5cxx11ESt17basic_string_viewIcSt11char_traitsIcEE
libarrow.so.1700:_ZN5arrow4util13base64_encodeB5cxx11ESt17basic_string_viewIcSt11char_traitsIcEE
libarrow.so.1700:_ZN5arrow4util14AsyncTaskGroup4MakeEPNS0_18AsyncTaskSchedulerENS_8internal6FnOnceIFNS_6StatusEvEEE
libarrow.so.1700:_ZN5arrow4util14CheckAlignmentERKNS_11RecordBatchElPSt6vectorIbSaIbEE
libarrow.so.1700:_ZN5arrow4util14CheckAlignmentERKNS_12ChunkedArrayElPSt6vectorIbSaIbEEi
libarrow.so.1700:_ZN5arrow4util14CheckAlignmentERKNS_5ArrayEl
libarrow.so.1700:_ZN5arrow4util14CheckAlignmentERKNS_5TableElPSt6vectorIbSaIbEE
libarrow.so.1700:_ZN5arrow4util14CheckAlignmentERKNS_6BufferEl
libarrow.so.1700:_ZN5arrow4util14CheckAlignmentERKNS_9ArrayDataEl
libarrow.so.1700:_ZN5arrow4util14InitializeUTF8Ev
libarrow.so.1700:_ZN5arrow4util14LoggerRegistry14RegisterLoggerESt17basic_string_viewIcSt11char_traitsIcEESt10shared_ptrINS0_6LoggerEE
libarrow.so.1700:_ZN5arrow4util14LoggerRegistry16GetDefaultLoggerEv
libarrow.so.1700:_ZN5arrow4util14LoggerRegistry16SetDefaultLoggerESt10shared_ptrINS0_6LoggerEE
libarrow.so.1700:_ZN5arrow4util14LoggerRegistry16UnregisterLoggerESt17basic_string_viewIcSt11char_traitsIcEE
libarrow.so.1700:_ZN5arrow4util14LoggerRegistry9GetLoggerESt17basic_string_viewIcSt11char_traitsIcEE
libarrow.so.1700:_ZN5arrow4util15EnsureAlignmentESt10shared_ptrINS_11RecordBatchEElPNS_10MemoryPoolE
libarrow.so.1700:_ZN5arrow4util15EnsureAlignmentESt10shared_ptrINS_12ChunkedArrayEElPNS_10MemoryPoolE
libarrow.so.1700:_ZN5arrow4util15EnsureAlignmentESt10shared_ptrINS_5ArrayEElPNS_10MemoryPoolE
libarrow.so.1700:_ZN5arrow4util15EnsureAlignmentESt10shared_ptrINS_5TableEElPNS_10MemoryPoolE
libarrow.so.1700:_ZN5arrow4util15EnsureAlignmentESt10shared_ptrINS_6BufferEElPNS_10MemoryPoolE
libarrow.so.1700:_ZN5arrow4util15EnsureAlignmentESt10shared_ptrINS_9ArrayDataEElPNS_10MemoryPoolE
libarrow.so.1700:_ZN5arrow4util15TempVectorStack20PaddedAllocationSizeEl
libarrow.so.1700:_ZN5arrow4util15TempVectorStack4InitEPNS_10MemoryPoolEl
libarrow.so.1700:_ZN5arrow4util15TempVectorStack5allocEjPPhPi
libarrow.so.1700:_ZN5arrow4util15TempVectorStack7releaseEij
libarrow.so.1700:_ZN5arrow4util15TempVectorStackD1Ev
libarrow.so.1700:_ZN5arrow4util15TempVectorStackD2Ev
libarrow.so.1700:_ZN5arrow4util15TotalBufferSizeERKNS_11RecordBatchE
libarrow.so.1700:_ZN5arrow4util15TotalBufferSizeERKNS_12ChunkedArrayE
libarrow.so.1700:_ZN5arrow4util15TotalBufferSizeERKNS_5ArrayE
libarrow.so.1700:_ZN5arrow4util15TotalBufferSizeERKNS_5TableE
libarrow.so.1700:_ZN5arrow4util15TotalBufferSizeERKNS_9ArrayDataE
libarrow.so.1700:_ZN5arrow4util16FixedWidthInBitsERKNS_8DataTypeE
libarrow.so.1700:_ZN5arrow4util16IsFixedWidthLikeERKNS_9ArraySpanEbb
libarrow.so.1700:_ZN5arrow4util16IsValidUriSchemeESt17basic_string_viewIcSt11char_traitsIcEE
libarrow.so.1700:_ZN5arrow4util16ReferencedRangesERKNS_9ArrayDataE
libarrow.so.1700:_ZN5arrow4util16UTF8ToWideStringB5cxx11ESt17basic_string_viewIcSt11char_traitsIcEE
libarrow.so.1700:_ZN5arrow4util16WideStringToUTF8ERKNSt7__cxx1112basic_stringIwSt11char_traitsIwESaIwEEE
libarrow.so.1700:_ZN5arrow4util17CountingSemaphore14WaitForWaitersEj
libarrow.so.1700:_ZN5arrow4util17CountingSemaphore5CloseEv
libarrow.so.1700:_ZN5arrow4util17CountingSemaphore7AcquireEj
libarrow.so.1700:_ZN5arrow4util17CountingSemaphore7ReleaseEj
libarrow.so.1700:_ZN5arrow4util17CountingSemaphoreC1Ejd
libarrow.so.1700:_ZN5arrow4util17CountingSemaphoreC2Ejd
libarrow.so.1700:_ZN5arrow4util17CountingSemaphoreD1Ev
libarrow.so.1700:_ZN5arrow4util17CountingSemaphoreD2Ev
libarrow.so.1700:_ZN5arrow4util17FixedWidthInBytesERKNS_8DataTypeE
libarrow.so.1700:_ZN5arrow4util17MakeOStreamLoggerENS0_13ArrowLogLevelE
libarrow.so.1700:_ZN5arrow4util17MakeOStreamLoggerENS0_13ArrowLogLevelERSo
libarrow.so.1700:_ZN5arrow4util17UTF16StringToUTF8B5cxx11ESt17basic_string_viewIDsSt11char_traitsIDsEE
libarrow.so.1700:_ZN5arrow4util17UTF8StringToUTF16B5cxx11ESt17basic_string_viewIcSt11char_traitsIcEE
libarrow.so.1700:_ZN5arrow4util18AsyncTaskScheduler4MakeENS_8internal6FnOnceIFNS_6StatusEPS1_EEENS3_IFvRKS4_EEENS_9StopTokenE
libarrow.so.1700:_ZN5arrow4util19GlobalForkSafeMutexEv
libarrow.so.1700:_ZN5arrow4util19UriFromAbsolutePathB5cxx11ESt17basic_string_viewIcSt11char_traitsIcEE
libarrow.so.1700:_ZN5arrow4util20ReferencedBufferSizeERKNS_11RecordBatchE
libarrow.so.1700:_ZN5arrow4util20ReferencedBufferSizeERKNS_12ChunkedArrayE
libarrow.so.1700:_ZN5arrow4util20ReferencedBufferSizeERKNS_5ArrayE
libarrow.so.1700:_ZN5arrow4util20ReferencedBufferSizeERKNS_5TableE
libarrow.so.1700:_ZN5arrow4util20ReferencedBufferSizeERKNS_9ArrayDataE
libarrow.so.1700:_ZN5arrow4util21ConvertTimestampValueERKSt10shared_ptrINS_8DataTypeEES5_l
libarrow.so.1700:_ZN5arrow4util22GetTimestampConversionENS_8TimeUnit4typeES2_
libarrow.so.1700:_ZN5arrow4util27MakeThrottledAsyncTaskGroupEPNS0_18AsyncTaskSchedulerEiSt10unique_ptrINS0_27ThrottledAsyncTaskScheduler5QueueESt14default_deleteIS5_EENS_8internal6FnOnceIFNS_6StatusEvEEE
libarrow.so.1700:_ZN5arrow4util27ThrottledAsyncTaskScheduler22MakeWithCustomThrottleEPNS0_18AsyncTaskSchedulerESt10unique_ptrINS1_8ThrottleESt14default_deleteIS5_EES4_INS1_5QueueES6_IS9_EE
libarrow.so.1700:_ZN5arrow4util27ThrottledAsyncTaskScheduler4MakeEPNS0_18AsyncTaskSchedulerEiSt10unique_ptrINS1_5QueueESt14default_deleteIS5_EE
libarrow.so.1700:_ZN5arrow4util30MutableFixedWidthValuesPointerEPNS_9ArrayDataE
libarrow.so.1700:_ZN5arrow4util34OffsetPointerOfFixedBitWidthValuesERKNS_9ArraySpanE
libarrow.so.1700:_ZN5arrow4util35OffsetPointerOfFixedByteWidthValuesERKNS_9ArraySpanE
libarrow.so.1700:_ZN5arrow4util3Uri10FromStringERKNSt7__cxx1112basic_stringIcSt11char_traitsIcESaIcEEE
libarrow.so.1700:_ZN5arrow4util3Uri5ParseERKNSt7__cxx1112basic_stringIcSt11char_traitsIcESaIcEEE
libarrow.so.1700:_ZN5arrow4util3UriC1EOS1_
libarrow.so.1700:_ZN5arrow4util3UriC1Ev
libarrow.so.1700:_ZN5arrow4util3UriC2EOS1_
libarrow.so.1700:_ZN5arrow4util3UriC2Ev
libarrow.so.1700:_ZN5arrow4util3UriD1Ev
libarrow.so.1700:_ZN5arrow4util3UriD2Ev
libarrow.so.1700:_ZN5arrow4util3UriaSEOS1_
libarrow.so.1700:_ZN5arrow4util5Codec11IsAvailableENS_11Compression4typeE
libarrow.so.1700:_ZN5arrow4util5Codec16GetCodecAsStringB5cxx11ENS_11Compression4typeE
libarrow.so.1700:_ZN5arrow4util5Codec18GetCompressionTypeERKNSt7__cxx1112basic_stringIcSt11char_traitsIcESaIcEEE
libarrow.so.1700:_ZN5arrow4util5Codec23DefaultCompressionLevelENS_11Compression4typeE
libarrow.so.1700:_ZN5arrow4util5Codec23MaximumCompressionLevelENS_11Compression4typeE
libarrow.so.1700:_ZN5arrow4util5Codec23MinimumCompressionLevelENS_11Compression4typeE
libarrow.so.1700:_ZN5arrow4util5Codec24SupportsCompressionLevelENS_11Compression4typeE
libarrow.so.1700:_ZN5arrow4util5Codec26UseDefaultCompressionLevelEv
libarrow.so.1700:_ZN5arrow4util5Codec4InitEv
libarrow.so.1700:_ZN5arrow4util5Codec6CreateENS_11Compression4typeERKNS0_12CodecOptionsE
libarrow.so.1700:_ZN5arrow4util5Codec6CreateENS_11Compression4typeEi
libarrow.so.1700:_ZN5arrow4util5Mutex4LockEv
libarrow.so.1700:_ZN5arrow4util5Mutex5GuardC1EPS1_
libarrow.so.1700:_ZN5arrow4util5Mutex5GuardC2EPS1_
libarrow.so.1700:_ZN5arrow4util5Mutex7TryLockEv
libarrow.so.1700:_ZN5arrow4util5MutexC1Ev
libarrow.so.1700:_ZN5arrow4util5MutexC2Ev
libarrow.so.1700:_ZN5arrow4util6detail19StringStreamWrapper3strB5cxx11Ev
libarrow.so.1700:_ZN5arrow4util6detail19StringStreamWrapperC1Ev
libarrow.so.1700:_ZN5arrow4util6detail19StringStreamWrapperC2Ev
libarrow.so.1700:_ZN5arrow4util6detail19StringStreamWrapperD1Ev
libarrow.so.1700:_ZN5arrow4util6detail19StringStreamWrapperD2Ev
libarrow.so.1700:_ZN5arrow4util7Float1610FromDoubleEd
libarrow.so.1700:_ZN5arrow4util7Float169FromFloatEf
libarrow.so.1700:_ZN5arrow4util7tracing4Span5resetEv
libarrow.so.1700:_ZN5arrow4util7tracing4SpanC1Ev
libarrow.so.1700:_ZN5arrow4util7tracing4SpanC2Ev
libarrow.so.1700:_ZN5arrow4util8ArrowLog13StartArrowLogERKNSt7__cxx1112basic_stringIcSt11char_traitsIcESaIcEEENS0_13ArrowLogLevelES9_
libarrow.so.1700:_ZN5arrow4util8ArrowLog14IsLevelEnabledENS0_13ArrowLogLevelE
libarrow.so.1700:_ZN5arrow4util8ArrowLog16ShutDownArrowLogEv
libarrow.so.1700:_ZN5arrow4util8ArrowLog21UninstallSignalActionEv
libarrow.so.1700:_ZN5arrow4util8ArrowLog27InstallFailureSignalHandlerEv
libarrow.so.1700:_ZN5arrow4util8ArrowLog6StreamEv
libarrow.so.1700:_ZN5arrow4util8ArrowLogC1EPKciNS0_13ArrowLogLevelE
libarrow.so.1700:_ZN5arrow4util8ArrowLogC2EPKciNS0_13ArrowLogLevelE
libarrow.so.1700:_ZN5arrow4util8ArrowLogD0Ev
libarrow.so.1700:_ZN5arrow4util8ArrowLogD1Ev
libarrow.so.1700:_ZN5arrow4util8ArrowLogD2Ev
libarrow.so.1700:_ZN5arrow4util8bit_util13bits_to_bytesEliPKhPhi
libarrow.so.1700:_ZN5arrow4util8bit_util13bytes_to_bitsEliPKhPhi
libarrow.so.1700:_ZN5arrow4util8bit_util15bits_to_indexesEiliPKhPiPti
libarrow.so.1700:_ZN5arrow4util8bit_util18are_all_bytes_zeroElPKhj
libarrow.so.1700:_ZN5arrow4util8bit_util18bits_split_indexesEliPKhPiPtS5_i
libarrow.so.1700:_ZN5arrow4util8bit_util19bits_filter_indexesEiliPKhPKtPiPti
libarrow.so.1700:_ZN5arrow4util8bit_util4avx218bits_to_bytes_avx2EiPKhPh
libarrow.so.1700:_ZN5arrow4util8bit_util4avx218bytes_to_bits_avx2EiPKhPh
libarrow.so.1700:_ZN5arrow4util8bit_util4avx220bits_to_indexes_avx2EiiPKhPiPtt
libarrow.so.1700:_ZN5arrow4util8bit_util4avx223are_all_bytes_zero_avx2EPKhj
libarrow.so.1700:_ZN5arrow4util8bit_util4avx224bits_filter_indexes_avx2EiiPKhPKtPiPt
libarrow.so.1700:_ZN5arrow4util8internal12MakeBZ2CodecEi
libarrow.so.1700:_ZN5arrow4util8internal13MakeGZipCodecEiNS0_10GZipFormatESt8optionalIiE
libarrow.so.1700:_ZN5arrow4util8internal13MakeZSTDCodecEi
libarrow.so.1700:_ZN5arrow4util8internal15MakeBrotliCodecEiSt8optionalIiE
libarrow.so.1700:_ZN5arrow4util8internal15MakeLz4RawCodecEi
libarrow.so.1700:_ZN5arrow4util8internal15MakeSnappyCodecEv
libarrow.so.1700:_ZN5arrow4util8internal17MakeLz4FrameCodecEi
libarrow.so.1700:_ZN5arrow4util8internal20CheckUTF8InitializedEv
libarrow.so.1700:_ZN5arrow4util8internal21MakeLz4HadoopRawCodecEv
libarrow.so.1700:_ZN5arrow4util8internal30PreallocateFixedWidthArrayDataEPNS_7compute13KernelContextElRKNS_9ArraySpanEbPNS_9ArrayDataE
libarrow.so.1700:_ZN5arrow4util9UriEscapeB5cxx11ESt17basic_string_viewIcSt11char_traitsIcEE
libarrow.so.1700:_ZN5arrow4utillsERSoNS0_7Float16E
libarrow.so.1700:_ZN5arrow5DatumC1ENSt7__cxx1112basic_stringIcSt11char_traitsIcESaIcEEE
libarrow.so.1700:_ZN5arrow5DatumC1EPKc
libarrow.so.1700:_ZN5arrow5DatumC1ERKNS_11RecordBatchE
libarrow.so.1700:_ZN5arrow5DatumC1ERKNS_12ChunkedArrayE
libarrow.so.1700:_ZN5arrow5DatumC1ERKNS_5ArrayE
libarrow.so.1700:_ZN5arrow5DatumC1ERKNS_5TableE
libarrow.so.1700:_ZN5arrow5DatumC1ERKSt10shared_ptrINS_5ArrayEE
libarrow.so.1700:_ZN5arrow5DatumC1ESt10shared_ptrINS_11RecordBatchEE
libarrow.so.1700:_ZN5arrow5DatumC1ESt10shared_ptrINS_12ChunkedArrayEE
libarrow.so.1700:_ZN5arrow5DatumC1ESt10shared_ptrINS_5TableEE
libarrow.so.1700:_ZN5arrow5DatumC1Ea
libarrow.so.1700:_ZN5arrow5DatumC1Eb
libarrow.so.1700:_ZN5arrow5DatumC1Ed
libarrow.so.1700:_ZN5arrow5DatumC1Ef
libarrow.so.1700:_ZN5arrow5DatumC1Eh
libarrow.so.1700:_ZN5arrow5DatumC1Ei
libarrow.so.1700:_ZN5arrow5DatumC1Ej
libarrow.so.1700:_ZN5arrow5DatumC1El
libarrow.so.1700:_ZN5arrow5DatumC1Em
libarrow.so.1700:_ZN5arrow5DatumC1Es
libarrow.so.1700:_ZN5arrow5DatumC1Et
libarrow.so.1700:_ZN5arrow5DatumC2ENSt7__cxx1112basic_stringIcSt11char_traitsIcESaIcEEE
libarrow.so.1700:_ZN5arrow5DatumC2EPKc
libarrow.so.1700:_ZN5arrow5DatumC2ERKNS_11RecordBatchE
libarrow.so.1700:_ZN5arrow5DatumC2ERKNS_12ChunkedArrayE
libarrow.so.1700:_ZN5arrow5DatumC2ERKNS_5ArrayE
libarrow.so.1700:_ZN5arrow5DatumC2ERKNS_5TableE
libarrow.so.1700:_ZN5arrow5DatumC2ERKSt10shared_ptrINS_5ArrayEE
libarrow.so.1700:_ZN5arrow5DatumC2ESt10shared_ptrINS_11RecordBatchEE
libarrow.so.1700:_ZN5arrow5DatumC2ESt10shared_ptrINS_12ChunkedArrayEE
libarrow.so.1700:_ZN5arrow5DatumC2ESt10shared_ptrINS_5TableEE
libarrow.so.1700:_ZN5arrow5DatumC2Ea
libarrow.so.1700:_ZN5arrow5DatumC2Eb
libarrow.so.1700:_ZN5arrow5DatumC2Ed
libarrow.so.1700:_ZN5arrow5DatumC2Ef
libarrow.so.1700:_ZN5arrow5DatumC2Eh
libarrow.so.1700:_ZN5arrow5DatumC2Ei
libarrow.so.1700:_ZN5arrow5DatumC2Ej
libarrow.so.1700:_ZN5arrow5DatumC2El
libarrow.so.1700:_ZN5arrow5DatumC2Em
libarrow.so.1700:_ZN5arrow5DatumC2Es
libarrow.so.1700:_ZN5arrow5DatumC2Et
libarrow.so.1700:_ZN5arrow5Field12MergeOptions10PermissiveEv
libarrow.so.1700:_ZN5arrow5FieldD0Ev
libarrow.so.1700:_ZN5arrow5FieldD1Ev
libarrow.so.1700:_ZN5arrow5FieldD2Ev
libarrow.so.1700:_ZN5arrow5Table17FromRecordBatchesERKSt6vectorISt10shared_ptrINS_11RecordBatchEESaIS4_EE
libarrow.so.1700:_ZN5arrow5Table17FromRecordBatchesESt10shared_ptrINS_6SchemaEERKSt6vectorIS1_INS_11RecordBatchEESaIS6_EE
libarrow.so.1700:_ZN5arrow5Table21FromRecordBatchReaderEPNS_17RecordBatchReaderE
libarrow.so.1700:_ZN5arrow5Table22FromChunkedStructArrayERKSt10shared_ptrINS_12ChunkedArrayEE
libarrow.so.1700:_ZN5arrow5Table4MakeESt10shared_ptrINS_6SchemaEERKSt6vectorIS1_INS_5ArrayEESaIS6_EEl
libarrow.so.1700:_ZN5arrow5Table4MakeESt10shared_ptrINS_6SchemaEESt6vectorIS1_INS_12ChunkedArrayEESaIS6_EEl
libarrow.so.1700:_ZN5arrow5Table9MakeEmptyESt10shared_ptrINS_6SchemaEEPNS_10MemoryPoolE
libarrow.so.1700:_ZN5arrow5TableC1Ev
libarrow.so.1700:_ZN5arrow5TableC2Ev
libarrow.so.1700:_ZN5arrow5fieldENSt7__cxx1112basic_stringIcSt11char_traitsIcESaIcEEESt10shared_ptrINS_8DataTypeEES6_IKNS_16KeyValueMetadataEE
libarrow.so.1700:_ZN5arrow5fieldENSt7__cxx1112basic_stringIcSt11char_traitsIcESaIcEEESt10shared_ptrINS_8DataTypeEEbS6_IKNS_16KeyValueMetadataEE
libarrow.so.1700:_ZN5arrow5int16Ev
libarrow.so.1700:_ZN5arrow5int32Ev
libarrow.so.1700:_ZN5arrow5int64Ev
libarrow.so.1700:_ZN5arrow5uint8Ev
libarrow.so.1700:_ZN5arrow6Buffer10FromStringENSt7__cxx1112basic_stringIcSt11char_traitsIcESaIcEEE
libarrow.so.1700:_ZN5arrow6Buffer10ViewOrCopyESt10shared_ptrIS0_ERKS1_INS_13MemoryManagerEE
libarrow.so.1700:_ZN5arrow6Buffer11ToHexStringB5cxx11Ev
libarrow.so.1700:_ZN5arrow6Buffer12CopyNonOwnedERKS0_RKSt10shared_ptrINS_13MemoryManagerEE
libarrow.so.1700:_ZN5arrow6Buffer4CopyESt10shared_ptrIS0_ERKS1_INS_13MemoryManagerEE
libarrow.so.1700:_ZN5arrow6Buffer4ViewESt10shared_ptrIS0_ERKS1_INS_13MemoryManagerEE
libarrow.so.1700:_ZN5arrow6Buffer9GetReaderESt10shared_ptrIS0_E
libarrow.so.1700:_ZN5arrow6Buffer9GetWriterESt10shared_ptrIS0_E
libarrow.so.1700:_ZN5arrow6BufferC1Ev
libarrow.so.1700:_ZN5arrow6BufferC2Ev
libarrow.so.1700:_ZN5arrow6DeviceD0Ev
libarrow.so.1700:_ZN5arrow6DeviceD1Ev
libarrow.so.1700:_ZN5arrow6DeviceD2Ev
libarrow.so.1700:_ZN5arrow6EscapeB5cxx11EPKcm
libarrow.so.1700:_ZN5arrow6EscapeB5cxx11ESt17basic_string_viewIcSt11char_traitsIcEE
libarrow.so.1700:_ZN5arrow6Scalar5ParseERKSt10shared_ptrINS_8DataTypeEESt17basic_string_viewIcSt11char_traitsIcEE
libarrow.so.1700:_ZN5arrow6SchemaC1ERKS0_
libarrow.so.1700:_ZN5arrow6SchemaC1ESt6vectorISt10shared_ptrINS_5FieldEESaIS4_EENS_10EndiannessES2_IKNS_16KeyValueMetadataEE
libarrow.so.1700:_ZN5arrow6SchemaC1ESt6vectorISt10shared_ptrINS_5FieldEESaIS4_EES2_IKNS_16KeyValueMetadataEE
libarrow.so.1700:_ZN5arrow6SchemaC2ERKS0_
libarrow.so.1700:_ZN5arrow6SchemaC2ESt6vectorISt10shared_ptrINS_5FieldEESaIS4_EENS_10EndiannessES2_IKNS_16KeyValueMetadataEE
libarrow.so.1700:_ZN5arrow6SchemaC2ESt6vectorISt10shared_ptrINS_5FieldEESaIS4_EES2_IKNS_16KeyValueMetadataEE
libarrow.so.1700:_ZN5arrow6SchemaD0Ev
libarrow.so.1700:_ZN5arrow6SchemaD1Ev
libarrow.so.1700:_ZN5arrow6SchemaD2Ev
libarrow.so.1700:_ZN5arrow6Status12CodeAsStringB5cxx11ENS_10StatusCodeE
libarrow.so.1700:_ZN5arrow6Status14AddContextLineEPKciS2_
libarrow.so.1700:_ZN5arrow6Status8CopyFromERKS0_
libarrow.so.1700:_ZN5arrow6StatusC1ENS_10StatusCodeENSt7__cxx1112basic_stringIcSt11char_traitsIcESaIcEEESt10shared_ptrINS_12StatusDetailEE
libarrow.so.1700:_ZN5arrow6StatusC1ENS_10StatusCodeERKNSt7__cxx1112basic_stringIcSt11char_traitsIcESaIcEEE
libarrow.so.1700:_ZN5arrow6StatusC2ENS_10StatusCodeENSt7__cxx1112basic_stringIcSt11char_traitsIcESaIcEEESt10shared_ptrINS_12StatusDetailEE
libarrow.so.1700:_ZN5arrow6StatusC2ENS_10StatusCodeERKNSt7__cxx1112basic_stringIcSt11char_traitsIcESaIcEEE
libarrow.so.1700:_ZN5arrow6TensorC1ERKSt10shared_ptrINS_8DataTypeEERKS1_INS_6BufferEERKSt6vectorIlSaIlEE
libarrow.so.1700:_ZN5arrow6TensorC1ERKSt10shared_ptrINS_8DataTypeEERKS1_INS_6BufferEERKSt6vectorIlSaIlEESE_
libarrow.so.1700:_ZN5arrow6TensorC1ERKSt10shared_ptrINS_8DataTypeEERKS1_INS_6BufferEERKSt6vectorIlSaIlEESE_RKSA_INSt7__cxx1112basic_stringIcSt11char_traitsIcESaIcEEESaISK_EE
libarrow.so.1700:_ZN5arrow6TensorC2ERKSt10shared_ptrINS_8DataTypeEERKS1_INS_6BufferEERKSt6vectorIlSaIlEE
libarrow.so.1700:_ZN5arrow6TensorC2ERKSt10shared_ptrINS_8DataTypeEERKS1_INS_6BufferEERKSt6vectorIlSaIlEESE_
libarrow.so.1700:_ZN5arrow6TensorC2ERKSt10shared_ptrINS_8DataTypeEERKS1_INS_6BufferEERKSt6vectorIlSaIlEESE_RKSA_INSt7__cxx1112basic_stringIcSt11char_traitsIcESaIcEEESaISK_EE
libarrow.so.1700:_ZN5arrow6binaryEv
libarrow.so.1700:_ZN5arrow6date32Ev
libarrow.so.1700:_ZN5arrow6date64Ev
libarrow.so.1700:_ZN5arrow6detail15FingerprintableD0Ev
libarrow.so.1700:_ZN5arrow6detail15FingerprintableD1Ev
libarrow.so.1700:_ZN5arrow6detail15FingerprintableD2Ev
libarrow.so.1700:_ZN5arrow6dlpack11ExportArrayERKSt10shared_ptrINS_5ArrayEE
libarrow.so.1700:_ZN5arrow6dlpack12ExportDeviceERKSt10shared_ptrINS_5ArrayEE
libarrow.so.1700:_ZN5arrow6schemaESt16initializer_listISt4pairINSt7__cxx1112basic_stringIcSt11char_traitsIcESaIcEEESt10shared_ptrINS_8DataTypeEEEENS_10EndiannessES8_IKNS_16KeyValueMetadataEE
libarrow.so.1700:_ZN5arrow6schemaESt16initializer_listISt4pairINSt7__cxx1112basic_stringIcSt11char_traitsIcESaIcEEESt10shared_ptrINS_8DataTypeEEEES8_IKNS_16KeyValueMetadataEE
libarrow.so.1700:_ZN5arrow6schemaESt6vectorISt10shared_ptrINS_5FieldEESaIS3_EENS_10EndiannessES1_IKNS_16KeyValueMetadataEE
libarrow.so.1700:_ZN5arrow6schemaESt6vectorISt10shared_ptrINS_5FieldEESaIS3_EES1_IKNS_16KeyValueMetadataEE
libarrow.so.1700:_ZN5arrow6time32ENS_8TimeUnit4typeE
libarrow.so.1700:_ZN5arrow6time64ENS_8TimeUnit4typeE
libarrow.so.1700:_ZN5arrow6uint16Ev
libarrow.so.1700:_ZN5arrow6uint32Ev
libarrow.so.1700:_ZN5arrow6uint64Ev
libarrow.so.1700:_ZN5arrow7Chunker11ProcessSkipESt10shared_ptrINS_6BufferEES3_bPlPS3_
libarrow.so.1700:_ZN5arrow7Chunker12ProcessFinalESt10shared_ptrINS_6BufferEES3_PS3_S4_
libarrow.so.1700:_ZN5arrow7Chunker18ProcessWithPartialESt10shared_ptrINS_6BufferEES3_PS3_S4_
libarrow.so.1700:_ZN5arrow7Chunker7ProcessESt10shared_ptrINS_6BufferEEPS3_S4_
libarrow.so.1700:_ZN5arrow7ChunkerC1ESt10shared_ptrINS_14BoundaryFinderEE
libarrow.so.1700:_ZN5arrow7ChunkerC2ESt10shared_ptrINS_14BoundaryFinderEE
libarrow.so.1700:_ZN5arrow7ChunkerD1Ev
libarrow.so.1700:_ZN5arrow7ChunkerD2Ev
libarrow.so.1700:_ZN5arrow7MapType4MakeESt10shared_ptrINS_5FieldEEb
libarrow.so.1700:_ZN5arrow7MapTypeC1ESt10shared_ptrINS_5FieldEES3_b
libarrow.so.1700:_ZN5arrow7MapTypeC1ESt10shared_ptrINS_5FieldEEb
libarrow.so.1700:_ZN5arrow7MapTypeC1ESt10shared_ptrINS_8DataTypeEES1_INS_5FieldEEb
libarrow.so.1700:_ZN5arrow7MapTypeC1ESt10shared_ptrINS_8DataTypeEES3_b
libarrow.so.1700:_ZN5arrow7MapTypeC2ESt10shared_ptrINS_5FieldEES3_b
libarrow.so.1700:_ZN5arrow7MapTypeC2ESt10shared_ptrINS_5FieldEEb
libarrow.so.1700:_ZN5arrow7MapTypeC2ESt10shared_ptrINS_8DataTypeEES1_INS_5FieldEEb
libarrow.so.1700:_ZN5arrow7MapTypeC2ESt10shared_ptrINS_8DataTypeEES3_b
libarrow.so.1700:_ZN5arrow7PrintToERKNS_5ArrayEPSo
libarrow.so.1700:_ZN5arrow7PrintToERKNS_5DatumEPSo
libarrow.so.1700:_ZN5arrow7PrintToERKNS_5FieldEPSo
libarrow.so.1700:_ZN5arrow7PrintToERKNS_6ScalarEPSo
libarrow.so.1700:_ZN5arrow7PrintToERKNS_6SchemaEPSo
libarrow.so.1700:_ZN5arrow7PrintToERKNS_8FieldRefEPSo
libarrow.so.1700:_ZN5arrow7booleanEv
libarrow.so.1700:_ZN5arrow7compute10Expression4Call11ComputeHashEv
libarrow.so.1700:_ZN5arrow7compute10ExpressionC1ENS1_4CallE
libarrow.so.1700:_ZN5arrow7compute10ExpressionC1ENS1_9ParameterE
libarrow.so.1700:_ZN5arrow7compute10ExpressionC1ENS_5DatumE
libarrow.so.1700:_ZN5arrow7compute10ExpressionC2ENS1_4CallE
libarrow.so.1700:_ZN5arrow7compute10ExpressionC2ENS1_9ParameterE
libarrow.so.1700:_ZN5arrow7compute10ExpressionC2ENS_5DatumE
libarrow.so.1700:_ZN5arrow7compute10IsLeapYearERKNS_5DatumEPNS0_11ExecContextE
libarrow.so.1700:_ZN5arrow7compute10KeyCompare14AndByteVectorsEPNS0_12LightContextEjPhPKh
libarrow.so.1700:_ZN5arrow7compute10KeyCompare19AndByteVectors_avx2EjPhPKh
libarrow.so.1700:_ZN5arrow7compute10KeyCompare20CompareColumnsToRowsEjPKtPKjPNS0_12LightContextEPjPtRKSt6vectorINS0_14KeyColumnArrayESaISB_EERKNS0_12RowTableImplEbPh
libarrow.so.1700:_ZN5arrow7compute10KeyCompare26NullUpdateColumnToRow_avx2EbjjPKtPKjPNS0_12LightContextERKNS0_14KeyColumnArrayERKNS0_12RowTableImplEbPh
libarrow.so.1700:_ZN5arrow7compute10KeyCompare29CompareBinaryColumnToRow_avx2EbjjPKtPKjPNS0_12LightContextERKNS0_14KeyColumnArrayERKNS0_12RowTableImplEPh
libarrow.so.1700:_ZN5arrow7compute10KeyCompare32CompareVarBinaryColumnToRow_avx2EbbjjPKtPKjPNS0_12LightContextERKNS0_14KeyColumnArrayERKNS0_12RowTableImplEPh
libarrow.so.1700:_ZN5arrow7compute10NanosecondERKNS_5DatumEPNS0_11ExecContextE
libarrow.so.1700:_ZN5arrow7compute10PadOptionsC1ElNSt7__cxx1112basic_stringIcSt11char_traitsIcESaIcEEEb
libarrow.so.1700:_ZN5arrow7compute10PadOptionsC1Ev
libarrow.so.1700:_ZN5arrow7compute10PadOptionsC2ElNSt7__cxx1112basic_stringIcSt11char_traitsIcESaIcEEEb
libarrow.so.1700:_ZN5arrow7compute10PadOptionsC2Ev
libarrow.so.1700:_ZN5arrow7compute10ShiftRightERKNS_5DatumES3_NS0_17ArithmeticOptionsEPNS0_11ExecContextE
libarrow.so.1700:_ZN5arrow7compute10SwissTable11grow_doubleEv
libarrow.so.1700:_ZN5arrow7compute10SwissTable12map_new_keysEjPtPKjPjPNS_4util15TempVectorStackERKSt8functionIFviPKtS4_S5_S2_PvEERKS9_IFNS_6StatusEiSB_SC_EESC_
libarrow.so.1700:_ZN5arrow7compute10SwissTable19map_new_keys_helperEPKjPjPtPbS4_S4_PNS_4util15TempVectorStackERKSt8functionIFviPKtS3_S4_S5_PvEERKSA_IFNS_6StatusEiSC_SD_EESD_
libarrow.so.1700:_ZN5arrow7compute10SwissTable4initElPNS_10MemoryPoolEib
libarrow.so.1700:_ZN5arrow7compute10SwissTable7cleanupEv
libarrow.so.1700:_ZN5arrow7compute10less_equalENS0_10ExpressionES1_
libarrow.so.1700:_ZN5arrow7compute11CastOptionsC1Eb
libarrow.so.1700:_ZN5arrow7compute11CastOptionsC2Eb
libarrow.so.1700:_ZN5arrow7compute11DaysBetweenERKNS_5DatumES3_PNS0_11ExecContextE
libarrow.so.1700:_ZN5arrow7compute11DeserializeESt10shared_ptrINS_6BufferEE
libarrow.so.1700:_ZN5arrow7compute11ExecContextC1EPNS_10MemoryPoolEPNS_8internal8ExecutorEPNS0_16FunctionRegistryE
libarrow.so.1700:_ZN5arrow7compute11ExecContextC2EPNS_10MemoryPoolEPNS_8internal8ExecutorEPNS0_16FunctionRegistryE
libarrow.so.1700:_ZN5arrow7compute11FunctionDoc5EmptyEv
libarrow.so.1700:_ZN5arrow7compute11ISOCalendarERKNS_5DatumEPNS0_11ExecContextE
libarrow.so.1700:_ZN5arrow7compute11JoinOptionsC1ENS1_20NullHandlingBehaviorENSt7__cxx1112basic_stringIcSt11char_traitsIcESaIcEEE
libarrow.so.1700:_ZN5arrow7compute11JoinOptionsC2ENS1_20NullHandlingBehaviorENSt7__cxx1112basic_stringIcSt11char_traitsIcESaIcEEE
libarrow.so.1700:_ZN5arrow7compute11MicrosecondERKNS_5DatumEPNS0_11ExecContextE
libarrow.so.1700:_ZN5arrow7compute11MillisecondERKNS_5DatumEPNS0_11ExecContextE
libarrow.so.1700:_ZN5arrow7compute11ModeOptionsC1Elbj
libarrow.so.1700:_ZN5arrow7compute11ModeOptionsC2Elbj
libarrow.so.1700:_ZN5arrow7compute11NullOptionsC1Eb
libarrow.so.1700:_ZN5arrow7compute11NullOptionsC2Eb
libarrow.so.1700:_ZN5arrow7compute11RankOptionsC1ESt6vectorINS0_7SortKeyESaIS3_EENS0_13NullPlacementENS1_10TiebreakerE
libarrow.so.1700:_ZN5arrow7compute11RankOptionsC2ESt6vectorINS0_7SortKeyESaIS3_EENS0_13NullPlacementENS1_10TiebreakerE
libarrow.so.1700:_ZN5arrow7compute11RoundBinaryERKNS_5DatumES3_NS0_18RoundBinaryOptionsEPNS0_11ExecContextE
libarrow.so.1700:_ZN5arrow7compute11SortIndicesERKNS_12ChunkedArrayENS0_9SortOrderEPNS0_11ExecContextE
libarrow.so.1700:_ZN5arrow7compute11SortIndicesERKNS_12ChunkedArrayERKNS0_16ArraySortOptionsEPNS0_11ExecContextE
libarrow.so.1700:_ZN5arrow7compute11SortIndicesERKNS_5ArrayENS0_9SortOrderEPNS0_11ExecContextE
libarrow.so.1700:_ZN5arrow7compute11SortIndicesERKNS_5ArrayERKNS0_16ArraySortOptionsEPNS0_11ExecContextE
libarrow.so.1700:_ZN5arrow7compute11SortIndicesERKNS_5DatumERKNS0_11SortOptionsEPNS0_11ExecContextE
libarrow.so.1700:_ZN5arrow7compute11SortOptionsC1ERKNS0_8OrderingE
libarrow.so.1700:_ZN5arrow7compute11SortOptionsC1ESt6vectorINS0_7SortKeyESaIS3_EENS0_13NullPlacementE
libarrow.so.1700:_ZN5arrow7compute11SortOptionsC2ERKNS0_8OrderingE
libarrow.so.1700:_ZN5arrow7compute11SortOptionsC2ESt6vectorINS0_7SortKeyESaIS3_EENS0_13NullPlacementE
libarrow.so.1700:_ZN5arrow7compute11TakeOptionsC1Eb
libarrow.so.1700:_ZN5arrow7compute11TakeOptionsC2Eb
libarrow.so.1700:_ZN5arrow7compute11TrimOptionsC1ENSt7__cxx1112basic_stringIcSt11char_traitsIcESaIcEEE
libarrow.so.1700:_ZN5arrow7compute11TrimOptionsC1Ev
libarrow.so.1700:_ZN5arrow7compute11TrimOptionsC2ENSt7__cxx1112basic_stringIcSt11char_traitsIcESaIcEEE
libarrow.so.1700:_ZN5arrow7compute11TrimOptionsC2Ev
libarrow.so.1700:_ZN5arrow7compute11ValueCountsERKNS_5DatumEPNS0_11ExecContextE
libarrow.so.1700:_ZN5arrow7compute11WeekOptionsC1Ebbb
libarrow.so.1700:_ZN5arrow7compute11WeekOptionsC2Ebbb
libarrow.so.1700:_ZN5arrow7compute12CallFunctionERKNSt7__cxx1112basic_stringIcSt11char_traitsIcESaIcEEERKNS0_9ExecBatchEPKNS0_15FunctionOptionsEPNS0_11ExecContextE
libarrow.so.1700:_ZN5arrow7compute12CallFunctionERKNSt7__cxx1112basic_stringIcSt11char_traitsIcESaIcEEERKNS0_9ExecBatchEPNS0_11ExecContextE
libarrow.so.1700:_ZN5arrow7compute12CallFunctionERKNSt7__cxx1112basic_stringIcSt11char_traitsIcESaIcEEERKSt6vectorINS_5DatumESaISA_EEPKNS0_15FunctionOptionsEPNS0_11ExecContextE
libarrow.so.1700:_ZN5arrow7compute12CallFunctionERKNSt7__cxx1112basic_stringIcSt11char_traitsIcESaIcEEERKSt6vectorINS_5DatumESaISA_EEPNS0_11ExecContextE
libarrow.so.1700:_ZN5arrow7compute12CanonicalizeENS0_10ExpressionEPNS0_11ExecContextE
libarrow.so.1700:_ZN5arrow7compute12CeilTemporalERKNS_5DatumENS0_20RoundTemporalOptionsEPNS0_11ExecContextE
libarrow.so.1700:_ZN5arrow7compute12CountOptionsC1ENS1_9CountModeE
libarrow.so.1700:_ZN5arrow7compute12CountOptionsC2ENS1_9CountModeE
libarrow.so.1700:_ZN5arrow7compute12EncoderNulls14EncodeSelectedEPNS0_12RowTableImplERKSt6vectorINS0_14KeyColumnArrayESaIS5_EEjPKt
libarrow.so.1700:_ZN5arrow7compute12EncoderNulls6DecodeEjjRKNS0_12RowTableImplEPSt6vectorINS0_14KeyColumnArrayESaIS6_EE
libarrow.so.1700:_ZN5arrow7compute12HoursBetweenERKNS_5DatumES3_PNS0_11ExecContextE
libarrow.so.1700:_ZN5arrow7compute12IndexOptionsC1ESt10shared_ptrINS_6ScalarEE
libarrow.so.1700:_ZN5arrow7compute12IndexOptionsC1Ev
libarrow.so.1700:_ZN5arrow7compute12IndexOptionsC2ESt10shared_ptrINS_6ScalarEE
libarrow.so.1700:_ZN5arrow7compute12IndexOptionsC2Ev
libarrow.so.1700:_ZN5arrow7compute12KleeneAndNotERKNS_5DatumES3_PNS0_11ExecContextE
libarrow.so.1700:_ZN5arrow7compute12NthToIndicesERKNS_5ArrayERKNS0_19PartitionNthOptionsEPNS0_11ExecContextE
libarrow.so.1700:_ZN5arrow7compute12NthToIndicesERKNS_5ArrayElPNS0_11ExecContextE
libarrow.so.1700:_ZN5arrow7compute12PairwiseDiffERKNS_5ArrayERKNS0_15PairwiseOptionsEbPNS0_11ExecContextE
libarrow.so.1700:_ZN5arrow7compute12RoundOptionsC1ElNS0_9RoundModeE
libarrow.so.1700:_ZN5arrow7compute12RoundOptionsC2ElNS0_9RoundModeE
libarrow.so.1700:_ZN5arrow7compute12RowSegmenter4MakeERKSt6vectorINS_10TypeHolderESaIS3_EEbPNS0_11ExecContextE
libarrow.so.1700:_ZN5arrow7compute12RowTableImpl11AppendEmptyEjj
libarrow.so.1700:_ZN5arrow7compute12RowTableImpl19AppendSelectionFromERKS1_jPKt
libarrow.so.1700:_ZN5arrow7compute12RowTableImpl20UpdateBufferPointersEv
libarrow.so.1700:_ZN5arrow7compute12RowTableImpl24ResizeFixedLengthBuffersEl
libarrow.so.1700:_ZN5arrow7compute12RowTableImpl33ResizeOptionalVaryingLengthBufferEl
libarrow.so.1700:_ZN5arrow7compute12RowTableImpl4InitEPNS_10MemoryPoolERKNS0_16RowTableMetadataE
libarrow.so.1700:_ZN5arrow7compute12RowTableImpl5CleanEv
libarrow.so.1700:_ZN5arrow7compute12RowTableImplC1Ev
libarrow.so.1700:_ZN5arrow7compute12RowTableImplC2Ev
libarrow.so.1700:_ZN5arrow7compute12RunEndDecodeERKNS_5DatumEPNS0_11ExecContextE
libarrow.so.1700:_ZN5arrow7compute12RunEndEncodeERKNS_5DatumERKNS0_19RunEndEncodeOptionsEPNS0_11ExecContextE
libarrow.so.1700:_ZN5arrow7compute12SliceOptionsC1Elll
libarrow.so.1700:_ZN5arrow7compute12SliceOptionsC1Ev
libarrow.so.1700:_ZN5arrow7compute12SliceOptionsC2Elll
libarrow.so.1700:_ZN5arrow7compute12SliceOptionsC2Ev
libarrow.so.1700:_ZN5arrow7compute12SplitOptionsC1Elb
libarrow.so.1700:_ZN5arrow7compute12SplitOptionsC2Elb
libarrow.so.1700:_ZN5arrow7compute12WeeksBetweenERKNS_5DatumES3_PNS0_11ExecContextE
libarrow.so.1700:_ZN5arrow7compute12YearMonthDayERKNS_5DatumEPNS0_11ExecContextE
libarrow.so.1700:_ZN5arrow7compute12YearsBetweenERKNS_5DatumES3_PNS0_11ExecContextE
libarrow.so.1700:_ZN5arrow7compute13AbsoluteValueERKNS_5DatumENS0_17ArithmeticOptionsEPNS0_11ExecContextE
libarrow.so.1700:_ZN5arrow7compute13CumulativeMaxERKNS_5DatumERKNS0_17CumulativeOptionsEPNS0_11ExecContextE
libarrow.so.1700:_ZN5arrow7compute13CumulativeMinERKNS_5DatumERKNS0_17CumulativeOptionsEPNS0_11ExecContextE
libarrow.so.1700:_ZN5arrow7compute13CumulativeSumERKNS_5DatumERKNS0_17CumulativeOptionsEbPNS0_11ExecContextE
libarrow.so.1700:_ZN5arrow7compute13EncoderBinary14EncodeSelectedEjPNS0_12RowTableImplERKNS0_14KeyColumnArrayEjPKt
libarrow.so.1700:_ZN5arrow7compute13EncoderBinary17DecodeHelper_avx2EbjjjRKNS0_12RowTableImplEPNS0_14KeyColumnArrayE
libarrow.so.1700:_ZN5arrow7compute13EncoderBinary6DecodeEjjjRKNS0_12RowTableImplEPNS0_14KeyColumnArrayEPNS0_12LightContextES6_
libarrow.so.1700:_ZN5arrow7compute13EncoderBinary9IsIntegerERKNS0_17KeyColumnMetadataE
libarrow.so.1700:_ZN5arrow7compute13FilterOptionsC1ENS1_21NullSelectionBehaviorE
libarrow.so.1700:_ZN5arrow7compute13FilterOptionsC2ENS1_21NullSelectionBehaviorE
libarrow.so.1700:_ZN5arrow7compute13FloorTemporalERKNS_5DatumENS0_20RoundTemporalOptionsEPNS0_11ExecContextE
libarrow.so.1700:_ZN5arrow7compute13FoldConstantsENS0_10ExpressionE
libarrow.so.1700:_ZN5arrow7compute13KernelContext14AllocateBitmapEl
libarrow.so.1700:_ZN5arrow7compute13KernelContext8AllocateEl
libarrow.so.1700:_ZN5arrow7compute13MakeExecBatchERKNS_6SchemaERKNS_5DatumENS0_10ExpressionE
libarrow.so.1700:_ZN5arrow7compute13MonthsBetweenERKNS_5DatumES3_PNS0_11ExecContextE
libarrow.so.1700:_ZN5arrow7compute13RandomOptionsC1ENS1_11InitializerEm
libarrow.so.1700:_ZN5arrow7compute13RandomOptionsC1Ev
libarrow.so.1700:_ZN5arrow7compute13RandomOptionsC2ENS1_11InitializerEm
libarrow.so.1700:_ZN5arrow7compute13RandomOptionsC2Ev
libarrow.so.1700:_ZN5arrow7compute13RoundTemporalERKNS_5DatumENS0_20RoundTemporalOptionsEPNS0_11ExecContextE
libarrow.so.1700:_ZN5arrow7compute13greater_equalENS0_10ExpressionES1_
libarrow.so.1700:_ZN5arrow7compute14AssumeTimezoneERKNS_5DatumENS0_21AssumeTimezoneOptionsEPNS0_11ExecContextE
libarrow.so.1700:_ZN5arrow7compute14CumulativeMeanERKNS_5DatumERKNS0_17CumulativeOptionsEPNS0_11ExecContextE
libarrow.so.1700:_ZN5arrow7compute14CumulativeProdERKNS_5DatumERKNS0_17CumulativeOptionsEbPNS0_11ExecContextE
libarrow.so.1700:_ZN5arrow7compute14DayTimeBetweenERKNS_5DatumES3_PNS0_11ExecContextE
libarrow.so.1700:_ZN5arrow7compute14EncoderInteger10PostDecodeERKNS0_14KeyColumnArrayEPS2_PNS0_12LightContextE
libarrow.so.1700:_ZN5arrow7compute14EncoderInteger12ArrayReplaceERKNS0_14KeyColumnArrayES4_
libarrow.so.1700:_ZN5arrow7compute14EncoderInteger13UsesTransformERKNS0_14KeyColumnArrayE
libarrow.so.1700:_ZN5arrow7compute14EncoderInteger6DecodeEjjjRKNS0_12RowTableImplEPNS0_14KeyColumnArrayEPNS0_12LightContextES6_
libarrow.so.1700:_ZN5arrow7compute14EncoderInteger9IsBooleanERKNS0_17KeyColumnMetadataE
libarrow.so.1700:_ZN5arrow7compute14EncoderOffsets14EncodeSelectedEPNS0_12RowTableImplERKSt6vectorINS0_14KeyColumnArrayESaIS5_EEjPKt
libarrow.so.1700:_ZN5arrow7compute14EncoderOffsets21GetRowOffsetsSelectedEPNS0_12RowTableImplERKSt6vectorINS0_14KeyColumnArrayESaIS5_EEjPKt
libarrow.so.1700:_ZN5arrow7compute14EncoderOffsets6DecodeEjjRKNS0_12RowTableImplEPSt6vectorINS0_14KeyColumnArrayESaIS6_EERKS5_IjSaIjEEPNS0_12LightContextE
libarrow.so.1700:_ZN5arrow7compute14KeyColumnArrayC1ERKNS0_17KeyColumnMetadataElPKhS6_S6_ii
libarrow.so.1700:_ZN5arrow7compute14KeyColumnArrayC1ERKNS0_17KeyColumnMetadataElPhS5_S5_ii
libarrow.so.1700:_ZN5arrow7compute14KeyColumnArrayC2ERKNS0_17KeyColumnMetadataElPKhS6_S6_ii
libarrow.so.1700:_ZN5arrow7compute14KeyColumnArrayC2ERKNS0_17KeyColumnMetadataElPhS5_S5_ii
libarrow.so.1700:_ZN5arrow7compute14LocalTimestampERKNS_5DatumEPNS0_11ExecContextE
libarrow.so.1700:_ZN5arrow7compute14MaxElementWiseERKSt6vectorINS_5DatumESaIS2_EENS0_27ElementWiseAggregateOptionsEPNS0_11ExecContextE
libarrow.so.1700:_ZN5arrow7compute14MinElementWiseERKSt6vectorINS_5DatumESaIS2_EENS0_27ElementWiseAggregateOptionsEPNS0_11ExecContextE
libarrow.so.1700:_ZN5arrow7compute14MinutesBetweenERKNS_5DatumES3_PNS0_11ExecContextE
libarrow.so.1700:_ZN5arrow7compute14ScalarFunction9AddKernelENS0_12ScalarKernelE
libarrow.so.1700:_ZN5arrow7compute14ScalarFunction9AddKernelESt6vectorINS0_9InputTypeESaIS3_EENS0_10OutputTypeEPFNS_6StatusEPNS0_13KernelContextERKNS0_8ExecSpanEPNS0_10ExecResultEESt8functionIFNS_6ResultISt10unique_ptrINS0_11KernelStateESt14default_deleteISK_EEEES9_RKNS0_14KernelInitArgsEEE
libarrow.so.1700:_ZN5arrow7compute14SecondsBetweenERKNS_5DatumES3_PNS0_11ExecContextE
libarrow.so.1700:_ZN5arrow7compute14SelectKOptionsC1ElSt6vectorINS0_7SortKeyESaIS3_EE
libarrow.so.1700:_ZN5arrow7compute14SelectKOptionsC2ElSt6vectorINS0_7SortKeyESaIS3_EE
libarrow.so.1700:_ZN5arrow7compute14TDigestOptionsC1ESt6vectorIdSaIdEEjjbj
libarrow.so.1700:_ZN5arrow7compute14TDigestOptionsC1Edjjbj
libarrow.so.1700:_ZN5arrow7compute14TDigestOptionsC2ESt6vectorIdSaIdEEjjbj
libarrow.so.1700:_ZN5arrow7compute14TDigestOptionsC2Edjjbj
libarrow.so.1700:_ZN5arrow7compute14VectorFunction9AddKernelENS0_12VectorKernelE
libarrow.so.1700:_ZN5arrow7compute14VectorFunction9AddKernelESt6vectorINS0_9InputTypeESaIS3_EENS0_10OutputTypeEPFNS_6StatusEPNS0_13KernelContextERKNS0_8ExecSpanEPNS0_10ExecResultEESt8functionIFNS_6ResultISt10unique_ptrINS0_11KernelStateESt14default_deleteISK_EEEES9_RKNS0_14KernelInitArgsEEE
libarrow.so.1700:_ZN5arrow7compute15FillNullForwardERKNS_5DatumEPNS0_11ExecContextE
libarrow.so.1700:_ZN5arrow7compute15FunctionOptions11DeserializeERKNSt7__cxx1112basic_stringIcSt11char_traitsIcESaIcEEERKNS_6BufferE
libarrow.so.1700:_ZN5arrow7compute15KernelSignature4MakeESt6vectorINS0_9InputTypeESaIS3_EENS0_10OutputTypeEb
libarrow.so.1700:_ZN5arrow7compute15KernelSignatureC1ESt6vectorINS0_9InputTypeESaIS3_EENS0_10OutputTypeEb
libarrow.so.1700:_ZN5arrow7compute15KernelSignatureC2ESt6vectorINS0_9InputTypeESaIS3_EENS0_10OutputTypeEb
libarrow.so.1700:_ZN5arrow7compute15PairwiseOptionsC1El
libarrow.so.1700:_ZN5arrow7compute15PairwiseOptionsC2El
libarrow.so.1700:_ZN5arrow7compute15QuantileOptionsC1ESt6vectorIdSaIdEENS1_13InterpolationEbj
libarrow.so.1700:_ZN5arrow7compute15QuantileOptionsC1EdNS1_13InterpolationEbj
libarrow.so.1700:_ZN5arrow7compute15QuantileOptionsC2ESt6vectorIdSaIdEENS1_13InterpolationEbj
libarrow.so.1700:_ZN5arrow7compute15QuantileOptionsC2EdNS1_13InterpolationEbj
libarrow.so.1700:_ZN5arrow7compute15QuartersBetweenERKNS_5DatumES3_PNS0_11ExecContextE
libarrow.so.1700:_ZN5arrow7compute15RemoveNamedRefsENS0_10ExpressionE
libarrow.so.1700:_ZN5arrow7compute15ReplaceWithMaskERKNS_5DatumES3_S3_PNS0_11ExecContextE
libarrow.so.1700:_ZN5arrow7compute15RoundToMultipleERKNS_5DatumENS0_22RoundToMultipleOptionsEPNS0_11ExecContextE
libarrow.so.1700:_ZN5arrow7compute15RowTableEncoder14EncodeSelectedEPNS0_12RowTableImplEjPKt
libarrow.so.1700:_ZN5arrow7compute15RowTableEncoder21PrepareEncodeSelectedEllRKSt6vectorINS0_14KeyColumnArrayESaIS3_EE
libarrow.so.1700:_ZN5arrow7compute15RowTableEncoder22PrepareKeyColumnArraysEllRKSt6vectorINS0_14KeyColumnArrayESaIS3_EE
libarrow.so.1700:_ZN5arrow7compute15RowTableEncoder24DecodeFixedLengthBuffersElllRKNS0_12RowTableImplEPSt6vectorINS0_14KeyColumnArrayESaIS6_EElPNS_4util15TempVectorStackE
libarrow.so.1700:_ZN5arrow7compute15RowTableEncoder26DecodeVaryingLengthBuffersElllRKNS0_12RowTableImplEPSt6vectorINS0_14KeyColumnArrayESaIS6_EElPNS_4util15TempVectorStackE
libarrow.so.1700:_ZN5arrow7compute15RowTableEncoder4InitERKSt6vectorINS0_17KeyColumnMetadataESaIS3_EEii
libarrow.so.1700:_ZN5arrow7compute15SelectKUnstableERKNS_5DatumERKNS0_14SelectKOptionsEPNS0_11ExecContextE
libarrow.so.1700:_ZN5arrow7compute15SelectionVector8FromMaskERKNS_12BooleanArrayE
libarrow.so.1700:_ZN5arrow7compute15SelectionVectorC1ERKNS_5ArrayE
libarrow.so.1700:_ZN5arrow7compute15SelectionVectorC1ESt10shared_ptrINS_9ArrayDataEE
libarrow.so.1700:_ZN5arrow7compute15SelectionVectorC2ERKNS_5ArrayE
libarrow.so.1700:_ZN5arrow7compute15SelectionVectorC2ESt10shared_ptrINS_9ArrayDataEE
libarrow.so.1700:_ZN5arrow7compute15StrftimeOptionsC1ENSt7__cxx1112basic_stringIcSt11char_traitsIcESaIcEEES7_
libarrow.so.1700:_ZN5arrow7compute15StrftimeOptionsC1Ev
libarrow.so.1700:_ZN5arrow7compute15StrftimeOptionsC2ENSt7__cxx1112basic_stringIcSt11char_traitsIcESaIcEEES7_
libarrow.so.1700:_ZN5arrow7compute15StrftimeOptionsC2Ev
libarrow.so.1700:_ZN5arrow7compute15StrptimeOptionsC1ENSt7__cxx1112basic_stringIcSt11char_traitsIcESaIcEEENS_8TimeUnit4typeEb
libarrow.so.1700:_ZN5arrow7compute15StrptimeOptionsC1Ev
libarrow.so.1700:_ZN5arrow7compute15StrptimeOptionsC2ENSt7__cxx1112basic_stringIcSt11char_traitsIcESaIcEEENS_8TimeUnit4typeEb
libarrow.so.1700:_ZN5arrow7compute15StrptimeOptionsC2Ev
libarrow.so.1700:_ZN5arrow7compute15VarianceOptionsC1Eibj
libarrow.so.1700:_ZN5arrow7compute15VarianceOptionsC2Eibj
libarrow.so.1700:_ZN5arrow7compute16ArraySortOptionsC1ENS0_9SortOrderENS0_13NullPlacementE
libarrow.so.1700:_ZN5arrow7compute16ArraySortOptionsC2ENS0_9SortOrderENS0_13NullPlacementE
libarrow.so.1700:_ZN5arrow7compute16DayOfWeekOptionsC1Ebj
libarrow.so.1700:_ZN5arrow7compute16DayOfWeekOptionsC2Ebj
libarrow.so.1700:_ZN5arrow7compute16DictionaryEncodeERKNS_5DatumERKNS0_23DictionaryEncodeOptionsEPNS0_11ExecContextE
libarrow.so.1700:_ZN5arrow7compute16EncoderVarBinary14EncodeSelectedEjPNS0_12RowTableImplERKNS0_14KeyColumnArrayEjPKt
libarrow.so.1700:_ZN5arrow7compute16EncoderVarBinary17DecodeHelper_avx2EjjjRKNS0_12RowTableImplEPNS0_14KeyColumnArrayE
libarrow.so.1700:_ZN5arrow7compute16EncoderVarBinary6DecodeEjjjRKNS0_12RowTableImplEPNS0_14KeyColumnArrayEPNS0_12LightContextE
libarrow.so.1700:_ZN5arrow7compute16ExecBatchBuilder11AppendNullsEPNS_10MemoryPoolERKSt6vectorISt10shared_ptrINS_8DataTypeEESaIS7_EEi
libarrow.so.1700:_ZN5arrow7compute16ExecBatchBuilder11AppendNullsERKSt10shared_ptrINS_8DataTypeEERNS0_18ResizableArrayDataEiPNS_10MemoryPoolE
libarrow.so.1700:_ZN5arrow7compute16ExecBatchBuilder11CollectBitsEPKhlPhliPKt
libarrow.so.1700:_ZN5arrow7compute16ExecBatchBuilder13NumRowsToSkipERKSt10shared_ptrINS_9ArrayDataEEiPKti
libarrow.so.1700:_ZN5arrow7compute16ExecBatchBuilder14AppendSelectedEPNS_10MemoryPoolERKNS0_9ExecBatchEiPKtiPKi
libarrow.so.1700:_ZN5arrow7compute16ExecBatchBuilder14AppendSelectedERKSt10shared_ptrINS_9ArrayDataEEPNS0_18ResizableArrayDataEiPKtPNS_10MemoryPoolE
libarrow.so.1700:_ZN5arrow7compute16ExecBatchBuilder5FlushEv
libarrow.so.1700:_ZN5arrow7compute16FillNullBackwardERKNS_5DatumEPNS0_11ExecContextE
libarrow.so.1700:_ZN5arrow7compute16FunctionRegistry11AddFunctionESt10shared_ptrINS0_8FunctionEEb
libarrow.so.1700:_ZN5arrow7compute16FunctionRegistry11CanAddAliasERKNSt7__cxx1112basic_stringIcSt11char_traitsIcESaIcEEES9_
libarrow.so.1700:_ZN5arrow7compute16FunctionRegistry14CanAddFunctionESt10shared_ptrINS0_8FunctionEEb
libarrow.so.1700:_ZN5arrow7compute16FunctionRegistry22AddFunctionOptionsTypeEPKNS0_19FunctionOptionsTypeEb
libarrow.so.1700:_ZN5arrow7compute16FunctionRegistry25CanAddFunctionOptionsTypeEPKNS0_19FunctionOptionsTypeEb
libarrow.so.1700:_ZN5arrow7compute16FunctionRegistry4MakeEPS1_
libarrow.so.1700:_ZN5arrow7compute16FunctionRegistry4MakeEv
libarrow.so.1700:_ZN5arrow7compute16FunctionRegistry8AddAliasERKNSt7__cxx1112basic_stringIcSt11char_traitsIcESaIcEEES9_
libarrow.so.1700:_ZN5arrow7compute16FunctionRegistryC1EPNS1_20FunctionRegistryImplE
libarrow.so.1700:_ZN5arrow7compute16FunctionRegistryC1Ev
libarrow.so.1700:_ZN5arrow7compute16FunctionRegistryC2EPNS1_20FunctionRegistryImplE
libarrow.so.1700:_ZN5arrow7compute16FunctionRegistryC2Ev
libarrow.so.1700:_ZN5arrow7compute16FunctionRegistryD1Ev
libarrow.so.1700:_ZN5arrow7compute16FunctionRegistryD2Ev
libarrow.so.1700:_ZN5arrow7compute16ListSliceOptionsC1ElSt8optionalIlElS2_IbE
libarrow.so.1700:_ZN5arrow7compute16ListSliceOptionsC1Ev
libarrow.so.1700:_ZN5arrow7compute16ListSliceOptionsC2ElSt8optionalIlElS2_IbE
libarrow.so.1700:_ZN5arrow7compute16ListSliceOptionsC2Ev
libarrow.so.1700:_ZN5arrow7compute16MapLookupOptionsC1ESt10shared_ptrINS_6ScalarEENS1_10OccurrenceE
libarrow.so.1700:_ZN5arrow7compute16MapLookupOptionsC1Ev
libarrow.so.1700:_ZN5arrow7compute16MapLookupOptionsC2ESt10shared_ptrINS_6ScalarEENS1_10OccurrenceE
libarrow.so.1700:_ZN5arrow7compute16MapLookupOptionsC2Ev
libarrow.so.1700:_ZN5arrow7compute16RowTableMetadata24FromColumnMetadataVectorERKSt6vectorINS0_17KeyColumnMetadataESaIS3_EEii
libarrow.so.1700:_ZN5arrow7compute16SetLookupOptionsC1ENS_5DatumENS1_20NullMatchingBehaviorE
libarrow.so.1700:_ZN5arrow7compute16SetLookupOptionsC1ENS_5DatumEb
libarrow.so.1700:_ZN5arrow7compute16SetLookupOptionsC1Ev
libarrow.so.1700:_ZN5arrow7compute16SetLookupOptionsC2ENS_5DatumENS1_20NullMatchingBehaviorE
libarrow.so.1700:_ZN5arrow7compute16SetLookupOptionsC2ENS_5DatumEb
libarrow.so.1700:_ZN5arrow7compute16SetLookupOptionsC2Ev
libarrow.so.1700:_ZN5arrow7compute17ArithmeticOptionsC1Eb
libarrow.so.1700:_ZN5arrow7compute17ArithmeticOptionsC2Eb
libarrow.so.1700:_ZN5arrow7compute17CumulativeOptionsC1ESt10shared_ptrINS_6ScalarEEb
libarrow.so.1700:_ZN5arrow7compute17CumulativeOptionsC1Eb
libarrow.so.1700:_ZN5arrow7compute17CumulativeOptionsC1Edb
libarrow.so.1700:_ZN5arrow7compute17CumulativeOptionsC2ESt10shared_ptrINS_6ScalarEEb
libarrow.so.1700:_ZN5arrow7compute17CumulativeOptionsC2Eb
libarrow.so.1700:_ZN5arrow7compute17CumulativeOptionsC2Edb
libarrow.so.1700:_ZN5arrow7compute17EncoderBinaryPair14DecodeImp_avx2ILb0ELj1EEEjjjjRKNS0_12RowTableImplEPNS0_14KeyColumnArrayES7_
libarrow.so.1700:_ZN5arrow7compute17EncoderBinaryPair14DecodeImp_avx2ILb0ELj2EEEjjjjRKNS0_12RowTableImplEPNS0_14KeyColumnArrayES7_
libarrow.so.1700:_ZN5arrow7compute17EncoderBinaryPair14DecodeImp_avx2ILb0ELj4EEEjjjjRKNS0_12RowTableImplEPNS0_14KeyColumnArrayES7_
libarrow.so.1700:_ZN5arrow7compute17EncoderBinaryPair14DecodeImp_avx2ILb0ELj8EEEjjjjRKNS0_12RowTableImplEPNS0_14KeyColumnArrayES7_
libarrow.so.1700:_ZN5arrow7compute17EncoderBinaryPair14DecodeImp_avx2ILb1ELj1EEEjjjjRKNS0_12RowTableImplEPNS0_14KeyColumnArrayES7_
libarrow.so.1700:_ZN5arrow7compute17EncoderBinaryPair14DecodeImp_avx2ILb1ELj2EEEjjjjRKNS0_12RowTableImplEPNS0_14KeyColumnArrayES7_
libarrow.so.1700:_ZN5arrow7compute17EncoderBinaryPair14DecodeImp_avx2ILb1ELj4EEEjjjjRKNS0_12RowTableImplEPNS0_14KeyColumnArrayES7_
libarrow.so.1700:_ZN5arrow7compute17EncoderBinaryPair14DecodeImp_avx2ILb1ELj8EEEjjjjRKNS0_12RowTableImplEPNS0_14KeyColumnArrayES7_
libarrow.so.1700:_ZN5arrow7compute17EncoderBinaryPair17DecodeHelper_avx2EbjjjjRKNS0_12RowTableImplEPNS0_14KeyColumnArrayES6_
libarrow.so.1700:_ZN5arrow7compute17EncoderBinaryPair6DecodeEjjjRKNS0_12RowTableImplEPNS0_14KeyColumnArrayES6_PNS0_12LightContextES6_S6_
libarrow.so.1700:_ZN5arrow7compute17EncoderBinaryPair9DecodeImpILb0EhhEEvjjjjRKNS0_12RowTableImplEPNS0_14KeyColumnArrayES7_
libarrow.so.1700:_ZN5arrow7compute17EncoderBinaryPair9DecodeImpILb0EhjEEvjjjjRKNS0_12RowTableImplEPNS0_14KeyColumnArrayES7_
libarrow.so.1700:_ZN5arrow7compute17EncoderBinaryPair9DecodeImpILb0EhmEEvjjjjRKNS0_12RowTableImplEPNS0_14KeyColumnArrayES7_
libarrow.so.1700:_ZN5arrow7compute17EncoderBinaryPair9DecodeImpILb0EhtEEvjjjjRKNS0_12RowTableImplEPNS0_14KeyColumnArrayES7_
libarrow.so.1700:_ZN5arrow7compute17EncoderBinaryPair9DecodeImpILb0EjhEEvjjjjRKNS0_12RowTableImplEPNS0_14KeyColumnArrayES7_
libarrow.so.1700:_ZN5arrow7compute17EncoderBinaryPair9DecodeImpILb0EjjEEvjjjjRKNS0_12RowTableImplEPNS0_14KeyColumnArrayES7_
libarrow.so.1700:_ZN5arrow7compute17EncoderBinaryPair9DecodeImpILb0EjmEEvjjjjRKNS0_12RowTableImplEPNS0_14KeyColumnArrayES7_
libarrow.so.1700:_ZN5arrow7compute17EncoderBinaryPair9DecodeImpILb0EjtEEvjjjjRKNS0_12RowTableImplEPNS0_14KeyColumnArrayES7_
libarrow.so.1700:_ZN5arrow7compute17EncoderBinaryPair9DecodeImpILb0EmhEEvjjjjRKNS0_12RowTableImplEPNS0_14KeyColumnArrayES7_
libarrow.so.1700:_ZN5arrow7compute17EncoderBinaryPair9DecodeImpILb0EmjEEvjjjjRKNS0_12RowTableImplEPNS0_14KeyColumnArrayES7_
libarrow.so.1700:_ZN5arrow7compute17EncoderBinaryPair9DecodeImpILb0EmmEEvjjjjRKNS0_12RowTableImplEPNS0_14KeyColumnArrayES7_
libarrow.so.1700:_ZN5arrow7compute17EncoderBinaryPair9DecodeImpILb0EmtEEvjjjjRKNS0_12RowTableImplEPNS0_14KeyColumnArrayES7_
libarrow.so.1700:_ZN5arrow7compute17EncoderBinaryPair9DecodeImpILb0EthEEvjjjjRKNS0_12RowTableImplEPNS0_14KeyColumnArrayES7_
libarrow.so.1700:_ZN5arrow7compute17EncoderBinaryPair9DecodeImpILb0EtjEEvjjjjRKNS0_12RowTableImplEPNS0_14KeyColumnArrayES7_
libarrow.so.1700:_ZN5arrow7compute17EncoderBinaryPair9DecodeImpILb0EtmEEvjjjjRKNS0_12RowTableImplEPNS0_14KeyColumnArrayES7_
libarrow.so.1700:_ZN5arrow7compute17EncoderBinaryPair9DecodeImpILb0EttEEvjjjjRKNS0_12RowTableImplEPNS0_14KeyColumnArrayES7_
libarrow.so.1700:_ZN5arrow7compute17EncoderBinaryPair9DecodeImpILb1EhhEEvjjjjRKNS0_12RowTableImplEPNS0_14KeyColumnArrayES7_
libarrow.so.1700:_ZN5arrow7compute17EncoderBinaryPair9DecodeImpILb1EhjEEvjjjjRKNS0_12RowTableImplEPNS0_14KeyColumnArrayES7_
libarrow.so.1700:_ZN5arrow7compute17EncoderBinaryPair9DecodeImpILb1EhmEEvjjjjRKNS0_12RowTableImplEPNS0_14KeyColumnArrayES7_
libarrow.so.1700:_ZN5arrow7compute17EncoderBinaryPair9DecodeImpILb1EhtEEvjjjjRKNS0_12RowTableImplEPNS0_14KeyColumnArrayES7_
libarrow.so.1700:_ZN5arrow7compute17EncoderBinaryPair9DecodeImpILb1EjhEEvjjjjRKNS0_12RowTableImplEPNS0_14KeyColumnArrayES7_
libarrow.so.1700:_ZN5arrow7compute17EncoderBinaryPair9DecodeImpILb1EjjEEvjjjjRKNS0_12RowTableImplEPNS0_14KeyColumnArrayES7_
libarrow.so.1700:_ZN5arrow7compute17EncoderBinaryPair9DecodeImpILb1EjmEEvjjjjRKNS0_12RowTableImplEPNS0_14KeyColumnArrayES7_
libarrow.so.1700:_ZN5arrow7compute17EncoderBinaryPair9DecodeImpILb1EjtEEvjjjjRKNS0_12RowTableImplEPNS0_14KeyColumnArrayES7_
libarrow.so.1700:_ZN5arrow7compute17EncoderBinaryPair9DecodeImpILb1EmhEEvjjjjRKNS0_12RowTableImplEPNS0_14KeyColumnArrayES7_
libarrow.so.1700:_ZN5arrow7compute17EncoderBinaryPair9DecodeImpILb1EmjEEvjjjjRKNS0_12RowTableImplEPNS0_14KeyColumnArrayES7_
libarrow.so.1700:_ZN5arrow7compute17EncoderBinaryPair9DecodeImpILb1EmmEEvjjjjRKNS0_12RowTableImplEPNS0_14KeyColumnArrayES7_
libarrow.so.1700:_ZN5arrow7compute17EncoderBinaryPair9DecodeImpILb1EmtEEvjjjjRKNS0_12RowTableImplEPNS0_14KeyColumnArrayES7_
libarrow.so.1700:_ZN5arrow7compute17EncoderBinaryPair9DecodeImpILb1EthEEvjjjjRKNS0_12RowTableImplEPNS0_14KeyColumnArrayES7_
libarrow.so.1700:_ZN5arrow7compute17EncoderBinaryPair9DecodeImpILb1EtjEEvjjjjRKNS0_12RowTableImplEPNS0_14KeyColumnArrayES7_
libarrow.so.1700:_ZN5arrow7compute17EncoderBinaryPair9DecodeImpILb1EtmEEvjjjjRKNS0_12RowTableImplEPNS0_14KeyColumnArrayES7_
libarrow.so.1700:_ZN5arrow7compute17EncoderBinaryPair9DecodeImpILb1EttEEvjjjjRKNS0_12RowTableImplEPNS0_14KeyColumnArrayES7_
libarrow.so.1700:_ZN5arrow7compute17IsDaylightSavingsERKNS_5DatumEPNS0_11ExecContextE
libarrow.so.1700:_ZN5arrow7compute17MakeStructOptionsC1ESt6vectorINSt7__cxx1112basic_stringIcSt11char_traitsIcESaIcEEESaIS8_EE
libarrow.so.1700:_ZN5arrow7compute17MakeStructOptionsC1ESt6vectorINSt7__cxx1112basic_stringIcSt11char_traitsIcESaIcEEESaIS8_EES2_IbSaIbEES2_ISt10shared_ptrIKNS_16KeyValueMetadataEESaISG_EE
libarrow.so.1700:_ZN5arrow7compute17MakeStructOptionsC1Ev
libarrow.so.1700:_ZN5arrow7compute17MakeStructOptionsC2ESt6vectorINSt7__cxx1112basic_stringIcSt11char_traitsIcESaIcEEESaIS8_EE
libarrow.so.1700:_ZN5arrow7compute17MakeStructOptionsC2ESt6vectorINSt7__cxx1112basic_stringIcSt11char_traitsIcESaIcEEESaIS8_EES2_IbSaIbEES2_ISt10shared_ptrIKNS_16KeyValueMetadataEESaISG_EE
libarrow.so.1700:_ZN5arrow7compute17MakeStructOptionsC2Ev
libarrow.so.1700:_ZN5arrow7compute18FieldsInExpressionERKNS0_10ExpressionE
libarrow.so.1700:_ZN5arrow7compute18ListFlattenOptionsC1Eb
libarrow.so.1700:_ZN5arrow7compute18ListFlattenOptionsC2Eb
libarrow.so.1700:_ZN5arrow7compute18NanosecondsBetweenERKNS_5DatumES3_PNS0_11ExecContextE
libarrow.so.1700:_ZN5arrow7compute18ResizableArrayData24ResizeFixedLengthBuffersEi
libarrow.so.1700:_ZN5arrow7compute18ResizableArrayData25ResizeVaryingLengthBufferEv
libarrow.so.1700:_ZN5arrow7compute18ResizableArrayData4InitERKSt10shared_ptrINS_8DataTypeEEPNS_10MemoryPoolEi
libarrow.so.1700:_ZN5arrow7compute18ResizableArrayData5ClearEb
libarrow.so.1700:_ZN5arrow7compute18RoundBinaryOptionsC1ENS0_9RoundModeE
libarrow.so.1700:_ZN5arrow7compute18RoundBinaryOptionsC2ENS0_9RoundModeE
libarrow.so.1700:_ZN5arrow7compute18StructFieldOptionsC1ENS_8FieldRefE
libarrow.so.1700:_ZN5arrow7compute18StructFieldOptionsC1ESt16initializer_listIiE
libarrow.so.1700:_ZN5arrow7compute18StructFieldOptionsC1ESt6vectorIiSaIiEE
libarrow.so.1700:_ZN5arrow7compute18StructFieldOptionsC1Ev
libarrow.so.1700:_ZN5arrow7compute18StructFieldOptionsC2ENS_8FieldRefE
libarrow.so.1700:_ZN5arrow7compute18StructFieldOptionsC2ESt16initializer_listIiE
libarrow.so.1700:_ZN5arrow7compute18StructFieldOptionsC2ESt6vectorIiSaIiEE
libarrow.so.1700:_ZN5arrow7compute18StructFieldOptionsC2Ev
libarrow.so.1700:_ZN5arrow7compute19ExtractRegexOptionsC1ENSt7__cxx1112basic_stringIcSt11char_traitsIcESaIcEEE
libarrow.so.1700:_ZN5arrow7compute19ExtractRegexOptionsC1Ev
libarrow.so.1700:_ZN5arrow7compute19ExtractRegexOptionsC2ENSt7__cxx1112basic_stringIcSt11char_traitsIcESaIcEEE
libarrow.so.1700:_ZN5arrow7compute19ExtractRegexOptionsC2Ev
libarrow.so.1700:_ZN5arrow7compute19GetFunctionExecutorERKNSt7__cxx1112basic_stringIcSt11char_traitsIcESaIcEEERKSt6vectorINS_5DatumESaISA_EEPKNS0_15FunctionOptionsEPNS0_16FunctionRegistryE
libarrow.so.1700:_ZN5arrow7compute19GetFunctionExecutorERKNSt7__cxx1112basic_stringIcSt11char_traitsIcESaIcEEESt6vectorINS_10TypeHolderESaISA_EEPKNS0_15FunctionOptionsEPNS0_16FunctionRegistryE
libarrow.so.1700:_ZN5arrow7compute19GetFunctionRegistryEv
libarrow.so.1700:_ZN5arrow7compute19MicrosecondsBetweenERKNS_5DatumES3_PNS0_11ExecContextE
libarrow.so.1700:_ZN5arrow7compute19MillisecondsBetweenERKNS_5DatumES3_PNS0_11ExecContextE
libarrow.so.1700:_ZN5arrow7compute19MonthDayNanoBetweenERKNS_5DatumES3_PNS0_11ExecContextE
libarrow.so.1700:_ZN5arrow7compute19PartitionNthOptionsC1ElNS0_13NullPlacementE
libarrow.so.1700:_ZN5arrow7compute19PartitionNthOptionsC2ElNS0_13NullPlacementE
libarrow.so.1700:_ZN5arrow7compute19ReplaceSliceOptionsC1EllNSt7__cxx1112basic_stringIcSt11char_traitsIcESaIcEEE
libarrow.so.1700:_ZN5arrow7compute19ReplaceSliceOptionsC1Ev
libarrow.so.1700:_ZN5arrow7compute19ReplaceSliceOptionsC2EllNSt7__cxx1112basic_stringIcSt11char_traitsIcESaIcEEE
libarrow.so.1700:_ZN5arrow7compute19ReplaceSliceOptionsC2Ev
libarrow.so.1700:_ZN5arrow7compute19RunEndEncodeOptionsC1ESt10shared_ptrINS_8DataTypeEE
libarrow.so.1700:_ZN5arrow7compute19RunEndEncodeOptionsC2ESt10shared_ptrINS_8DataTypeEE
libarrow.so.1700:_ZN5arrow7compute19SplitPatternOptionsC1ENSt7__cxx1112basic_stringIcSt11char_traitsIcESaIcEEElb
libarrow.so.1700:_ZN5arrow7compute19SplitPatternOptionsC1Ev
libarrow.so.1700:_ZN5arrow7compute19SplitPatternOptionsC2ENSt7__cxx1112basic_stringIcSt11char_traitsIcESaIcEEElb
libarrow.so.1700:_ZN5arrow7compute19SplitPatternOptionsC2Ev
libarrow.so.1700:_ZN5arrow7compute20MakeAnyKeysSegmenterERKSt6vectorINS_10TypeHolderESaIS2_EEPNS0_11ExecContextE
libarrow.so.1700:_ZN5arrow7compute20RoundTemporalOptionsC1EiNS0_12CalendarUnitEbbb
libarrow.so.1700:_ZN5arrow7compute20RoundTemporalOptionsC2EiNS0_12CalendarUnitEbbb
libarrow.so.1700:_ZN5arrow7compute20Utf8NormalizeOptionsC1ENS1_4FormE
libarrow.so.1700:_ZN5arrow7compute20Utf8NormalizeOptionsC2ENS1_4FormE
libarrow.so.1700:_ZN5arrow7compute20default_exec_contextEv
libarrow.so.1700:_ZN5arrow7compute21AssumeTimezoneOptionsC1ENSt7__cxx1112basic_stringIcSt11char_traitsIcESaIcEEENS1_9AmbiguousENS1_11NonexistentE
libarrow.so.1700:_ZN5arrow7compute21AssumeTimezoneOptionsC1Ev
libarrow.so.1700:_ZN5arrow7compute21AssumeTimezoneOptionsC2ENSt7__cxx1112basic_stringIcSt11char_traitsIcESaIcEEENS1_9AmbiguousENS1_11NonexistentE
libarrow.so.1700:_ZN5arrow7compute21AssumeTimezoneOptionsC2Ev
libarrow.so.1700:_ZN5arrow7compute21HashAggregateFunction9AddKernelENS0_19HashAggregateKernelE
libarrow.so.1700:_ZN5arrow7compute21MatchSubstringOptionsC1ENSt7__cxx1112basic_stringIcSt11char_traitsIcESaIcEEEb
libarrow.so.1700:_ZN5arrow7compute21MatchSubstringOptionsC1Ev
libarrow.so.1700:_ZN5arrow7compute21MatchSubstringOptionsC2ENSt7__cxx1112basic_stringIcSt11char_traitsIcESaIcEEEb
libarrow.so.1700:_ZN5arrow7compute21MatchSubstringOptionsC2Ev
libarrow.so.1700:_ZN5arrow7compute21ScalarAggregateKernel8MergeAllEPKS1_PNS0_13KernelContextESt6vectorISt10unique_ptrINS0_11KernelStateESt14default_deleteIS8_EESaISB_EE
libarrow.so.1700:_ZN5arrow7compute21SimplifyWithGuaranteeENS0_10ExpressionERKS1_
libarrow.so.1700:_ZN5arrow7compute21threaded_exec_contextEv
libarrow.so.1700:_ZN5arrow7compute22ExpressionHasFieldRefsERKNS0_10ExpressionE
libarrow.so.1700:_ZN5arrow7compute22RoundToMultipleOptionsC1ESt10shared_ptrINS_6ScalarEENS0_9RoundModeE
libarrow.so.1700:_ZN5arrow7compute22RoundToMultipleOptionsC1EdNS0_9RoundModeE
libarrow.so.1700:_ZN5arrow7compute22RoundToMultipleOptionsC2ESt10shared_ptrINS_6ScalarEENS0_9RoundModeE
libarrow.so.1700:_ZN5arrow7compute22RoundToMultipleOptionsC2EdNS0_9RoundModeE
libarrow.so.1700:_ZN5arrow7compute22ScalarAggregateOptionsC1Ebj
libarrow.so.1700:_ZN5arrow7compute22ScalarAggregateOptionsC2Ebj
libarrow.so.1700:_ZN5arrow7compute23DictionaryEncodeOptionsC1ENS1_20NullEncodingBehaviorE
libarrow.so.1700:_ZN5arrow7compute23DictionaryEncodeOptionsC2ENS1_20NullEncodingBehaviorE
libarrow.so.1700:_ZN5arrow7compute23ExecuteScalarExpressionERKNS0_10ExpressionERKNS0_9ExecBatchEPNS0_11ExecContextE
libarrow.so.1700:_ZN5arrow7compute23ExecuteScalarExpressionERKNS0_10ExpressionERKNS_6SchemaERKNS_5DatumEPNS0_11ExecContextE
libarrow.so.1700:_ZN5arrow7compute23ExtractKnownFieldValuesERKNS0_10ExpressionE
libarrow.so.1700:_ZN5arrow7compute23ReplaceSubstringOptionsC1ENSt7__cxx1112basic_stringIcSt11char_traitsIcESaIcEEES7_l
libarrow.so.1700:_ZN5arrow7compute23ReplaceSubstringOptionsC1Ev
libarrow.so.1700:_ZN5arrow7compute23ReplaceSubstringOptionsC2ENSt7__cxx1112basic_stringIcSt11char_traitsIcESaIcEEES7_l
libarrow.so.1700:_ZN5arrow7compute23ReplaceSubstringOptionsC2Ev
libarrow.so.1700:_ZN5arrow7compute23ScalarAggregateFunction9AddKernelENS0_21ScalarAggregateKernelE
libarrow.so.1700:_ZN5arrow7compute24ColumnArrayFromArrayDataERKSt10shared_ptrINS_9ArrayDataEEll
libarrow.so.1700:_ZN5arrow7compute25ColumnArraysFromExecBatchERKNS0_9ExecBatchEPSt6vectorINS0_14KeyColumnArrayESaIS5_EE
libarrow.so.1700:_ZN5arrow7compute25ColumnArraysFromExecBatchERKNS0_9ExecBatchEllPSt6vectorINS0_14KeyColumnArrayESaIS5_EE
libarrow.so.1700:_ZN5arrow7compute26ColumnMetadataFromDataTypeERKSt10shared_ptrINS_8DataTypeEE
libarrow.so.1700:_ZN5arrow7compute27ElementWiseAggregateOptionsC1Eb
libarrow.so.1700:_ZN5arrow7compute27ElementWiseAggregateOptionsC2Eb
libarrow.so.1700:_ZN5arrow7compute28ColumnMetadatasFromExecBatchERKNS0_9ExecBatchEPSt6vectorINS0_17KeyColumnMetadataESaIS5_EE
libarrow.so.1700:_ZN5arrow7compute28ReplaceFieldsWithKnownValuesERKNS0_16KnownFieldValuesENS0_10ExpressionE
libarrow.so.1700:_ZN5arrow7compute2LnERKNS_5DatumENS0_17ArithmeticOptionsEPNS0_11ExecContextE
libarrow.so.1700:_ZN5arrow7compute2OrERKNS_5DatumES3_PNS0_11ExecContextE
libarrow.so.1700:_ZN5arrow7compute35ColumnArrayFromArrayDataAndMetadataERKSt10shared_ptrINS_9ArrayDataEERKNS0_17KeyColumnMetadataEll
libarrow.so.1700:_ZN5arrow7compute3AddERKNS_5DatumES3_NS0_17ArithmeticOptionsEPNS0_11ExecContextE
libarrow.so.1700:_ZN5arrow7compute3AllERKNS_5DatumERKNS0_22ScalarAggregateOptionsEPNS0_11ExecContextE
libarrow.so.1700:_ZN5arrow7compute3AndERKNS_5DatumES3_PNS0_11ExecContextE
libarrow.so.1700:_ZN5arrow7compute3AnyERKNS_5DatumERKNS0_22ScalarAggregateOptionsEPNS0_11ExecContextE
libarrow.so.1700:_ZN5arrow7compute3CosERKNS_5DatumENS0_17ArithmeticOptionsEPNS0_11ExecContextE
libarrow.so.1700:_ZN5arrow7compute3DayERKNS_5DatumEPNS0_11ExecContextE
libarrow.so.1700:_ZN5arrow7compute3ExpERKNS_5DatumEPNS0_11ExecContextE
libarrow.so.1700:_ZN5arrow7compute3SinERKNS_5DatumENS0_17ArithmeticOptionsEPNS0_11ExecContextE
libarrow.so.1700:_ZN5arrow7compute3SumERKNS_5DatumERKNS0_22ScalarAggregateOptionsEPNS0_11ExecContextE
libarrow.so.1700:_ZN5arrow7compute3TanERKNS_5DatumENS0_17ArithmeticOptionsEPNS0_11ExecContextE
libarrow.so.1700:_ZN5arrow7compute3XorERKNS_5DatumES3_PNS0_11ExecContextE
libarrow.so.1700:_ZN5arrow7compute3or_ENS0_10ExpressionES1_
libarrow.so.1700:_ZN5arrow7compute3or_ERKSt6vectorINS0_10ExpressionESaIS2_EE
libarrow.so.1700:_ZN5arrow7compute4AcosERKNS_5DatumENS0_17ArithmeticOptionsEPNS0_11ExecContextE
libarrow.so.1700:_ZN5arrow7compute4AsinERKNS_5DatumENS0_17ArithmeticOptionsEPNS0_11ExecContextE
libarrow.so.1700:_ZN5arrow7compute4AtanERKNS_5DatumEPNS0_11ExecContextE
libarrow.so.1700:_ZN5arrow7compute4CastERKNS_5ArrayERKNS_10TypeHolderERKNS0_11CastOptionsEPNS0_11ExecContextE
libarrow.so.1700:_ZN5arrow7compute4CastERKNS_5DatumERKNS0_11CastOptionsEPNS0_11ExecContextE
libarrow.so.1700:_ZN5arrow7compute4CastERKNS_5DatumERKNS_10TypeHolderERKNS0_11CastOptionsEPNS0_11ExecContextE
libarrow.so.1700:_ZN5arrow7compute4CeilERKNS_5DatumEPNS0_11ExecContextE
libarrow.so.1700:_ZN5arrow7compute4HourERKNS_5DatumEPNS0_11ExecContextE
libarrow.so.1700:_ZN5arrow7compute4IsInERKNS_5DatumERKNS0_16SetLookupOptionsEPNS0_11ExecContextE
libarrow.so.1700:_ZN5arrow7compute4IsInERKNS_5DatumES3_PNS0_11ExecContextE
libarrow.so.1700:_ZN5arrow7compute4LastERKNS_5DatumERKNS0_22ScalarAggregateOptionsEPNS0_11ExecContextE
libarrow.so.1700:_ZN5arrow7compute4Log2ERKNS_5DatumENS0_17ArithmeticOptionsEPNS0_11ExecContextE
libarrow.so.1700:_ZN5arrow7compute4LogbERKNS_5DatumES3_NS0_17ArithmeticOptionsEPNS0_11ExecContextE
libarrow.so.1700:_ZN5arrow7compute4MeanERKNS_5DatumERKNS0_22ScalarAggregateOptionsEPNS0_11ExecContextE
libarrow.so.1700:_ZN5arrow7compute4ModeERKNS_5DatumERKNS0_11ModeOptionsEPNS0_11ExecContextE
libarrow.so.1700:_ZN5arrow7compute4SignERKNS_5DatumEPNS0_11ExecContextE
libarrow.so.1700:_ZN5arrow7compute4SqrtERKNS_5DatumENS0_17ArithmeticOptionsEPNS0_11ExecContextE
libarrow.so.1700:_ZN5arrow7compute4TakeERKNS_5ArrayES3_RKNS0_11TakeOptionsEPNS0_11ExecContextE
libarrow.so.1700:_ZN5arrow7compute4TakeERKNS_5DatumES3_RKNS0_11TakeOptionsEPNS0_11ExecContextE
libarrow.so.1700:_ZN5arrow7compute4WeekERKNS_5DatumENS0_11WeekOptionsEPNS0_11ExecContextE
libarrow.so.1700:_ZN5arrow7compute4YearERKNS_5DatumEPNS0_11ExecContextE
libarrow.so.1700:_ZN5arrow7compute4and_ENS0_10ExpressionES1_
libarrow.so.1700:_ZN5arrow7compute4and_ERKSt6vectorINS0_10ExpressionESaIS2_EE
libarrow.so.1700:_ZN5arrow7compute4callENSt7__cxx1112basic_stringIcSt11char_traitsIcESaIcEEESt6vectorINS0_10ExpressionESaIS8_EESt10shared_ptrINS0_15FunctionOptionsEE
libarrow.so.1700:_ZN5arrow7compute4lessENS0_10ExpressionES1_
libarrow.so.1700:_ZN5arrow7compute4not_ENS0_10ExpressionE
libarrow.so.1700:_ZN5arrow7compute5Atan2ERKNS_5DatumES3_PNS0_11ExecContextE
libarrow.so.1700:_ZN5arrow7compute5CountERKNS_5DatumERKNS0_12CountOptionsEPNS0_11ExecContextE
libarrow.so.1700:_ZN5arrow7compute5FirstERKNS_5DatumERKNS0_22ScalarAggregateOptionsEPNS0_11ExecContextE
libarrow.so.1700:_ZN5arrow7compute5FloorERKNS_5DatumEPNS0_11ExecContextE
libarrow.so.1700:_ZN5arrow7compute5IndexERKNS_5DatumERKNS0_12IndexOptionsEPNS0_11ExecContextE
libarrow.so.1700:_ZN5arrow7compute5IsNanERKNS_5DatumEPNS0_11ExecContextE
libarrow.so.1700:_ZN5arrow7compute5Log10ERKNS_5DatumENS0_17ArithmeticOptionsEPNS0_11ExecContextE
libarrow.so.1700:_ZN5arrow7compute5Log1pERKNS_5DatumENS0_17ArithmeticOptionsEPNS0_11ExecContextE
libarrow.so.1700:_ZN5arrow7compute5MonthERKNS_5DatumEPNS0_11ExecContextE
libarrow.so.1700:_ZN5arrow7compute5PowerERKNS_5DatumES3_NS0_17ArithmeticOptionsEPNS0_11ExecContextE
libarrow.so.1700:_ZN5arrow7compute5RoundERKNS_5DatumENS0_12RoundOptionsEPNS0_11ExecContextE
libarrow.so.1700:_ZN5arrow7compute5TruncERKNS_5DatumEPNS0_11ExecContextE
libarrow.so.1700:_ZN5arrow7compute5equalENS0_10ExpressionES1_
libarrow.so.1700:_ZN5arrow7compute5match10BinaryLikeEv
libarrow.so.1700:_ZN5arrow7compute5match10SameTypeIdENS_4Type4typeE
libarrow.so.1700:_ZN5arrow7compute5match13RunEndEncodedENS_4Type4typeE
libarrow.so.1700:_ZN5arrow7compute5match13RunEndEncodedESt10shared_ptrINS0_11TypeMatcherEE
libarrow.so.1700:_ZN5arrow7compute5match13RunEndEncodedESt10shared_ptrINS0_11TypeMatcherEES4_
libarrow.so.1700:_ZN5arrow7compute5match13RunEndIntegerEv
libarrow.so.1700:_ZN5arrow7compute5match14Time32TypeUnitENS_8TimeUnit4typeE
libarrow.so.1700:_ZN5arrow7compute5match14Time64TypeUnitENS_8TimeUnit4typeE
libarrow.so.1700:_ZN5arrow7compute5match15LargeBinaryLikeEv
libarrow.so.1700:_ZN5arrow7compute5match16DurationTypeUnitENS_8TimeUnit4typeE
libarrow.so.1700:_ZN5arrow7compute5match17TimestampTypeUnitENS_8TimeUnit4typeE
libarrow.so.1700:_ZN5arrow7compute5match19FixedSizeBinaryLikeEv
libarrow.so.1700:_ZN5arrow7compute5match7IntegerEv
libarrow.so.1700:_ZN5arrow7compute5match9PrimitiveEv
libarrow.so.1700:_ZN5arrow7compute6AndNotERKNS_5DatumES3_PNS0_11ExecContextE
libarrow.so.1700:_ZN5arrow7compute6DivideERKNS_5DatumES3_NS0_17ArithmeticOptionsEPNS0_11ExecContextE
libarrow.so.1700:_ZN5arrow7compute6FilterERKNS_5DatumES3_RKNS0_13FilterOptionsEPNS0_11ExecContextE
libarrow.so.1700:_ZN5arrow7compute6IfElseERKNS_5DatumES3_S3_PNS0_11ExecContextE
libarrow.so.1700:_ZN5arrow7compute6InvertERKNS_5DatumEPNS0_11ExecContextE
libarrow.so.1700:_ZN5arrow7compute6IsNullERKNS_5DatumENS0_11NullOptionsEPNS0_11ExecContextE
libarrow.so.1700:_ZN5arrow7compute6Kernel7InitAllEPNS0_13KernelContextERKNS0_14KernelInitArgsEPSt6vectorISt10unique_ptrINS0_11KernelStateESt14default_deleteIS9_EESaISC_EE
libarrow.so.1700:_ZN5arrow7compute6MinMaxERKNS_5DatumERKNS0_22ScalarAggregateOptionsEPNS0_11ExecContextE
libarrow.so.1700:_ZN5arrow7compute6MinuteERKNS_5DatumEPNS0_11ExecContextE
libarrow.so.1700:_ZN5arrow7compute6NegateERKNS_5DatumENS0_17ArithmeticOptionsEPNS0_11ExecContextE
libarrow.so.1700:_ZN5arrow7compute6SecondERKNS_5DatumEPNS0_11ExecContextE
libarrow.so.1700:_ZN5arrow7compute6StddevERKNS_5DatumERKNS0_15VarianceOptionsEPNS0_11ExecContextE
libarrow.so.1700:_ZN5arrow7compute6USWeekERKNS_5DatumEPNS0_11ExecContextE
libarrow.so.1700:_ZN5arrow7compute6USYearERKNS_5DatumEPNS0_11ExecContextE
libarrow.so.1700:_ZN5arrow7compute6UniqueERKNS_5DatumEPNS0_11ExecContextE
libarrow.so.1700:_ZN5arrow7compute6detail14KernelExecutor10MakeScalarEv
libarrow.so.1700:_ZN5arrow7compute6detail14KernelExecutor10MakeVectorEv
libarrow.so.1700:_ZN5arrow7compute6detail14KernelExecutor19MakeScalarAggregateEv
libarrow.so.1700:_ZN5arrow7compute6detail14PropagateNullsEPNS0_13KernelContextERKNS0_8ExecSpanEPNS_9ArrayDataE
libarrow.so.1700:_ZN5arrow7compute6detail16ExecSpanIterator16GetNextChunkSpanElPNS0_8ExecSpanE
libarrow.so.1700:_ZN5arrow7compute6detail16ExecSpanIterator4InitERKNS0_9ExecBatchElb
libarrow.so.1700:_ZN5arrow7compute6detail16ExecSpanIterator4NextEPNS0_8ExecSpanE
libarrow.so.1700:_ZN5arrow7compute6detail16InferBatchLengthERKSt6vectorINS_5DatumESaIS3_EEPb
libarrow.so.1700:_ZN5arrow7compute6detail16NoMatchingKernelEPKNS0_8FunctionERKSt6vectorINS_10TypeHolderESaIS6_EE
libarrow.so.1700:_ZN5arrow7compute6detail17DispatchExactImplEPKNS0_8FunctionERKSt6vectorINS_10TypeHolderESaIS6_EE
libarrow.so.1700:_ZN5arrow7compute6detail19PropagateNullsSpansERKNS0_8ExecSpanEPNS_9ArraySpanE
libarrow.so.1700:_ZN5arrow7compute7CanCastERKNS_8DataTypeES3_
libarrow.so.1700:_ZN5arrow7compute7Grouper13MakeGroupingsERKNS_12NumericArrayINS_10UInt32TypeEEEjPNS0_11ExecContextE
libarrow.so.1700:_ZN5arrow7compute7Grouper14ApplyGroupingsERKNS_9ListArrayERKNS_5ArrayEPNS0_11ExecContextE
libarrow.so.1700:_ZN5arrow7compute7Grouper4MakeERKSt6vectorINS_10TypeHolderESaIS3_EEPNS0_11ExecContextE
libarrow.so.1700:_ZN5arrow7compute7ISOWeekERKNS_5DatumEPNS0_11ExecContextE
libarrow.so.1700:_ZN5arrow7compute7ISOYearERKNS_5DatumEPNS0_11ExecContextE
libarrow.so.1700:_ZN5arrow7compute7IndexInERKNS_5DatumERKNS0_16SetLookupOptionsEPNS0_11ExecContextE
libarrow.so.1700:_ZN5arrow7compute7IndexInERKNS_5DatumES3_PNS0_11ExecContextE
libarrow.so.1700:_ZN5arrow7compute7IsValidERKNS_5DatumEPNS0_11ExecContextE
libarrow.so.1700:_ZN5arrow7compute7PrintToERKNS0_10ExpressionEPSo
libarrow.so.1700:_ZN5arrow7compute7PrintToERKNS0_15FunctionOptionsEPSo
libarrow.so.1700:_ZN5arrow7compute7PrintToERKNS0_9ExecBatchEPSo
libarrow.so.1700:_ZN5arrow7compute7ProductERKNS_5DatumERKNS0_22ScalarAggregateOptionsEPNS0_11ExecContextE
libarrow.so.1700:_ZN5arrow7compute7QuarterERKNS_5DatumEPNS0_11ExecContextE
libarrow.so.1700:_ZN5arrow7compute7TDigestERKNS_5DatumERKNS0_14TDigestOptionsEPNS0_11ExecContextE
libarrow.so.1700:_ZN5arrow7compute7greaterENS0_10ExpressionES1_
libarrow.so.1700:_ZN5arrow7compute7is_nullENS0_10ExpressionEb
libarrow.so.1700:_ZN5arrow7compute7literalENS_5DatumE
libarrow.so.1700:_ZN5arrow7compute7projectESt6vectorINS0_10ExpressionESaIS2_EES1_INSt7__cxx1112basic_stringIcSt11char_traitsIcESaIcEEESaISA_EE
libarrow.so.1700:_ZN5arrow7compute8CaseWhenERKNS_5DatumERKSt6vectorIS1_SaIS1_EEPNS0_11ExecContextE
libarrow.so.1700:_ZN5arrow7compute8DropNullERKNS_5ArrayEPNS0_11ExecContextE
libarrow.so.1700:_ZN5arrow7compute8DropNullERKNS_5DatumEPNS0_11ExecContextE
libarrow.so.1700:_ZN5arrow7compute8KleeneOrERKNS_5DatumES3_PNS0_11ExecContextE
libarrow.so.1700:_ZN5arrow7compute8MultiplyERKNS_5DatumES3_NS0_17ArithmeticOptionsEPNS0_11ExecContextE
libarrow.so.1700:_ZN5arrow7compute8QuantileERKNS_5DatumERKNS0_15QuantileOptionsEPNS0_11ExecContextE
libarrow.so.1700:_ZN5arrow7compute8StrftimeERKNS_5DatumENS0_15StrftimeOptionsEPNS0_11ExecContextE
libarrow.so.1700:_ZN5arrow7compute8StrptimeERKNS_5DatumENS0_15StrptimeOptionsEPNS0_11ExecContextE
libarrow.so.1700:_ZN5arrow7compute8SubtractERKNS_5DatumES3_NS0_17ArithmeticOptionsEPNS0_11ExecContextE
libarrow.so.1700:_ZN5arrow7compute8VarianceERKNS_5DatumERKNS0_15VarianceOptionsEPNS0_11ExecContextE
libarrow.so.1700:_ZN5arrow7compute8internal10HasDecimalERKSt6vectorINS_10TypeHolderESaIS3_EE
libarrow.so.1700:_ZN5arrow7compute8internal10KeyEncoder11DecodeNullsEPNS_10MemoryPoolEiPPhPSt10shared_ptrINS_6BufferEEPi
libarrow.so.1700:_ZN5arrow7compute8internal10RowEncoder15EncodeAndAppendERKNS0_8ExecSpanE
libarrow.so.1700:_ZN5arrow7compute8internal10RowEncoder4InitERKSt6vectorINS_10TypeHolderESaIS4_EEPNS0_11ExecContextE
libarrow.so.1700:_ZN5arrow7compute8internal10RowEncoder5ClearEv
libarrow.so.1700:_ZN5arrow7compute8internal10RowEncoder6DecodeElPKi
libarrow.so.1700:_ZN5arrow7compute8internal10applicator11ScalarUnaryINS_10DoubleTypeES4_NS1_10SquareRootEE4ExecEPNS0_13KernelContextERKNS0_8ExecSpanEPNS0_10ExecResultE
libarrow.so.1700:_ZN5arrow7compute8internal10applicator11ScalarUnaryINS_10DoubleTypeES4_NS1_13AbsoluteValueEE4ExecEPNS0_13KernelContextERKNS0_8ExecSpanEPNS0_10ExecResultE
libarrow.so.1700:_ZN5arrow7compute8internal10applicator11ScalarUnaryINS_10DoubleTypeES4_NS1_3ExpEE4ExecEPNS0_13KernelContextERKNS0_8ExecSpanEPNS0_10ExecResultE
libarrow.so.1700:_ZN5arrow7compute8internal10applicator11ScalarUnaryINS_10DoubleTypeES4_NS1_4SignEE4ExecEPNS0_13KernelContextERKNS0_8ExecSpanEPNS0_10ExecResultE
libarrow.so.1700:_ZN5arrow7compute8internal10applicator11ScalarUnaryINS_10DoubleTypeES4_NS1_6NegateEE4ExecEPNS0_13KernelContextERKNS0_8ExecSpanEPNS0_10ExecResultE
libarrow.so.1700:_ZN5arrow7compute8internal10applicator11ScalarUnaryINS_10UInt16TypeES4_NS1_13AbsoluteValueEE4ExecEPNS0_13KernelContextERKNS0_8ExecSpanEPNS0_10ExecResultE
libarrow.so.1700:_ZN5arrow7compute8internal10applicator11ScalarUnaryINS_10UInt16TypeES4_NS1_6NegateEE4ExecEPNS0_13KernelContextERKNS0_8ExecSpanEPNS0_10ExecResultE
libarrow.so.1700:_ZN5arrow7compute8internal10applicator11ScalarUnaryINS_10UInt32TypeES4_NS1_13AbsoluteValueEE4ExecEPNS0_13KernelContextERKNS0_8ExecSpanEPNS0_10ExecResultE
libarrow.so.1700:_ZN5arrow7compute8internal10applicator11ScalarUnaryINS_10UInt32TypeES4_NS1_6NegateEE4ExecEPNS0_13KernelContextERKNS0_8ExecSpanEPNS0_10ExecResultE
libarrow.so.1700:_ZN5arrow7compute8internal10applicator11ScalarUnaryINS_10UInt64TypeES4_NS1_13AbsoluteValueEE4ExecEPNS0_13KernelContextERKNS0_8ExecSpanEPNS0_10ExecResultE
libarrow.so.1700:_ZN5arrow7compute8internal10applicator11ScalarUnaryINS_10UInt64TypeES4_NS1_6NegateEE4ExecEPNS0_13KernelContextERKNS0_8ExecSpanEPNS0_10ExecResultE
libarrow.so.1700:_ZN5arrow7compute8internal10applicator11ScalarUnaryINS_11BooleanTypeENS_10DoubleTypeENS1_9IsNonZeroEE4ExecEPNS0_13KernelContextERKNS0_8ExecSpanEPNS0_10ExecResultE
libarrow.so.1700:_ZN5arrow7compute8internal10applicator11ScalarUnaryINS_11BooleanTypeENS_10UInt16TypeENS1_9IsNonZeroEE4ExecEPNS0_13KernelContextERKNS0_8ExecSpanEPNS0_10ExecResultE
libarrow.so.1700:_ZN5arrow7compute8internal10applicator11ScalarUnaryINS_11BooleanTypeENS_10UInt32TypeENS1_9IsNonZeroEE4ExecEPNS0_13KernelContextERKNS0_8ExecSpanEPNS0_10ExecResultE
libarrow.so.1700:_ZN5arrow7compute8internal10applicator11ScalarUnaryINS_11BooleanTypeENS_10UInt64TypeENS1_9IsNonZeroEE4ExecEPNS0_13KernelContextERKNS0_8ExecSpanEPNS0_10ExecResultE
libarrow.so.1700:_ZN5arrow7compute8internal10applicator11ScalarUnaryINS_11BooleanTypeENS_8Int8TypeENS1_9IsNonZeroEE4ExecEPNS0_13KernelContextERKNS0_8ExecSpanEPNS0_10ExecResultE
libarrow.so.1700:_ZN5arrow7compute8internal10applicator11ScalarUnaryINS_11BooleanTypeENS_9FloatTypeENS1_9IsNonZeroEE4ExecEPNS0_13KernelContextERKNS0_8ExecSpanEPNS0_10ExecResultE
libarrow.so.1700:_ZN5arrow7compute8internal10applicator11ScalarUnaryINS_11BooleanTypeENS_9Int16TypeENS1_9IsNonZeroEE4ExecEPNS0_13KernelContextERKNS0_8ExecSpanEPNS0_10ExecResultE
libarrow.so.1700:_ZN5arrow7compute8internal10applicator11ScalarUnaryINS_11BooleanTypeENS_9Int32TypeENS1_9IsNonZeroEE4ExecEPNS0_13KernelContextERKNS0_8ExecSpanEPNS0_10ExecResultE
libarrow.so.1700:_ZN5arrow7compute8internal10applicator11ScalarUnaryINS_11BooleanTypeENS_9Int64TypeENS1_9IsNonZeroEE4ExecEPNS0_13KernelContextERKNS0_8ExecSpanEPNS0_10ExecResultE
libarrow.so.1700:_ZN5arrow7compute8internal10applicator11ScalarUnaryINS_11BooleanTypeENS_9UInt8TypeENS1_9IsNonZeroEE4ExecEPNS0_13KernelContextERKNS0_8ExecSpanEPNS0_10ExecResultE
libarrow.so.1700:_ZN5arrow7compute8internal10applicator11ScalarUnaryINS_8Int8TypeENS_10UInt16TypeENS1_4SignEE4ExecEPNS0_13KernelContextERKNS0_8ExecSpanEPNS0_10ExecResultE
libarrow.so.1700:_ZN5arrow7compute8internal10applicator11ScalarUnaryINS_8Int8TypeENS_10UInt32TypeENS1_4SignEE4ExecEPNS0_13KernelContextERKNS0_8ExecSpanEPNS0_10ExecResultE
libarrow.so.1700:_ZN5arrow7compute8internal10applicator11ScalarUnaryINS_8Int8TypeENS_10UInt64TypeENS1_4SignEE4ExecEPNS0_13KernelContextERKNS0_8ExecSpanEPNS0_10ExecResultE
libarrow.so.1700:_ZN5arrow7compute8internal10applicator11ScalarUnaryINS_8Int8TypeENS_9Int16TypeENS1_4SignEE4ExecEPNS0_13KernelContextERKNS0_8ExecSpanEPNS0_10ExecResultE
libarrow.so.1700:_ZN5arrow7compute8internal10applicator11ScalarUnaryINS_8Int8TypeENS_9Int32TypeENS1_4SignEE4ExecEPNS0_13KernelContextERKNS0_8ExecSpanEPNS0_10ExecResultE
libarrow.so.1700:_ZN5arrow7compute8internal10applicator11ScalarUnaryINS_8Int8TypeENS_9Int64TypeENS1_4SignEE4ExecEPNS0_13KernelContextERKNS0_8ExecSpanEPNS0_10ExecResultE
libarrow.so.1700:_ZN5arrow7compute8internal10applicator11ScalarUnaryINS_8Int8TypeENS_9UInt8TypeENS1_4SignEE4ExecEPNS0_13KernelContextERKNS0_8ExecSpanEPNS0_10ExecResultE
libarrow.so.1700:_ZN5arrow7compute8internal10applicator11ScalarUnaryINS_8Int8TypeES4_NS1_13AbsoluteValueEE4ExecEPNS0_13KernelContextERKNS0_8ExecSpanEPNS0_10ExecResultE
libarrow.so.1700:_ZN5arrow7compute8internal10applicator11ScalarUnaryINS_8Int8TypeES4_NS1_4SignEE4ExecEPNS0_13KernelContextERKNS0_8ExecSpanEPNS0_10ExecResultE
libarrow.so.1700:_ZN5arrow7compute8internal10applicator11ScalarUnaryINS_8Int8TypeES4_NS1_6NegateEE4ExecEPNS0_13KernelContextERKNS0_8ExecSpanEPNS0_10ExecResultE
libarrow.so.1700:_ZN5arrow7compute8internal10applicator11ScalarUnaryINS_9FloatTypeES4_NS1_10SquareRootEE4ExecEPNS0_13KernelContextERKNS0_8ExecSpanEPNS0_10ExecResultE
libarrow.so.1700:_ZN5arrow7compute8internal10applicator11ScalarUnaryINS_9FloatTypeES4_NS1_13AbsoluteValueEE4ExecEPNS0_13KernelContextERKNS0_8ExecSpanEPNS0_10ExecResultE
libarrow.so.1700:_ZN5arrow7compute8internal10applicator11ScalarUnaryINS_9FloatTypeES4_NS1_3ExpEE4ExecEPNS0_13KernelContextERKNS0_8ExecSpanEPNS0_10ExecResultE
libarrow.so.1700:_ZN5arrow7compute8internal10applicator11ScalarUnaryINS_9FloatTypeES4_NS1_4SignEE4ExecEPNS0_13KernelContextERKNS0_8ExecSpanEPNS0_10ExecResultE
libarrow.so.1700:_ZN5arrow7compute8internal10applicator11ScalarUnaryINS_9FloatTypeES4_NS1_6NegateEE4ExecEPNS0_13KernelContextERKNS0_8ExecSpanEPNS0_10ExecResultE
libarrow.so.1700:_ZN5arrow7compute8internal10applicator11ScalarUnaryINS_9Int16TypeES4_NS1_13AbsoluteValueEE4ExecEPNS0_13KernelContextERKNS0_8ExecSpanEPNS0_10ExecResultE
libarrow.so.1700:_ZN5arrow7compute8internal10applicator11ScalarUnaryINS_9Int16TypeES4_NS1_6NegateEE4ExecEPNS0_13KernelContextERKNS0_8ExecSpanEPNS0_10ExecResultE
libarrow.so.1700:_ZN5arrow7compute8internal10applicator11ScalarUnaryINS_9Int32TypeES4_NS1_13AbsoluteValueEE4ExecEPNS0_13KernelContextERKNS0_8ExecSpanEPNS0_10ExecResultE
libarrow.so.1700:_ZN5arrow7compute8internal10applicator11ScalarUnaryINS_9Int32TypeES4_NS1_6NegateEE4ExecEPNS0_13KernelContextERKNS0_8ExecSpanEPNS0_10ExecResultE
libarrow.so.1700:_ZN5arrow7compute8internal10applicator11ScalarUnaryINS_9Int64TypeENS_14Decimal128TypeENS1_4SignEE4ExecEPNS0_13KernelContextERKNS0_8ExecSpanEPNS0_10ExecResultE
libarrow.so.1700:_ZN5arrow7compute8internal10applicator11ScalarUnaryINS_9Int64TypeENS_14Decimal256TypeENS1_4SignEE4ExecEPNS0_13KernelContextERKNS0_8ExecSpanEPNS0_10ExecResultE
libarrow.so.1700:_ZN5arrow7compute8internal10applicator11ScalarUnaryINS_9Int64TypeES4_NS1_13AbsoluteValueEE4ExecEPNS0_13KernelContextERKNS0_8ExecSpanEPNS0_10ExecResultE
libarrow.so.1700:_ZN5arrow7compute8internal10applicator11ScalarUnaryINS_9Int64TypeES4_NS1_6NegateEE4ExecEPNS0_13KernelContextERKNS0_8ExecSpanEPNS0_10ExecResultE
libarrow.so.1700:_ZN5arrow7compute8internal10applicator11ScalarUnaryINS_9UInt8TypeES4_NS1_13AbsoluteValueEE4ExecEPNS0_13KernelContextERKNS0_8ExecSpanEPNS0_10ExecResultE
libarrow.so.1700:_ZN5arrow7compute8internal10applicator11ScalarUnaryINS_9UInt8TypeES4_NS1_6NegateEE4ExecEPNS0_13KernelContextERKNS0_8ExecSpanEPNS0_10ExecResultE
libarrow.so.1700:_ZN5arrow7compute8internal10applicator12ScalarBinaryINS_10DoubleTypeES4_S4_NS1_10AddCheckedEE4ExecEPNS0_13KernelContextERKNS0_8ExecSpanEPNS0_10ExecResultE
libarrow.so.1700:_ZN5arrow7compute8internal10applicator12ScalarBinaryINS_10DoubleTypeES4_S4_NS1_15MultiplyCheckedEE4ExecEPNS0_13KernelContextERKNS0_8ExecSpanEPNS0_10ExecResultE
libarrow.so.1700:_ZN5arrow7compute8internal10applicator12ScalarBinaryINS_10DoubleTypeES4_S4_NS1_15SubtractCheckedEE4ExecEPNS0_13KernelContextERKNS0_8ExecSpanEPNS0_10ExecResultE
libarrow.so.1700:_ZN5arrow7compute8internal10applicator12ScalarBinaryINS_10DoubleTypeES4_S4_NS1_3AddEE4ExecEPNS0_13KernelContextERKNS0_8ExecSpanEPNS0_10ExecResultE
libarrow.so.1700:_ZN5arrow7compute8internal10applicator12ScalarBinaryINS_10DoubleTypeES4_S4_NS1_5PowerEE4ExecEPNS0_13KernelContextERKNS0_8ExecSpanEPNS0_10ExecResultE
libarrow.so.1700:_ZN5arrow7compute8internal10applicator12ScalarBinaryINS_10DoubleTypeES4_S4_NS1_8MultiplyEE4ExecEPNS0_13KernelContextERKNS0_8ExecSpanEPNS0_10ExecResultE
libarrow.so.1700:_ZN5arrow7compute8internal10applicator12ScalarBinaryINS_10DoubleTypeES4_S4_NS1_8SubtractEE4ExecEPNS0_13KernelContextERKNS0_8ExecSpanEPNS0_10ExecResultE
libarrow.so.1700:_ZN5arrow7compute8internal10applicator12ScalarBinaryINS_10Time32TypeENS_12DurationTypeES4_NS1_15AddTimeDurationILl86400000EEEE4ExecEPNS0_13KernelContextERKNS0_8ExecSpanEPNS0_10ExecResultE
libarrow.so.1700:_ZN5arrow7compute8internal10applicator12ScalarBinaryINS_10Time32TypeENS_12DurationTypeES4_NS1_15AddTimeDurationILl86400EEEE4ExecEPNS0_13KernelContextERKNS0_8ExecSpanEPNS0_10ExecResultE
libarrow.so.1700:_ZN5arrow7compute8internal10applicator12ScalarBinaryINS_10Time32TypeENS_12DurationTypeES4_NS1_22AddTimeDurationCheckedILl86400000EEEE4ExecEPNS0_13KernelContextERKNS0_8ExecSpanEPNS0_10ExecResultE
libarrow.so.1700:_ZN5arrow7compute8internal10applicator12ScalarBinaryINS_10Time32TypeENS_12DurationTypeES4_NS1_22AddTimeDurationCheckedILl86400EEEE4ExecEPNS0_13KernelContextERKNS0_8ExecSpanEPNS0_10ExecResultE
libarrow.so.1700:_ZN5arrow7compute8internal10applicator12ScalarBinaryINS_10Time32TypeES4_NS_12DurationTypeENS1_15AddTimeDurationILl86400000EEEE4ExecEPNS0_13KernelContextERKNS0_8ExecSpanEPNS0_10ExecResultE
libarrow.so.1700:_ZN5arrow7compute8internal10applicator12ScalarBinaryINS_10Time32TypeES4_NS_12DurationTypeENS1_15AddTimeDurationILl86400EEEE4ExecEPNS0_13KernelContextERKNS0_8ExecSpanEPNS0_10ExecResultE
libarrow.so.1700:_ZN5arrow7compute8internal10applicator12ScalarBinaryINS_10Time32TypeES4_NS_12DurationTypeENS1_20SubtractTimeDurationILl86400000EEEE4ExecEPNS0_13KernelContextERKNS0_8ExecSpanEPNS0_10ExecResultE
libarrow.so.1700:_ZN5arrow7compute8internal10applicator12ScalarBinaryINS_10Time32TypeES4_NS_12DurationTypeENS1_20SubtractTimeDurationILl86400EEEE4ExecEPNS0_13KernelContextERKNS0_8ExecSpanEPNS0_10ExecResultE
libarrow.so.1700:_ZN5arrow7compute8internal10applicator12ScalarBinaryINS_10Time32TypeES4_NS_12DurationTypeENS1_22AddTimeDurationCheckedILl86400000EEEE4ExecEPNS0_13KernelContextERKNS0_8ExecSpanEPNS0_10ExecResultE
libarrow.so.1700:_ZN5arrow7compute8internal10applicator12ScalarBinaryINS_10Time32TypeES4_NS_12DurationTypeENS1_22AddTimeDurationCheckedILl86400EEEE4ExecEPNS0_13KernelContextERKNS0_8ExecSpanEPNS0_10ExecResultE
libarrow.so.1700:_ZN5arrow7compute8internal10applicator12ScalarBinaryINS_10Time32TypeES4_NS_12DurationTypeENS1_27SubtractTimeDurationCheckedILl86400000EEEE4ExecEPNS0_13KernelContextERKNS0_8ExecSpanEPNS0_10ExecResultE
libarrow.so.1700:_ZN5arrow7compute8internal10applicator12ScalarBinaryINS_10Time32TypeES4_NS_12DurationTypeENS1_27SubtractTimeDurationCheckedILl86400EEEE4ExecEPNS0_13KernelContextERKNS0_8ExecSpanEPNS0_10ExecResultE
libarrow.so.1700:_ZN5arrow7compute8internal10applicator12ScalarBinaryINS_10Time64TypeENS_12DurationTypeES4_NS1_15AddTimeDurationILl86400000000000EEEE4ExecEPNS0_13KernelContextERKNS0_8ExecSpanEPNS0_10ExecResultE
libarrow.so.1700:_ZN5arrow7compute8internal10applicator12ScalarBinaryINS_10Time64TypeENS_12DurationTypeES4_NS1_15AddTimeDurationILl86400000000EEEE4ExecEPNS0_13KernelContextERKNS0_8ExecSpanEPNS0_10ExecResultE
libarrow.so.1700:_ZN5arrow7compute8internal10applicator12ScalarBinaryINS_10Time64TypeENS_12DurationTypeES4_NS1_22AddTimeDurationCheckedILl86400000000000EEEE4ExecEPNS0_13KernelContextERKNS0_8ExecSpanEPNS0_10ExecResultE
libarrow.so.1700:_ZN5arrow7compute8internal10applicator12ScalarBinaryINS_10Time64TypeENS_12DurationTypeES4_NS1_22AddTimeDurationCheckedILl86400000000EEEE4ExecEPNS0_13KernelContextERKNS0_8ExecSpanEPNS0_10ExecResultE
libarrow.so.1700:_ZN5arrow7compute8internal10applicator12ScalarBinaryINS_10Time64TypeES4_NS_12DurationTypeENS1_15AddTimeDurationILl86400000000000EEEE4ExecEPNS0_13KernelContextERKNS0_8ExecSpanEPNS0_10ExecResultE
libarrow.so.1700:_ZN5arrow7compute8internal10applicator12ScalarBinaryINS_10Time64TypeES4_NS_12DurationTypeENS1_15AddTimeDurationILl86400000000EEEE4ExecEPNS0_13KernelContextERKNS0_8ExecSpanEPNS0_10ExecResultE
libarrow.so.1700:_ZN5arrow7compute8internal10applicator12ScalarBinaryINS_10Time64TypeES4_NS_12DurationTypeENS1_20SubtractTimeDurationILl86400000000000EEEE4ExecEPNS0_13KernelContextERKNS0_8ExecSpanEPNS0_10ExecResultE
libarrow.so.1700:_ZN5arrow7compute8internal10applicator12ScalarBinaryINS_10Time64TypeES4_NS_12DurationTypeENS1_20SubtractTimeDurationILl86400000000EEEE4ExecEPNS0_13KernelContextERKNS0_8ExecSpanEPNS0_10ExecResultE
libarrow.so.1700:_ZN5arrow7compute8internal10applicator12ScalarBinaryINS_10Time64TypeES4_NS_12DurationTypeENS1_22AddTimeDurationCheckedILl86400000000000EEEE4ExecEPNS0_13KernelContextERKNS0_8ExecSpanEPNS0_10ExecResultE
libarrow.so.1700:_ZN5arrow7compute8internal10applicator12ScalarBinaryINS_10Time64TypeES4_NS_12DurationTypeENS1_22AddTimeDurationCheckedILl86400000000EEEE4ExecEPNS0_13KernelContextERKNS0_8ExecSpanEPNS0_10ExecResultE
libarrow.so.1700:_ZN5arrow7compute8internal10applicator12ScalarBinaryINS_10Time64TypeES4_NS_12DurationTypeENS1_27SubtractTimeDurationCheckedILl86400000000000EEEE4ExecEPNS0_13KernelContextERKNS0_8ExecSpanEPNS0_10ExecResultE
libarrow.so.1700:_ZN5arrow7compute8internal10applicator12ScalarBinaryINS_10Time64TypeES4_NS_12DurationTypeENS1_27SubtractTimeDurationCheckedILl86400000000EEEE4ExecEPNS0_13KernelContextERKNS0_8ExecSpanEPNS0_10ExecResultE
libarrow.so.1700:_ZN5arrow7compute8internal10applicator12ScalarBinaryINS_10UInt16TypeES4_S4_NS1_10AddCheckedEE4ExecEPNS0_13KernelContextERKNS0_8ExecSpanEPNS0_10ExecResultE
libarrow.so.1700:_ZN5arrow7compute8internal10applicator12ScalarBinaryINS_10UInt16TypeES4_S4_NS1_15MultiplyCheckedEE4ExecEPNS0_13KernelContextERKNS0_8ExecSpanEPNS0_10ExecResultE
libarrow.so.1700:_ZN5arrow7compute8internal10applicator12ScalarBinaryINS_10UInt16TypeES4_S4_NS1_15SubtractCheckedEE4ExecEPNS0_13KernelContextERKNS0_8ExecSpanEPNS0_10ExecResultE
libarrow.so.1700:_ZN5arrow7compute8internal10applicator12ScalarBinaryINS_10UInt16TypeES4_S4_NS1_3AddEE4ExecEPNS0_13KernelContextERKNS0_8ExecSpanEPNS0_10ExecResultE
libarrow.so.1700:_ZN5arrow7compute8internal10applicator12ScalarBinaryINS_10UInt16TypeES4_S4_NS1_5PowerEE4ExecEPNS0_13KernelContextERKNS0_8ExecSpanEPNS0_10ExecResultE
libarrow.so.1700:_ZN5arrow7compute8internal10applicator12ScalarBinaryINS_10UInt16TypeES4_S4_NS1_8MultiplyEE4ExecEPNS0_13KernelContextERKNS0_8ExecSpanEPNS0_10ExecResultE
libarrow.so.1700:_ZN5arrow7compute8internal10applicator12ScalarBinaryINS_10UInt16TypeES4_S4_NS1_8SubtractEE4ExecEPNS0_13KernelContextERKNS0_8ExecSpanEPNS0_10ExecResultE
libarrow.so.1700:_ZN5arrow7compute8internal10applicator12ScalarBinaryINS_10UInt32TypeES4_S4_NS1_10AddCheckedEE4ExecEPNS0_13KernelContextERKNS0_8ExecSpanEPNS0_10ExecResultE
libarrow.so.1700:_ZN5arrow7compute8internal10applicator12ScalarBinaryINS_10UInt32TypeES4_S4_NS1_15MultiplyCheckedEE4ExecEPNS0_13KernelContextERKNS0_8ExecSpanEPNS0_10ExecResultE
libarrow.so.1700:_ZN5arrow7compute8internal10applicator12ScalarBinaryINS_10UInt32TypeES4_S4_NS1_15SubtractCheckedEE4ExecEPNS0_13KernelContextERKNS0_8ExecSpanEPNS0_10ExecResultE
libarrow.so.1700:_ZN5arrow7compute8internal10applicator12ScalarBinaryINS_10UInt32TypeES4_S4_NS1_3AddEE4ExecEPNS0_13KernelContextERKNS0_8ExecSpanEPNS0_10ExecResultE
libarrow.so.1700:_ZN5arrow7compute8internal10applicator12ScalarBinaryINS_10UInt32TypeES4_S4_NS1_5PowerEE4ExecEPNS0_13KernelContextERKNS0_8ExecSpanEPNS0_10ExecResultE
libarrow.so.1700:_ZN5arrow7compute8internal10applicator12ScalarBinaryINS_10UInt32TypeES4_S4_NS1_8MultiplyEE4ExecEPNS0_13KernelContextERKNS0_8ExecSpanEPNS0_10ExecResultE
libarrow.so.1700:_ZN5arrow7compute8internal10applicator12ScalarBinaryINS_10UInt32TypeES4_S4_NS1_8SubtractEE4ExecEPNS0_13KernelContextERKNS0_8ExecSpanEPNS0_10ExecResultE
libarrow.so.1700:_ZN5arrow7compute8internal10applicator12ScalarBinaryINS_10UInt64TypeES4_S4_NS1_10AddCheckedEE4ExecEPNS0_13KernelContextERKNS0_8ExecSpanEPNS0_10ExecResultE
libarrow.so.1700:_ZN5arrow7compute8internal10applicator12ScalarBinaryINS_10UInt64TypeES4_S4_NS1_15MultiplyCheckedEE4ExecEPNS0_13KernelContextERKNS0_8ExecSpanEPNS0_10ExecResultE
libarrow.so.1700:_ZN5arrow7compute8internal10applicator12ScalarBinaryINS_10UInt64TypeES4_S4_NS1_15SubtractCheckedEE4ExecEPNS0_13KernelContextERKNS0_8ExecSpanEPNS0_10ExecResultE
libarrow.so.1700:_ZN5arrow7compute8internal10applicator12ScalarBinaryINS_10UInt64TypeES4_S4_NS1_3AddEE4ExecEPNS0_13KernelContextERKNS0_8ExecSpanEPNS0_10ExecResultE
libarrow.so.1700:_ZN5arrow7compute8internal10applicator12ScalarBinaryINS_10UInt64TypeES4_S4_NS1_5PowerEE4ExecEPNS0_13KernelContextERKNS0_8ExecSpanEPNS0_10ExecResultE
libarrow.so.1700:_ZN5arrow7compute8internal10applicator12ScalarBinaryINS_10UInt64TypeES4_S4_NS1_8MultiplyEE4ExecEPNS0_13KernelContextERKNS0_8ExecSpanEPNS0_10ExecResultE
libarrow.so.1700:_ZN5arrow7compute8internal10applicator12ScalarBinaryINS_10UInt64TypeES4_S4_NS1_8SubtractEE4ExecEPNS0_13KernelContextERKNS0_8ExecSpanEPNS0_10ExecResultE
libarrow.so.1700:_ZN5arrow7compute8internal10applicator12ScalarBinaryINS_8Int8TypeES4_S4_NS1_10AddCheckedEE4ExecEPNS0_13KernelContextERKNS0_8ExecSpanEPNS0_10ExecResultE
libarrow.so.1700:_ZN5arrow7compute8internal10applicator12ScalarBinaryINS_8Int8TypeES4_S4_NS1_15MultiplyCheckedEE4ExecEPNS0_13KernelContextERKNS0_8ExecSpanEPNS0_10ExecResultE
libarrow.so.1700:_ZN5arrow7compute8internal10applicator12ScalarBinaryINS_8Int8TypeES4_S4_NS1_15SubtractCheckedEE4ExecEPNS0_13KernelContextERKNS0_8ExecSpanEPNS0_10ExecResultE
libarrow.so.1700:_ZN5arrow7compute8internal10applicator12ScalarBinaryINS_8Int8TypeES4_S4_NS1_3AddEE4ExecEPNS0_13KernelContextERKNS0_8ExecSpanEPNS0_10ExecResultE
libarrow.so.1700:_ZN5arrow7compute8internal10applicator12ScalarBinaryINS_8Int8TypeES4_S4_NS1_5PowerEE4ExecEPNS0_13KernelContextERKNS0_8ExecSpanEPNS0_10ExecResultE
libarrow.so.1700:_ZN5arrow7compute8internal10applicator12ScalarBinaryINS_8Int8TypeES4_S4_NS1_8MultiplyEE4ExecEPNS0_13KernelContextERKNS0_8ExecSpanEPNS0_10ExecResultE
libarrow.so.1700:_ZN5arrow7compute8internal10applicator12ScalarBinaryINS_8Int8TypeES4_S4_NS1_8SubtractEE4ExecEPNS0_13KernelContextERKNS0_8ExecSpanEPNS0_10ExecResultE
libarrow.so.1700:_ZN5arrow7compute8internal10applicator12ScalarBinaryINS_9FloatTypeES4_S4_NS1_10AddCheckedEE4ExecEPNS0_13KernelContextERKNS0_8ExecSpanEPNS0_10ExecResultE
libarrow.so.1700:_ZN5arrow7compute8internal10applicator12ScalarBinaryINS_9FloatTypeES4_S4_NS1_15MultiplyCheckedEE4ExecEPNS0_13KernelContextERKNS0_8ExecSpanEPNS0_10ExecResultE
libarrow.so.1700:_ZN5arrow7compute8internal10applicator12ScalarBinaryINS_9FloatTypeES4_S4_NS1_15SubtractCheckedEE4ExecEPNS0_13KernelContextERKNS0_8ExecSpanEPNS0_10ExecResultE
libarrow.so.1700:_ZN5arrow7compute8internal10applicator12ScalarBinaryINS_9FloatTypeES4_S4_NS1_3AddEE4ExecEPNS0_13KernelContextERKNS0_8ExecSpanEPNS0_10ExecResultE
libarrow.so.1700:_ZN5arrow7compute8internal10applicator12ScalarBinaryINS_9FloatTypeES4_S4_NS1_5PowerEE4ExecEPNS0_13KernelContextERKNS0_8ExecSpanEPNS0_10ExecResultE
libarrow.so.1700:_ZN5arrow7compute8internal10applicator12ScalarBinaryINS_9FloatTypeES4_S4_NS1_8MultiplyEE4ExecEPNS0_13KernelContextERKNS0_8ExecSpanEPNS0_10ExecResultE
libarrow.so.1700:_ZN5arrow7compute8internal10applicator12ScalarBinaryINS_9FloatTypeES4_S4_NS1_8SubtractEE4ExecEPNS0_13KernelContextERKNS0_8ExecSpanEPNS0_10ExecResultE
libarrow.so.1700:_ZN5arrow7compute8internal10applicator12ScalarBinaryINS_9Int16TypeES4_S4_NS1_10AddCheckedEE4ExecEPNS0_13KernelContextERKNS0_8ExecSpanEPNS0_10ExecResultE
libarrow.so.1700:_ZN5arrow7compute8internal10applicator12ScalarBinaryINS_9Int16TypeES4_S4_NS1_15MultiplyCheckedEE4ExecEPNS0_13KernelContextERKNS0_8ExecSpanEPNS0_10ExecResultE
libarrow.so.1700:_ZN5arrow7compute8internal10applicator12ScalarBinaryINS_9Int16TypeES4_S4_NS1_15SubtractCheckedEE4ExecEPNS0_13KernelContextERKNS0_8ExecSpanEPNS0_10ExecResultE
libarrow.so.1700:_ZN5arrow7compute8internal10applicator12ScalarBinaryINS_9Int16TypeES4_S4_NS1_3AddEE4ExecEPNS0_13KernelContextERKNS0_8ExecSpanEPNS0_10ExecResultE
libarrow.so.1700:_ZN5arrow7compute8internal10applicator12ScalarBinaryINS_9Int16TypeES4_S4_NS1_5PowerEE4ExecEPNS0_13KernelContextERKNS0_8ExecSpanEPNS0_10ExecResultE
libarrow.so.1700:_ZN5arrow7compute8internal10applicator12ScalarBinaryINS_9Int16TypeES4_S4_NS1_8MultiplyEE4ExecEPNS0_13KernelContextERKNS0_8ExecSpanEPNS0_10ExecResultE
libarrow.so.1700:_ZN5arrow7compute8internal10applicator12ScalarBinaryINS_9Int16TypeES4_S4_NS1_8SubtractEE4ExecEPNS0_13KernelContextERKNS0_8ExecSpanEPNS0_10ExecResultE
libarrow.so.1700:_ZN5arrow7compute8internal10applicator12ScalarBinaryINS_9Int32TypeES4_S4_NS1_10AddCheckedEE4ExecEPNS0_13KernelContextERKNS0_8ExecSpanEPNS0_10ExecResultE
libarrow.so.1700:_ZN5arrow7compute8internal10applicator12ScalarBinaryINS_9Int32TypeES4_S4_NS1_15MultiplyCheckedEE4ExecEPNS0_13KernelContextERKNS0_8ExecSpanEPNS0_10ExecResultE
libarrow.so.1700:_ZN5arrow7compute8internal10applicator12ScalarBinaryINS_9Int32TypeES4_S4_NS1_15SubtractCheckedEE4ExecEPNS0_13KernelContextERKNS0_8ExecSpanEPNS0_10ExecResultE
libarrow.so.1700:_ZN5arrow7compute8internal10applicator12ScalarBinaryINS_9Int32TypeES4_S4_NS1_3AddEE4ExecEPNS0_13KernelContextERKNS0_8ExecSpanEPNS0_10ExecResultE
libarrow.so.1700:_ZN5arrow7compute8internal10applicator12ScalarBinaryINS_9Int32TypeES4_S4_NS1_5PowerEE4ExecEPNS0_13KernelContextERKNS0_8ExecSpanEPNS0_10ExecResultE
libarrow.so.1700:_ZN5arrow7compute8internal10applicator12ScalarBinaryINS_9Int32TypeES4_S4_NS1_8MultiplyEE4ExecEPNS0_13KernelContextERKNS0_8ExecSpanEPNS0_10ExecResultE
libarrow.so.1700:_ZN5arrow7compute8internal10applicator12ScalarBinaryINS_9Int32TypeES4_S4_NS1_8SubtractEE4ExecEPNS0_13KernelContextERKNS0_8ExecSpanEPNS0_10ExecResultE
libarrow.so.1700:_ZN5arrow7compute8internal10applicator12ScalarBinaryINS_9Int64TypeENS_9Int32TypeES5_NS1_14SubtractDate32EE4ExecEPNS0_13KernelContextERKNS0_8ExecSpanEPNS0_10ExecResultE
libarrow.so.1700:_ZN5arrow7compute8internal10applicator12ScalarBinaryINS_9Int64TypeENS_9Int32TypeES5_NS1_15SubtractCheckedEE4ExecEPNS0_13KernelContextERKNS0_8ExecSpanEPNS0_10ExecResultE
libarrow.so.1700:_ZN5arrow7compute8internal10applicator12ScalarBinaryINS_9Int64TypeENS_9Int32TypeES5_NS1_21SubtractCheckedDate32EE4ExecEPNS0_13KernelContextERKNS0_8ExecSpanEPNS0_10ExecResultE
libarrow.so.1700:_ZN5arrow7compute8internal10applicator12ScalarBinaryINS_9Int64TypeENS_9Int32TypeES5_NS1_8SubtractEE4ExecEPNS0_13KernelContextERKNS0_8ExecSpanEPNS0_10ExecResultE
libarrow.so.1700:_ZN5arrow7compute8internal10applicator12ScalarBinaryINS_9Int64TypeES4_S4_NS1_10AddCheckedEE4ExecEPNS0_13KernelContextERKNS0_8ExecSpanEPNS0_10ExecResultE
libarrow.so.1700:_ZN5arrow7compute8internal10applicator12ScalarBinaryINS_9Int64TypeES4_S4_NS1_15MultiplyCheckedEE4ExecEPNS0_13KernelContextERKNS0_8ExecSpanEPNS0_10ExecResultE
libarrow.so.1700:_ZN5arrow7compute8internal10applicator12ScalarBinaryINS_9Int64TypeES4_S4_NS1_15SubtractCheckedEE4ExecEPNS0_13KernelContextERKNS0_8ExecSpanEPNS0_10ExecResultE
libarrow.so.1700:_ZN5arrow7compute8internal10applicator12ScalarBinaryINS_9Int64TypeES4_S4_NS1_3AddEE4ExecEPNS0_13KernelContextERKNS0_8ExecSpanEPNS0_10ExecResultE
libarrow.so.1700:_ZN5arrow7compute8internal10applicator12ScalarBinaryINS_9Int64TypeES4_S4_NS1_5PowerEE4ExecEPNS0_13KernelContextERKNS0_8ExecSpanEPNS0_10ExecResultE
libarrow.so.1700:_ZN5arrow7compute8internal10applicator12ScalarBinaryINS_9Int64TypeES4_S4_NS1_8MultiplyEE4ExecEPNS0_13KernelContextERKNS0_8ExecSpanEPNS0_10ExecResultE
libarrow.so.1700:_ZN5arrow7compute8internal10applicator12ScalarBinaryINS_9Int64TypeES4_S4_NS1_8SubtractEE4ExecEPNS0_13KernelContextERKNS0_8ExecSpanEPNS0_10ExecResultE
libarrow.so.1700:_ZN5arrow7compute8internal10applicator12ScalarBinaryINS_9UInt8TypeES4_S4_NS1_10AddCheckedEE4ExecEPNS0_13KernelContextERKNS0_8ExecSpanEPNS0_10ExecResultE
libarrow.so.1700:_ZN5arrow7compute8internal10applicator12ScalarBinaryINS_9UInt8TypeES4_S4_NS1_15MultiplyCheckedEE4ExecEPNS0_13KernelContextERKNS0_8ExecSpanEPNS0_10ExecResultE
libarrow.so.1700:_ZN5arrow7compute8internal10applicator12ScalarBinaryINS_9UInt8TypeES4_S4_NS1_15SubtractCheckedEE4ExecEPNS0_13KernelContextERKNS0_8ExecSpanEPNS0_10ExecResultE
libarrow.so.1700:_ZN5arrow7compute8internal10applicator12ScalarBinaryINS_9UInt8TypeES4_S4_NS1_3AddEE4ExecEPNS0_13KernelContextERKNS0_8ExecSpanEPNS0_10ExecResultE
libarrow.so.1700:_ZN5arrow7compute8internal10applicator12ScalarBinaryINS_9UInt8TypeES4_S4_NS1_5PowerEE4ExecEPNS0_13KernelContextERKNS0_8ExecSpanEPNS0_10ExecResultE
libarrow.so.1700:_ZN5arrow7compute8internal10applicator12ScalarBinaryINS_9UInt8TypeES4_S4_NS1_8MultiplyEE4ExecEPNS0_13KernelContextERKNS0_8ExecSpanEPNS0_10ExecResultE
libarrow.so.1700:_ZN5arrow7compute8internal10applicator12ScalarBinaryINS_9UInt8TypeES4_S4_NS1_8SubtractEE4ExecEPNS0_13KernelContextERKNS0_8ExecSpanEPNS0_10ExecResultE
libarrow.so.1700:_ZN5arrow7compute8internal10applicator18ScalarUnaryNotNullINS_10DoubleTypeES4_NS1_13NegateCheckedEE4ExecEPNS0_13KernelContextERKNS0_8ExecSpanEPNS0_10ExecResultE
libarrow.so.1700:_ZN5arrow7compute8internal10applicator18ScalarUnaryNotNullINS_10DoubleTypeES4_NS1_17SquareRootCheckedEE4ExecEPNS0_13KernelContextERKNS0_8ExecSpanEPNS0_10ExecResultE
libarrow.so.1700:_ZN5arrow7compute8internal10applicator18ScalarUnaryNotNullINS_10DoubleTypeES4_NS1_20AbsoluteValueCheckedEE4ExecEPNS0_13KernelContextERKNS0_8ExecSpanEPNS0_10ExecResultE
libarrow.so.1700:_ZN5arrow7compute8internal10applicator18ScalarUnaryNotNullINS_10DoubleTypeES4_NS1_6NegateEE4ExecEPNS0_13KernelContextERKNS0_8ExecSpanEPNS0_10ExecResultE
libarrow.so.1700:_ZN5arrow7compute8internal10applicator18ScalarUnaryNotNullINS_10UInt16TypeES4_NS1_13NegateCheckedEE4ExecEPNS0_13KernelContextERKNS0_8ExecSpanEPNS0_10ExecResultE
libarrow.so.1700:_ZN5arrow7compute8internal10applicator18ScalarUnaryNotNullINS_10UInt16TypeES4_NS1_20AbsoluteValueCheckedEE4ExecEPNS0_13KernelContextERKNS0_8ExecSpanEPNS0_10ExecResultE
libarrow.so.1700:_ZN5arrow7compute8internal10applicator18ScalarUnaryNotNullINS_10UInt16TypeES4_NS1_6NegateEE4ExecEPNS0_13KernelContextERKNS0_8ExecSpanEPNS0_10ExecResultE
libarrow.so.1700:_ZN5arrow7compute8internal10applicator18ScalarUnaryNotNullINS_10UInt32TypeES4_NS1_13NegateCheckedEE4ExecEPNS0_13KernelContextERKNS0_8ExecSpanEPNS0_10ExecResultE
libarrow.so.1700:_ZN5arrow7compute8internal10applicator18ScalarUnaryNotNullINS_10UInt32TypeES4_NS1_20AbsoluteValueCheckedEE4ExecEPNS0_13KernelContextERKNS0_8ExecSpanEPNS0_10ExecResultE
libarrow.so.1700:_ZN5arrow7compute8internal10applicator18ScalarUnaryNotNullINS_10UInt32TypeES4_NS1_6NegateEE4ExecEPNS0_13KernelContextERKNS0_8ExecSpanEPNS0_10ExecResultE
libarrow.so.1700:_ZN5arrow7compute8internal10applicator18ScalarUnaryNotNullINS_10UInt64TypeES4_NS1_13NegateCheckedEE4ExecEPNS0_13KernelContextERKNS0_8ExecSpanEPNS0_10ExecResultE
libarrow.so.1700:_ZN5arrow7compute8internal10applicator18ScalarUnaryNotNullINS_10UInt64TypeES4_NS1_20AbsoluteValueCheckedEE4ExecEPNS0_13KernelContextERKNS0_8ExecSpanEPNS0_10ExecResultE
libarrow.so.1700:_ZN5arrow7compute8internal10applicator18ScalarUnaryNotNullINS_10UInt64TypeES4_NS1_6NegateEE4ExecEPNS0_13KernelContextERKNS0_8ExecSpanEPNS0_10ExecResultE
libarrow.so.1700:_ZN5arrow7compute8internal10applicator18ScalarUnaryNotNullINS_11BooleanTypeENS_10BinaryTypeENS1_18ParseBooleanStringEE4ExecEPNS0_13KernelContextERKNS0_8ExecSpanEPNS0_10ExecResultE
libarrow.so.1700:_ZN5arrow7compute8internal10applicator18ScalarUnaryNotNullINS_11BooleanTypeENS_15LargeBinaryTypeENS1_18ParseBooleanStringEE4ExecEPNS0_13KernelContextERKNS0_8ExecSpanEPNS0_10ExecResultE
libarrow.so.1700:_ZN5arrow7compute8internal10applicator18ScalarUnaryNotNullINS_14Decimal128TypeES4_NS1_13AbsoluteValueEE4ExecEPNS0_13KernelContextERKNS0_8ExecSpanEPNS0_10ExecResultE
libarrow.so.1700:_ZN5arrow7compute8internal10applicator18ScalarUnaryNotNullINS_14Decimal128TypeES4_NS1_13NegateCheckedEE4ExecEPNS0_13KernelContextERKNS0_8ExecSpanEPNS0_10ExecResultE
libarrow.so.1700:_ZN5arrow7compute8internal10applicator18ScalarUnaryNotNullINS_14Decimal128TypeES4_NS1_20AbsoluteValueCheckedEE4ExecEPNS0_13KernelContextERKNS0_8ExecSpanEPNS0_10ExecResultE
libarrow.so.1700:_ZN5arrow7compute8internal10applicator18ScalarUnaryNotNullINS_14Decimal128TypeES4_NS1_6NegateEE4ExecEPNS0_13KernelContextERKNS0_8ExecSpanEPNS0_10ExecResultE
libarrow.so.1700:_ZN5arrow7compute8internal10applicator18ScalarUnaryNotNullINS_14Decimal256TypeES4_NS1_13AbsoluteValueEE4ExecEPNS0_13KernelContextERKNS0_8ExecSpanEPNS0_10ExecResultE
libarrow.so.1700:_ZN5arrow7compute8internal10applicator18ScalarUnaryNotNullINS_14Decimal256TypeES4_NS1_13NegateCheckedEE4ExecEPNS0_13KernelContextERKNS0_8ExecSpanEPNS0_10ExecResultE
libarrow.so.1700:_ZN5arrow7compute8internal10applicator18ScalarUnaryNotNullINS_14Decimal256TypeES4_NS1_20AbsoluteValueCheckedEE4ExecEPNS0_13KernelContextERKNS0_8ExecSpanEPNS0_10ExecResultE
libarrow.so.1700:_ZN5arrow7compute8internal10applicator18ScalarUnaryNotNullINS_14Decimal256TypeES4_NS1_6NegateEE4ExecEPNS0_13KernelContextERKNS0_8ExecSpanEPNS0_10ExecResultE
libarrow.so.1700:_ZN5arrow7compute8internal10applicator18ScalarUnaryNotNullINS_8Int8TypeES4_NS1_13NegateCheckedEE4ExecEPNS0_13KernelContextERKNS0_8ExecSpanEPNS0_10ExecResultE
libarrow.so.1700:_ZN5arrow7compute8internal10applicator18ScalarUnaryNotNullINS_8Int8TypeES4_NS1_20AbsoluteValueCheckedEE4ExecEPNS0_13KernelContextERKNS0_8ExecSpanEPNS0_10ExecResultE
libarrow.so.1700:_ZN5arrow7compute8internal10applicator18ScalarUnaryNotNullINS_8Int8TypeES4_NS1_6NegateEE4ExecEPNS0_13KernelContextERKNS0_8ExecSpanEPNS0_10ExecResultE
libarrow.so.1700:_ZN5arrow7compute8internal10applicator18ScalarUnaryNotNullINS_9FloatTypeES4_NS1_13NegateCheckedEE4ExecEPNS0_13KernelContextERKNS0_8ExecSpanEPNS0_10ExecResultE
libarrow.so.1700:_ZN5arrow7compute8internal10applicator18ScalarUnaryNotNullINS_9FloatTypeES4_NS1_17SquareRootCheckedEE4ExecEPNS0_13KernelContextERKNS0_8ExecSpanEPNS0_10ExecResultE
libarrow.so.1700:_ZN5arrow7compute8internal10applicator18ScalarUnaryNotNullINS_9FloatTypeES4_NS1_20AbsoluteValueCheckedEE4ExecEPNS0_13KernelContextERKNS0_8ExecSpanEPNS0_10ExecResultE
libarrow.so.1700:_ZN5arrow7compute8internal10applicator18ScalarUnaryNotNullINS_9FloatTypeES4_NS1_6NegateEE4ExecEPNS0_13KernelContextERKNS0_8ExecSpanEPNS0_10ExecResultE
libarrow.so.1700:_ZN5arrow7compute8internal10applicator18ScalarUnaryNotNullINS_9Int16TypeES4_NS1_13NegateCheckedEE4ExecEPNS0_13KernelContextERKNS0_8ExecSpanEPNS0_10ExecResultE
libarrow.so.1700:_ZN5arrow7compute8internal10applicator18ScalarUnaryNotNullINS_9Int16TypeES4_NS1_20AbsoluteValueCheckedEE4ExecEPNS0_13KernelContextERKNS0_8ExecSpanEPNS0_10ExecResultE
libarrow.so.1700:_ZN5arrow7compute8internal10applicator18ScalarUnaryNotNullINS_9Int16TypeES4_NS1_6NegateEE4ExecEPNS0_13KernelContextERKNS0_8ExecSpanEPNS0_10ExecResultE
libarrow.so.1700:_ZN5arrow7compute8internal10applicator18ScalarUnaryNotNullINS_9Int32TypeES4_NS1_13NegateCheckedEE4ExecEPNS0_13KernelContextERKNS0_8ExecSpanEPNS0_10ExecResultE
libarrow.so.1700:_ZN5arrow7compute8internal10applicator18ScalarUnaryNotNullINS_9Int32TypeES4_NS1_20AbsoluteValueCheckedEE4ExecEPNS0_13KernelContextERKNS0_8ExecSpanEPNS0_10ExecResultE
libarrow.so.1700:_ZN5arrow7compute8internal10applicator18ScalarUnaryNotNullINS_9Int32TypeES4_NS1_6NegateEE4ExecEPNS0_13KernelContextERKNS0_8ExecSpanEPNS0_10ExecResultE
libarrow.so.1700:_ZN5arrow7compute8internal10applicator18ScalarUnaryNotNullINS_9Int64TypeES4_NS1_13NegateCheckedEE4ExecEPNS0_13KernelContextERKNS0_8ExecSpanEPNS0_10ExecResultE
libarrow.so.1700:_ZN5arrow7compute8internal10applicator18ScalarUnaryNotNullINS_9Int64TypeES4_NS1_20AbsoluteValueCheckedEE4ExecEPNS0_13KernelContextERKNS0_8ExecSpanEPNS0_10ExecResultE
libarrow.so.1700:_ZN5arrow7compute8internal10applicator18ScalarUnaryNotNullINS_9Int64TypeES4_NS1_6NegateEE4ExecEPNS0_13KernelContextERKNS0_8ExecSpanEPNS0_10ExecResultE
libarrow.so.1700:_ZN5arrow7compute8internal10applicator18ScalarUnaryNotNullINS_9UInt8TypeES4_NS1_13NegateCheckedEE4ExecEPNS0_13KernelContextERKNS0_8ExecSpanEPNS0_10ExecResultE
libarrow.so.1700:_ZN5arrow7compute8internal10applicator18ScalarUnaryNotNullINS_9UInt8TypeES4_NS1_20AbsoluteValueCheckedEE4ExecEPNS0_13KernelContextERKNS0_8ExecSpanEPNS0_10ExecResultE
libarrow.so.1700:_ZN5arrow7compute8internal10applicator18ScalarUnaryNotNullINS_9UInt8TypeES4_NS1_6NegateEE4ExecEPNS0_13KernelContextERKNS0_8ExecSpanEPNS0_10ExecResultE
libarrow.so.1700:_ZN5arrow7compute8internal10applicator19ScalarBinaryNotNullINS_10DoubleTypeENS_9Int64TypeES5_NS1_14FloatingDivideEE4ExecEPNS0_13KernelContextERKNS0_8ExecSpanEPNS0_10ExecResultE
libarrow.so.1700:_ZN5arrow7compute8internal10applicator19ScalarBinaryNotNullINS_10DoubleTypeENS_9Int64TypeES5_NS1_21FloatingDivideCheckedEE4ExecEPNS0_13KernelContextERKNS0_8ExecSpanEPNS0_10ExecResultE
libarrow.so.1700:_ZN5arrow7compute8internal10applicator19ScalarBinaryNotNullINS_10DoubleTypeES4_S4_NS1_10AddCheckedEE4ExecEPNS0_13KernelContextERKNS0_8ExecSpanEPNS0_10ExecResultE
libarrow.so.1700:_ZN5arrow7compute8internal10applicator19ScalarBinaryNotNullINS_10DoubleTypeES4_S4_NS1_12PowerCheckedEE4ExecEPNS0_13KernelContextERKNS0_8ExecSpanEPNS0_10ExecResultE
libarrow.so.1700:_ZN5arrow7compute8internal10applicator19ScalarBinaryNotNullINS_10DoubleTypeES4_S4_NS1_13DivideCheckedEE4ExecEPNS0_13KernelContextERKNS0_8ExecSpanEPNS0_10ExecResultE
libarrow.so.1700:_ZN5arrow7compute8internal10applicator19ScalarBinaryNotNullINS_10DoubleTypeES4_S4_NS1_15MultiplyCheckedEE4ExecEPNS0_13KernelContextERKNS0_8ExecSpanEPNS0_10ExecResultE
libarrow.so.1700:_ZN5arrow7compute8internal10applicator19ScalarBinaryNotNullINS_10DoubleTypeES4_S4_NS1_15SubtractCheckedEE4ExecEPNS0_13KernelContextERKNS0_8ExecSpanEPNS0_10ExecResultE
libarrow.so.1700:_ZN5arrow7compute8internal10applicator19ScalarBinaryNotNullINS_10DoubleTypeES4_S4_NS1_6DivideEE4ExecEPNS0_13KernelContextERKNS0_8ExecSpanEPNS0_10ExecResultE
libarrow.so.1700:_ZN5arrow7compute8internal10applicator19ScalarBinaryNotNullINS_10UInt16TypeES4_S4_NS1_10AddCheckedEE4ExecEPNS0_13KernelContextERKNS0_8ExecSpanEPNS0_10ExecResultE
libarrow.so.1700:_ZN5arrow7compute8internal10applicator19ScalarBinaryNotNullINS_10UInt16TypeES4_S4_NS1_12PowerCheckedEE4ExecEPNS0_13KernelContextERKNS0_8ExecSpanEPNS0_10ExecResultE
libarrow.so.1700:_ZN5arrow7compute8internal10applicator19ScalarBinaryNotNullINS_10UInt16TypeES4_S4_NS1_13DivideCheckedEE4ExecEPNS0_13KernelContextERKNS0_8ExecSpanEPNS0_10ExecResultE
libarrow.so.1700:_ZN5arrow7compute8internal10applicator19ScalarBinaryNotNullINS_10UInt16TypeES4_S4_NS1_15MultiplyCheckedEE4ExecEPNS0_13KernelContextERKNS0_8ExecSpanEPNS0_10ExecResultE
libarrow.so.1700:_ZN5arrow7compute8internal10applicator19ScalarBinaryNotNullINS_10UInt16TypeES4_S4_NS1_15SubtractCheckedEE4ExecEPNS0_13KernelContextERKNS0_8ExecSpanEPNS0_10ExecResultE
libarrow.so.1700:_ZN5arrow7compute8internal10applicator19ScalarBinaryNotNullINS_10UInt16TypeES4_S4_NS1_6DivideEE4ExecEPNS0_13KernelContextERKNS0_8ExecSpanEPNS0_10ExecResultE
libarrow.so.1700:_ZN5arrow7compute8internal10applicator19ScalarBinaryNotNullINS_10UInt32TypeES4_S4_NS1_10AddCheckedEE4ExecEPNS0_13KernelContextERKNS0_8ExecSpanEPNS0_10ExecResultE
libarrow.so.1700:_ZN5arrow7compute8internal10applicator19ScalarBinaryNotNullINS_10UInt32TypeES4_S4_NS1_12PowerCheckedEE4ExecEPNS0_13KernelContextERKNS0_8ExecSpanEPNS0_10ExecResultE
libarrow.so.1700:_ZN5arrow7compute8internal10applicator19ScalarBinaryNotNullINS_10UInt32TypeES4_S4_NS1_13DivideCheckedEE4ExecEPNS0_13KernelContextERKNS0_8ExecSpanEPNS0_10ExecResultE
libarrow.so.1700:_ZN5arrow7compute8internal10applicator19ScalarBinaryNotNullINS_10UInt32TypeES4_S4_NS1_15MultiplyCheckedEE4ExecEPNS0_13KernelContextERKNS0_8ExecSpanEPNS0_10ExecResultE
libarrow.so.1700:_ZN5arrow7compute8internal10applicator19ScalarBinaryNotNullINS_10UInt32TypeES4_S4_NS1_15SubtractCheckedEE4ExecEPNS0_13KernelContextERKNS0_8ExecSpanEPNS0_10ExecResultE
libarrow.so.1700:_ZN5arrow7compute8internal10applicator19ScalarBinaryNotNullINS_10UInt32TypeES4_S4_NS1_6DivideEE4ExecEPNS0_13KernelContextERKNS0_8ExecSpanEPNS0_10ExecResultE
libarrow.so.1700:_ZN5arrow7compute8internal10applicator19ScalarBinaryNotNullINS_10UInt64TypeES4_S4_NS1_10AddCheckedEE4ExecEPNS0_13KernelContextERKNS0_8ExecSpanEPNS0_10ExecResultE
libarrow.so.1700:_ZN5arrow7compute8internal10applicator19ScalarBinaryNotNullINS_10UInt64TypeES4_S4_NS1_12PowerCheckedEE4ExecEPNS0_13KernelContextERKNS0_8ExecSpanEPNS0_10ExecResultE
libarrow.so.1700:_ZN5arrow7compute8internal10applicator19ScalarBinaryNotNullINS_10UInt64TypeES4_S4_NS1_13DivideCheckedEE4ExecEPNS0_13KernelContextERKNS0_8ExecSpanEPNS0_10ExecResultE
libarrow.so.1700:_ZN5arrow7compute8internal10applicator19ScalarBinaryNotNullINS_10UInt64TypeES4_S4_NS1_15MultiplyCheckedEE4ExecEPNS0_13KernelContextERKNS0_8ExecSpanEPNS0_10ExecResultE
libarrow.so.1700:_ZN5arrow7compute8internal10applicator19ScalarBinaryNotNullINS_10UInt64TypeES4_S4_NS1_15SubtractCheckedEE4ExecEPNS0_13KernelContextERKNS0_8ExecSpanEPNS0_10ExecResultE
libarrow.so.1700:_ZN5arrow7compute8internal10applicator19ScalarBinaryNotNullINS_10UInt64TypeES4_S4_NS1_6DivideEE4ExecEPNS0_13KernelContextERKNS0_8ExecSpanEPNS0_10ExecResultE
libarrow.so.1700:_ZN5arrow7compute8internal10applicator19ScalarBinaryNotNullINS_14Decimal128TypeES4_S4_NS1_10AddCheckedEE4ExecEPNS0_13KernelContextERKNS0_8ExecSpanEPNS0_10ExecResultE
libarrow.so.1700:_ZN5arrow7compute8internal10applicator19ScalarBinaryNotNullINS_14Decimal128TypeES4_S4_NS1_13DivideCheckedEE4ExecEPNS0_13KernelContextERKNS0_8ExecSpanEPNS0_10ExecResultE
libarrow.so.1700:_ZN5arrow7compute8internal10applicator19ScalarBinaryNotNullINS_14Decimal128TypeES4_S4_NS1_15MultiplyCheckedEE4ExecEPNS0_13KernelContextERKNS0_8ExecSpanEPNS0_10ExecResultE
libarrow.so.1700:_ZN5arrow7compute8internal10applicator19ScalarBinaryNotNullINS_14Decimal128TypeES4_S4_NS1_15SubtractCheckedEE4ExecEPNS0_13KernelContextERKNS0_8ExecSpanEPNS0_10ExecResultE
libarrow.so.1700:_ZN5arrow7compute8internal10applicator19ScalarBinaryNotNullINS_14Decimal128TypeES4_S4_NS1_3AddEE4ExecEPNS0_13KernelContextERKNS0_8ExecSpanEPNS0_10ExecResultE
libarrow.so.1700:_ZN5arrow7compute8internal10applicator19ScalarBinaryNotNullINS_14Decimal128TypeES4_S4_NS1_6DivideEE4ExecEPNS0_13KernelContextERKNS0_8ExecSpanEPNS0_10ExecResultE
libarrow.so.1700:_ZN5arrow7compute8internal10applicator19ScalarBinaryNotNullINS_14Decimal128TypeES4_S4_NS1_8MultiplyEE4ExecEPNS0_13KernelContextERKNS0_8ExecSpanEPNS0_10ExecResultE
libarrow.so.1700:_ZN5arrow7compute8internal10applicator19ScalarBinaryNotNullINS_14Decimal128TypeES4_S4_NS1_8SubtractEE4ExecEPNS0_13KernelContextERKNS0_8ExecSpanEPNS0_10ExecResultE
libarrow.so.1700:_ZN5arrow7compute8internal10applicator19ScalarBinaryNotNullINS_14Decimal256TypeES4_S4_NS1_10AddCheckedEE4ExecEPNS0_13KernelContextERKNS0_8ExecSpanEPNS0_10ExecResultE
libarrow.so.1700:_ZN5arrow7compute8internal10applicator19ScalarBinaryNotNullINS_14Decimal256TypeES4_S4_NS1_13DivideCheckedEE4ExecEPNS0_13KernelContextERKNS0_8ExecSpanEPNS0_10ExecResultE
libarrow.so.1700:_ZN5arrow7compute8internal10applicator19ScalarBinaryNotNullINS_14Decimal256TypeES4_S4_NS1_15MultiplyCheckedEE4ExecEPNS0_13KernelContextERKNS0_8ExecSpanEPNS0_10ExecResultE
libarrow.so.1700:_ZN5arrow7compute8internal10applicator19ScalarBinaryNotNullINS_14Decimal256TypeES4_S4_NS1_15SubtractCheckedEE4ExecEPNS0_13KernelContextERKNS0_8ExecSpanEPNS0_10ExecResultE
libarrow.so.1700:_ZN5arrow7compute8internal10applicator19ScalarBinaryNotNullINS_14Decimal256TypeES4_S4_NS1_3AddEE4ExecEPNS0_13KernelContextERKNS0_8ExecSpanEPNS0_10ExecResultE
libarrow.so.1700:_ZN5arrow7compute8internal10applicator19ScalarBinaryNotNullINS_14Decimal256TypeES4_S4_NS1_6DivideEE4ExecEPNS0_13KernelContextERKNS0_8ExecSpanEPNS0_10ExecResultE
libarrow.so.1700:_ZN5arrow7compute8internal10applicator19ScalarBinaryNotNullINS_14Decimal256TypeES4_S4_NS1_8MultiplyEE4ExecEPNS0_13KernelContextERKNS0_8ExecSpanEPNS0_10ExecResultE
libarrow.so.1700:_ZN5arrow7compute8internal10applicator19ScalarBinaryNotNullINS_14Decimal256TypeES4_S4_NS1_8SubtractEE4ExecEPNS0_13KernelContextERKNS0_8ExecSpanEPNS0_10ExecResultE
libarrow.so.1700:_ZN5arrow7compute8internal10applicator19ScalarBinaryNotNullINS_8Int8TypeES4_S4_NS1_10AddCheckedEE4ExecEPNS0_13KernelContextERKNS0_8ExecSpanEPNS0_10ExecResultE
libarrow.so.1700:_ZN5arrow7compute8internal10applicator19ScalarBinaryNotNullINS_8Int8TypeES4_S4_NS1_12PowerCheckedEE4ExecEPNS0_13KernelContextERKNS0_8ExecSpanEPNS0_10ExecResultE
libarrow.so.1700:_ZN5arrow7compute8internal10applicator19ScalarBinaryNotNullINS_8Int8TypeES4_S4_NS1_13DivideCheckedEE4ExecEPNS0_13KernelContextERKNS0_8ExecSpanEPNS0_10ExecResultE
libarrow.so.1700:_ZN5arrow7compute8internal10applicator19ScalarBinaryNotNullINS_8Int8TypeES4_S4_NS1_15MultiplyCheckedEE4ExecEPNS0_13KernelContextERKNS0_8ExecSpanEPNS0_10ExecResultE
libarrow.so.1700:_ZN5arrow7compute8internal10applicator19ScalarBinaryNotNullINS_8Int8TypeES4_S4_NS1_15SubtractCheckedEE4ExecEPNS0_13KernelContextERKNS0_8ExecSpanEPNS0_10ExecResultE
libarrow.so.1700:_ZN5arrow7compute8internal10applicator19ScalarBinaryNotNullINS_8Int8TypeES4_S4_NS1_6DivideEE4ExecEPNS0_13KernelContextERKNS0_8ExecSpanEPNS0_10ExecResultE
libarrow.so.1700:_ZN5arrow7compute8internal10applicator19ScalarBinaryNotNullINS_9FloatTypeES4_S4_NS1_10AddCheckedEE4ExecEPNS0_13KernelContextERKNS0_8ExecSpanEPNS0_10ExecResultE
libarrow.so.1700:_ZN5arrow7compute8internal10applicator19ScalarBinaryNotNullINS_9FloatTypeES4_S4_NS1_12PowerCheckedEE4ExecEPNS0_13KernelContextERKNS0_8ExecSpanEPNS0_10ExecResultE
libarrow.so.1700:_ZN5arrow7compute8internal10applicator19ScalarBinaryNotNullINS_9FloatTypeES4_S4_NS1_13DivideCheckedEE4ExecEPNS0_13KernelContextERKNS0_8ExecSpanEPNS0_10ExecResultE
libarrow.so.1700:_ZN5arrow7compute8internal10applicator19ScalarBinaryNotNullINS_9FloatTypeES4_S4_NS1_15MultiplyCheckedEE4ExecEPNS0_13KernelContextERKNS0_8ExecSpanEPNS0_10ExecResultE
libarrow.so.1700:_ZN5arrow7compute8internal10applicator19ScalarBinaryNotNullINS_9FloatTypeES4_S4_NS1_15SubtractCheckedEE4ExecEPNS0_13KernelContextERKNS0_8ExecSpanEPNS0_10ExecResultE
libarrow.so.1700:_ZN5arrow7compute8internal10applicator19ScalarBinaryNotNullINS_9FloatTypeES4_S4_NS1_6DivideEE4ExecEPNS0_13KernelContextERKNS0_8ExecSpanEPNS0_10ExecResultE
libarrow.so.1700:_ZN5arrow7compute8internal10applicator19ScalarBinaryNotNullINS_9Int16TypeES4_S4_NS1_10AddCheckedEE4ExecEPNS0_13KernelContextERKNS0_8ExecSpanEPNS0_10ExecResultE
libarrow.so.1700:_ZN5arrow7compute8internal10applicator19ScalarBinaryNotNullINS_9Int16TypeES4_S4_NS1_12PowerCheckedEE4ExecEPNS0_13KernelContextERKNS0_8ExecSpanEPNS0_10ExecResultE
libarrow.so.1700:_ZN5arrow7compute8internal10applicator19ScalarBinaryNotNullINS_9Int16TypeES4_S4_NS1_13DivideCheckedEE4ExecEPNS0_13KernelContextERKNS0_8ExecSpanEPNS0_10ExecResultE
libarrow.so.1700:_ZN5arrow7compute8internal10applicator19ScalarBinaryNotNullINS_9Int16TypeES4_S4_NS1_15MultiplyCheckedEE4ExecEPNS0_13KernelContextERKNS0_8ExecSpanEPNS0_10ExecResultE
libarrow.so.1700:_ZN5arrow7compute8internal10applicator19ScalarBinaryNotNullINS_9Int16TypeES4_S4_NS1_15SubtractCheckedEE4ExecEPNS0_13KernelContextERKNS0_8ExecSpanEPNS0_10ExecResultE
libarrow.so.1700:_ZN5arrow7compute8internal10applicator19ScalarBinaryNotNullINS_9Int16TypeES4_S4_NS1_6DivideEE4ExecEPNS0_13KernelContextERKNS0_8ExecSpanEPNS0_10ExecResultE
libarrow.so.1700:_ZN5arrow7compute8internal10applicator19ScalarBinaryNotNullINS_9Int32TypeES4_S4_NS1_10AddCheckedEE4ExecEPNS0_13KernelContextERKNS0_8ExecSpanEPNS0_10ExecResultE
libarrow.so.1700:_ZN5arrow7compute8internal10applicator19ScalarBinaryNotNullINS_9Int32TypeES4_S4_NS1_12PowerCheckedEE4ExecEPNS0_13KernelContextERKNS0_8ExecSpanEPNS0_10ExecResultE
libarrow.so.1700:_ZN5arrow7compute8internal10applicator19ScalarBinaryNotNullINS_9Int32TypeES4_S4_NS1_13DivideCheckedEE4ExecEPNS0_13KernelContextERKNS0_8ExecSpanEPNS0_10ExecResultE
libarrow.so.1700:_ZN5arrow7compute8internal10applicator19ScalarBinaryNotNullINS_9Int32TypeES4_S4_NS1_15MultiplyCheckedEE4ExecEPNS0_13KernelContextERKNS0_8ExecSpanEPNS0_10ExecResultE
libarrow.so.1700:_ZN5arrow7compute8internal10applicator19ScalarBinaryNotNullINS_9Int32TypeES4_S4_NS1_15SubtractCheckedEE4ExecEPNS0_13KernelContextERKNS0_8ExecSpanEPNS0_10ExecResultE
libarrow.so.1700:_ZN5arrow7compute8internal10applicator19ScalarBinaryNotNullINS_9Int32TypeES4_S4_NS1_6DivideEE4ExecEPNS0_13KernelContextERKNS0_8ExecSpanEPNS0_10ExecResultE
libarrow.so.1700:_ZN5arrow7compute8internal10applicator19ScalarBinaryNotNullINS_9Int64TypeES4_S4_NS1_10AddCheckedEE4ExecEPNS0_13KernelContextERKNS0_8ExecSpanEPNS0_10ExecResultE
libarrow.so.1700:_ZN5arrow7compute8internal10applicator19ScalarBinaryNotNullINS_9Int64TypeES4_S4_NS1_12PowerCheckedEE4ExecEPNS0_13KernelContextERKNS0_8ExecSpanEPNS0_10ExecResultE
libarrow.so.1700:_ZN5arrow7compute8internal10applicator19ScalarBinaryNotNullINS_9Int64TypeES4_S4_NS1_13DivideCheckedEE4ExecEPNS0_13KernelContextERKNS0_8ExecSpanEPNS0_10ExecResultE
libarrow.so.1700:_ZN5arrow7compute8internal10applicator19ScalarBinaryNotNullINS_9Int64TypeES4_S4_NS1_15MultiplyCheckedEE4ExecEPNS0_13KernelContextERKNS0_8ExecSpanEPNS0_10ExecResultE
libarrow.so.1700:_ZN5arrow7compute8internal10applicator19ScalarBinaryNotNullINS_9Int64TypeES4_S4_NS1_15SubtractCheckedEE4ExecEPNS0_13KernelContextERKNS0_8ExecSpanEPNS0_10ExecResultE
libarrow.so.1700:_ZN5arrow7compute8internal10applicator19ScalarBinaryNotNullINS_9Int64TypeES4_S4_NS1_6DivideEE4ExecEPNS0_13KernelContextERKNS0_8ExecSpanEPNS0_10ExecResultE
libarrow.so.1700:_ZN5arrow7compute8internal10applicator19ScalarBinaryNotNullINS_9UInt8TypeES4_S4_NS1_10AddCheckedEE4ExecEPNS0_13KernelContextERKNS0_8ExecSpanEPNS0_10ExecResultE
libarrow.so.1700:_ZN5arrow7compute8internal10applicator19ScalarBinaryNotNullINS_9UInt8TypeES4_S4_NS1_12PowerCheckedEE4ExecEPNS0_13KernelContextERKNS0_8ExecSpanEPNS0_10ExecResultE
libarrow.so.1700:_ZN5arrow7compute8internal10applicator19ScalarBinaryNotNullINS_9UInt8TypeES4_S4_NS1_13DivideCheckedEE4ExecEPNS0_13KernelContextERKNS0_8ExecSpanEPNS0_10ExecResultE
libarrow.so.1700:_ZN5arrow7compute8internal10applicator19ScalarBinaryNotNullINS_9UInt8TypeES4_S4_NS1_15MultiplyCheckedEE4ExecEPNS0_13KernelContextERKNS0_8ExecSpanEPNS0_10ExecResultE
libarrow.so.1700:_ZN5arrow7compute8internal10applicator19ScalarBinaryNotNullINS_9UInt8TypeES4_S4_NS1_15SubtractCheckedEE4ExecEPNS0_13KernelContextERKNS0_8ExecSpanEPNS0_10ExecResultE
libarrow.so.1700:_ZN5arrow7compute8internal10applicator19ScalarBinaryNotNullINS_9UInt8TypeES4_S4_NS1_6DivideEE4ExecEPNS0_13KernelContextERKNS0_8ExecSpanEPNS0_10ExecResultE
libarrow.so.1700:_ZN5arrow7compute8internal11AddNullExecEPNS0_14ScalarFunctionE
libarrow.so.1700:_ZN5arrow7compute8internal11CastFunctorINS_10Date32TypeENS_10Date64TypeEvE4ExecEPNS0_13KernelContextERKNS0_8ExecSpanEPNS0_10ExecResultE
libarrow.so.1700:_ZN5arrow7compute8internal11CastFunctorINS_10Date32TypeENS_10StringTypeEvE4ExecEPNS0_13KernelContextERKNS0_8ExecSpanEPNS0_10ExecResultE
libarrow.so.1700:_ZN5arrow7compute8internal11CastFunctorINS_10Date32TypeENS_13TimestampTypeEvE4ExecEPNS0_13KernelContextERKNS0_8ExecSpanEPNS0_10ExecResultE
libarrow.so.1700:_ZN5arrow7compute8internal11CastFunctorINS_10Date32TypeENS_15LargeStringTypeEvE4ExecEPNS0_13KernelContextERKNS0_8ExecSpanEPNS0_10ExecResultE
libarrow.so.1700:_ZN5arrow7compute8internal11CastFunctorINS_10Date64TypeENS_10Date32TypeEvE4ExecEPNS0_13KernelContextERKNS0_8ExecSpanEPNS0_10ExecResultE
libarrow.so.1700:_ZN5arrow7compute8internal11CastFunctorINS_10Date64TypeENS_10StringTypeEvE4ExecEPNS0_13KernelContextERKNS0_8ExecSpanEPNS0_10ExecResultE
libarrow.so.1700:_ZN5arrow7compute8internal11CastFunctorINS_10Date64TypeENS_13TimestampTypeEvE4ExecEPNS0_13KernelContextERKNS0_8ExecSpanEPNS0_10ExecResultE
libarrow.so.1700:_ZN5arrow7compute8internal11CastFunctorINS_10Date64TypeENS_15LargeStringTypeEvE4ExecEPNS0_13KernelContextERKNS0_8ExecSpanEPNS0_10ExecResultE
libarrow.so.1700:_ZN5arrow7compute8internal11CastFunctorINS_10DoubleTypeENS_10BinaryTypeEvE4ExecEPNS0_13KernelContextERKNS0_8ExecSpanEPNS0_10ExecResultE
libarrow.so.1700:_ZN5arrow7compute8internal11CastFunctorINS_10DoubleTypeENS_11BooleanTypeEvE4ExecEPNS0_13KernelContextERKNS0_8ExecSpanEPNS0_10ExecResultE
libarrow.so.1700:_ZN5arrow7compute8internal11CastFunctorINS_10DoubleTypeENS_14Decimal128TypeEvE4ExecEPNS0_13KernelContextERKNS0_8ExecSpanEPNS0_10ExecResultE
libarrow.so.1700:_ZN5arrow7compute8internal11CastFunctorINS_10DoubleTypeENS_14Decimal256TypeEvE4ExecEPNS0_13KernelContextERKNS0_8ExecSpanEPNS0_10ExecResultE
libarrow.so.1700:_ZN5arrow7compute8internal11CastFunctorINS_10DoubleTypeENS_15LargeBinaryTypeEvE4ExecEPNS0_13KernelContextERKNS0_8ExecSpanEPNS0_10ExecResultE
libarrow.so.1700:_ZN5arrow7compute8internal11CastFunctorINS_10Time32TypeENS_10Time64TypeEvE4ExecEPNS0_13KernelContextERKNS0_8ExecSpanEPNS0_10ExecResultE
libarrow.so.1700:_ZN5arrow7compute8internal11CastFunctorINS_10Time32TypeENS_13TimestampTypeEvE4ExecEPNS0_13KernelContextERKNS0_8ExecSpanEPNS0_10ExecResultE
libarrow.so.1700:_ZN5arrow7compute8internal11CastFunctorINS_10Time32TypeES3_vE4ExecEPNS0_13KernelContextERKNS0_8ExecSpanEPNS0_10ExecResultE
libarrow.so.1700:_ZN5arrow7compute8internal11CastFunctorINS_10Time64TypeENS_10Time32TypeEvE4ExecEPNS0_13KernelContextERKNS0_8ExecSpanEPNS0_10ExecResultE
libarrow.so.1700:_ZN5arrow7compute8internal11CastFunctorINS_10Time64TypeENS_13TimestampTypeEvE4ExecEPNS0_13KernelContextERKNS0_8ExecSpanEPNS0_10ExecResultE
libarrow.so.1700:_ZN5arrow7compute8internal11CastFunctorINS_10Time64TypeES3_vE4ExecEPNS0_13KernelContextERKNS0_8ExecSpanEPNS0_10ExecResultE
libarrow.so.1700:_ZN5arrow7compute8internal11CastFunctorINS_10UInt16TypeENS_10BinaryTypeEvE4ExecEPNS0_13KernelContextERKNS0_8ExecSpanEPNS0_10ExecResultE
libarrow.so.1700:_ZN5arrow7compute8internal11CastFunctorINS_10UInt16TypeENS_11BooleanTypeEvE4ExecEPNS0_13KernelContextERKNS0_8ExecSpanEPNS0_10ExecResultE
libarrow.so.1700:_ZN5arrow7compute8internal11CastFunctorINS_10UInt16TypeENS_14Decimal128TypeEvE4ExecEPNS0_13KernelContextERKNS0_8ExecSpanEPNS0_10ExecResultE
libarrow.so.1700:_ZN5arrow7compute8internal11CastFunctorINS_10UInt16TypeENS_14Decimal256TypeEvE4ExecEPNS0_13KernelContextERKNS0_8ExecSpanEPNS0_10ExecResultE
libarrow.so.1700:_ZN5arrow7compute8internal11CastFunctorINS_10UInt16TypeENS_15LargeBinaryTypeEvE4ExecEPNS0_13KernelContextERKNS0_8ExecSpanEPNS0_10ExecResultE
libarrow.so.1700:_ZN5arrow7compute8internal11CastFunctorINS_10UInt32TypeENS_10BinaryTypeEvE4ExecEPNS0_13KernelContextERKNS0_8ExecSpanEPNS0_10ExecResultE
libarrow.so.1700:_ZN5arrow7compute8internal11CastFunctorINS_10UInt32TypeENS_11BooleanTypeEvE4ExecEPNS0_13KernelContextERKNS0_8ExecSpanEPNS0_10ExecResultE
libarrow.so.1700:_ZN5arrow7compute8internal11CastFunctorINS_10UInt32TypeENS_14Decimal128TypeEvE4ExecEPNS0_13KernelContextERKNS0_8ExecSpanEPNS0_10ExecResultE
libarrow.so.1700:_ZN5arrow7compute8internal11CastFunctorINS_10UInt32TypeENS_14Decimal256TypeEvE4ExecEPNS0_13KernelContextERKNS0_8ExecSpanEPNS0_10ExecResultE
libarrow.so.1700:_ZN5arrow7compute8internal11CastFunctorINS_10UInt32TypeENS_15LargeBinaryTypeEvE4ExecEPNS0_13KernelContextERKNS0_8ExecSpanEPNS0_10ExecResultE
libarrow.so.1700:_ZN5arrow7compute8internal11CastFunctorINS_10UInt64TypeENS_10BinaryTypeEvE4ExecEPNS0_13KernelContextERKNS0_8ExecSpanEPNS0_10ExecResultE
libarrow.so.1700:_ZN5arrow7compute8internal11CastFunctorINS_10UInt64TypeENS_11BooleanTypeEvE4ExecEPNS0_13KernelContextERKNS0_8ExecSpanEPNS0_10ExecResultE
libarrow.so.1700:_ZN5arrow7compute8internal11CastFunctorINS_10UInt64TypeENS_14Decimal128TypeEvE4ExecEPNS0_13KernelContextERKNS0_8ExecSpanEPNS0_10ExecResultE
libarrow.so.1700:_ZN5arrow7compute8internal11CastFunctorINS_10UInt64TypeENS_14Decimal256TypeEvE4ExecEPNS0_13KernelContextERKNS0_8ExecSpanEPNS0_10ExecResultE
libarrow.so.1700:_ZN5arrow7compute8internal11CastFunctorINS_10UInt64TypeENS_15LargeBinaryTypeEvE4ExecEPNS0_13KernelContextERKNS0_8ExecSpanEPNS0_10ExecResultE
libarrow.so.1700:_ZN5arrow7compute8internal11CastFunctorINS_12DurationTypeES3_vE4ExecEPNS0_13KernelContextERKNS0_8ExecSpanEPNS0_10ExecResultE
libarrow.so.1700:_ZN5arrow7compute8internal11CastFunctorINS_13HalfFloatTypeENS_10BinaryTypeEvE4ExecEPNS0_13KernelContextERKNS0_8ExecSpanEPNS0_10ExecResultE
libarrow.so.1700:_ZN5arrow7compute8internal11CastFunctorINS_13HalfFloatTypeENS_15LargeBinaryTypeEvE4ExecEPNS0_13KernelContextERKNS0_8ExecSpanEPNS0_10ExecResultE
libarrow.so.1700:_ZN5arrow7compute8internal11CastFunctorINS_13TimestampTypeENS_10Date32TypeEvE4ExecEPNS0_13KernelContextERKNS0_8ExecSpanEPNS0_10ExecResultE
libarrow.so.1700:_ZN5arrow7compute8internal11CastFunctorINS_13TimestampTypeENS_10Date64TypeEvE4ExecEPNS0_13KernelContextERKNS0_8ExecSpanEPNS0_10ExecResultE
libarrow.so.1700:_ZN5arrow7compute8internal11CastFunctorINS_13TimestampTypeENS_10StringTypeEvE4ExecEPNS0_13KernelContextERKNS0_8ExecSpanEPNS0_10ExecResultE
libarrow.so.1700:_ZN5arrow7compute8internal11CastFunctorINS_13TimestampTypeENS_15LargeStringTypeEvE4ExecEPNS0_13KernelContextERKNS0_8ExecSpanEPNS0_10ExecResultE
libarrow.so.1700:_ZN5arrow7compute8internal11CastFunctorINS_13TimestampTypeES3_vE4ExecEPNS0_13KernelContextERKNS0_8ExecSpanEPNS0_10ExecResultE
libarrow.so.1700:_ZN5arrow7compute8internal11CastFunctorINS_14Decimal128TypeENS_10DoubleTypeEvE4ExecEPNS0_13KernelContextERKNS0_8ExecSpanEPNS0_10ExecResultE
libarrow.so.1700:_ZN5arrow7compute8internal11CastFunctorINS_14Decimal128TypeENS_10UInt16TypeEvE4ExecEPNS0_13KernelContextERKNS0_8ExecSpanEPNS0_10ExecResultE
libarrow.so.1700:_ZN5arrow7compute8internal11CastFunctorINS_14Decimal128TypeENS_10UInt32TypeEvE4ExecEPNS0_13KernelContextERKNS0_8ExecSpanEPNS0_10ExecResultE
libarrow.so.1700:_ZN5arrow7compute8internal11CastFunctorINS_14Decimal128TypeENS_10UInt64TypeEvE4ExecEPNS0_13KernelContextERKNS0_8ExecSpanEPNS0_10ExecResultE
libarrow.so.1700:_ZN5arrow7compute8internal11CastFunctorINS_14Decimal128TypeENS_14Decimal256TypeEvE4ExecEPNS0_13KernelContextERKNS0_8ExecSpanEPNS0_10ExecResultE
libarrow.so.1700:_ZN5arrow7compute8internal11CastFunctorINS_14Decimal128TypeENS_8Int8TypeEvE4ExecEPNS0_13KernelContextERKNS0_8ExecSpanEPNS0_10ExecResultE
libarrow.so.1700:_ZN5arrow7compute8internal11CastFunctorINS_14Decimal128TypeENS_9FloatTypeEvE4ExecEPNS0_13KernelContextERKNS0_8ExecSpanEPNS0_10ExecResultE
libarrow.so.1700:_ZN5arrow7compute8internal11CastFunctorINS_14Decimal128TypeENS_9Int16TypeEvE4ExecEPNS0_13KernelContextERKNS0_8ExecSpanEPNS0_10ExecResultE
libarrow.so.1700:_ZN5arrow7compute8internal11CastFunctorINS_14Decimal128TypeENS_9Int32TypeEvE4ExecEPNS0_13KernelContextERKNS0_8ExecSpanEPNS0_10ExecResultE
libarrow.so.1700:_ZN5arrow7compute8internal11CastFunctorINS_14Decimal128TypeENS_9Int64TypeEvE4ExecEPNS0_13KernelContextERKNS0_8ExecSpanEPNS0_10ExecResultE
libarrow.so.1700:_ZN5arrow7compute8internal11CastFunctorINS_14Decimal128TypeENS_9UInt8TypeEvE4ExecEPNS0_13KernelContextERKNS0_8ExecSpanEPNS0_10ExecResultE
libarrow.so.1700:_ZN5arrow7compute8internal11CastFunctorINS_14Decimal128TypeES3_vE4ExecEPNS0_13KernelContextERKNS0_8ExecSpanEPNS0_10ExecResultE
libarrow.so.1700:_ZN5arrow7compute8internal11CastFunctorINS_14Decimal256TypeENS_10DoubleTypeEvE4ExecEPNS0_13KernelContextERKNS0_8ExecSpanEPNS0_10ExecResultE
libarrow.so.1700:_ZN5arrow7compute8internal11CastFunctorINS_14Decimal256TypeENS_10UInt16TypeEvE4ExecEPNS0_13KernelContextERKNS0_8ExecSpanEPNS0_10ExecResultE
libarrow.so.1700:_ZN5arrow7compute8internal11CastFunctorINS_14Decimal256TypeENS_10UInt32TypeEvE4ExecEPNS0_13KernelContextERKNS0_8ExecSpanEPNS0_10ExecResultE
libarrow.so.1700:_ZN5arrow7compute8internal11CastFunctorINS_14Decimal256TypeENS_10UInt64TypeEvE4ExecEPNS0_13KernelContextERKNS0_8ExecSpanEPNS0_10ExecResultE
libarrow.so.1700:_ZN5arrow7compute8internal11CastFunctorINS_14Decimal256TypeENS_14Decimal128TypeEvE4ExecEPNS0_13KernelContextERKNS0_8ExecSpanEPNS0_10ExecResultE
libarrow.so.1700:_ZN5arrow7compute8internal11CastFunctorINS_14Decimal256TypeENS_8Int8TypeEvE4ExecEPNS0_13KernelContextERKNS0_8ExecSpanEPNS0_10ExecResultE
libarrow.so.1700:_ZN5arrow7compute8internal11CastFunctorINS_14Decimal256TypeENS_9FloatTypeEvE4ExecEPNS0_13KernelContextERKNS0_8ExecSpanEPNS0_10ExecResultE
libarrow.so.1700:_ZN5arrow7compute8internal11CastFunctorINS_14Decimal256TypeENS_9Int16TypeEvE4ExecEPNS0_13KernelContextERKNS0_8ExecSpanEPNS0_10ExecResultE
libarrow.so.1700:_ZN5arrow7compute8internal11CastFunctorINS_14Decimal256TypeENS_9Int32TypeEvE4ExecEPNS0_13KernelContextERKNS0_8ExecSpanEPNS0_10ExecResultE
libarrow.so.1700:_ZN5arrow7compute8internal11CastFunctorINS_14Decimal256TypeENS_9Int64TypeEvE4ExecEPNS0_13KernelContextERKNS0_8ExecSpanEPNS0_10ExecResultE
libarrow.so.1700:_ZN5arrow7compute8internal11CastFunctorINS_14Decimal256TypeENS_9UInt8TypeEvE4ExecEPNS0_13KernelContextERKNS0_8ExecSpanEPNS0_10ExecResultE
libarrow.so.1700:_ZN5arrow7compute8internal11CastFunctorINS_14Decimal256TypeES3_vE4ExecEPNS0_13KernelContextERKNS0_8ExecSpanEPNS0_10ExecResultE
libarrow.so.1700:_ZN5arrow7compute8internal11CastFunctorINS_8Int8TypeENS_10BinaryTypeEvE4ExecEPNS0_13KernelContextERKNS0_8ExecSpanEPNS0_10ExecResultE
libarrow.so.1700:_ZN5arrow7compute8internal11CastFunctorINS_8Int8TypeENS_11BooleanTypeEvE4ExecEPNS0_13KernelContextERKNS0_8ExecSpanEPNS0_10ExecResultE
libarrow.so.1700:_ZN5arrow7compute8internal11CastFunctorINS_8Int8TypeENS_14Decimal128TypeEvE4ExecEPNS0_13KernelContextERKNS0_8ExecSpanEPNS0_10ExecResultE
libarrow.so.1700:_ZN5arrow7compute8internal11CastFunctorINS_8Int8TypeENS_14Decimal256TypeEvE4ExecEPNS0_13KernelContextERKNS0_8ExecSpanEPNS0_10ExecResultE
libarrow.so.1700:_ZN5arrow7compute8internal11CastFunctorINS_8Int8TypeENS_15LargeBinaryTypeEvE4ExecEPNS0_13KernelContextERKNS0_8ExecSpanEPNS0_10ExecResultE
libarrow.so.1700:_ZN5arrow7compute8internal11CastFunctorINS_9FloatTypeENS_10BinaryTypeEvE4ExecEPNS0_13KernelContextERKNS0_8ExecSpanEPNS0_10ExecResultE
libarrow.so.1700:_ZN5arrow7compute8internal11CastFunctorINS_9FloatTypeENS_11BooleanTypeEvE4ExecEPNS0_13KernelContextERKNS0_8ExecSpanEPNS0_10ExecResultE
libarrow.so.1700:_ZN5arrow7compute8internal11CastFunctorINS_9FloatTypeENS_14Decimal128TypeEvE4ExecEPNS0_13KernelContextERKNS0_8ExecSpanEPNS0_10ExecResultE
libarrow.so.1700:_ZN5arrow7compute8internal11CastFunctorINS_9FloatTypeENS_14Decimal256TypeEvE4ExecEPNS0_13KernelContextERKNS0_8ExecSpanEPNS0_10ExecResultE
libarrow.so.1700:_ZN5arrow7compute8internal11CastFunctorINS_9FloatTypeENS_15LargeBinaryTypeEvE4ExecEPNS0_13KernelContextERKNS0_8ExecSpanEPNS0_10ExecResultE
libarrow.so.1700:_ZN5arrow7compute8internal11CastFunctorINS_9Int16TypeENS_10BinaryTypeEvE4ExecEPNS0_13KernelContextERKNS0_8ExecSpanEPNS0_10ExecResultE
libarrow.so.1700:_ZN5arrow7compute8internal11CastFunctorINS_9Int16TypeENS_11BooleanTypeEvE4ExecEPNS0_13KernelContextERKNS0_8ExecSpanEPNS0_10ExecResultE
libarrow.so.1700:_ZN5arrow7compute8internal11CastFunctorINS_9Int16TypeENS_14Decimal128TypeEvE4ExecEPNS0_13KernelContextERKNS0_8ExecSpanEPNS0_10ExecResultE
libarrow.so.1700:_ZN5arrow7compute8internal11CastFunctorINS_9Int16TypeENS_14Decimal256TypeEvE4ExecEPNS0_13KernelContextERKNS0_8ExecSpanEPNS0_10ExecResultE
libarrow.so.1700:_ZN5arrow7compute8internal11CastFunctorINS_9Int16TypeENS_15LargeBinaryTypeEvE4ExecEPNS0_13KernelContextERKNS0_8ExecSpanEPNS0_10ExecResultE
libarrow.so.1700:_ZN5arrow7compute8internal11CastFunctorINS_9Int32TypeENS_10BinaryTypeEvE4ExecEPNS0_13KernelContextERKNS0_8ExecSpanEPNS0_10ExecResultE
libarrow.so.1700:_ZN5arrow7compute8internal11CastFunctorINS_9Int32TypeENS_11BooleanTypeEvE4ExecEPNS0_13KernelContextERKNS0_8ExecSpanEPNS0_10ExecResultE
libarrow.so.1700:_ZN5arrow7compute8internal11CastFunctorINS_9Int32TypeENS_14Decimal128TypeEvE4ExecEPNS0_13KernelContextERKNS0_8ExecSpanEPNS0_10ExecResultE
libarrow.so.1700:_ZN5arrow7compute8internal11CastFunctorINS_9Int32TypeENS_14Decimal256TypeEvE4ExecEPNS0_13KernelContextERKNS0_8ExecSpanEPNS0_10ExecResultE
libarrow.so.1700:_ZN5arrow7compute8internal11CastFunctorINS_9Int32TypeENS_15LargeBinaryTypeEvE4ExecEPNS0_13KernelContextERKNS0_8ExecSpanEPNS0_10ExecResultE
libarrow.so.1700:_ZN5arrow7compute8internal11CastFunctorINS_9Int64TypeENS_10BinaryTypeEvE4ExecEPNS0_13KernelContextERKNS0_8ExecSpanEPNS0_10ExecResultE
libarrow.so.1700:_ZN5arrow7compute8internal11CastFunctorINS_9Int64TypeENS_11BooleanTypeEvE4ExecEPNS0_13KernelContextERKNS0_8ExecSpanEPNS0_10ExecResultE
libarrow.so.1700:_ZN5arrow7compute8internal11CastFunctorINS_9Int64TypeENS_14Decimal128TypeEvE4ExecEPNS0_13KernelContextERKNS0_8ExecSpanEPNS0_10ExecResultE
libarrow.so.1700:_ZN5arrow7compute8internal11CastFunctorINS_9Int64TypeENS_14Decimal256TypeEvE4ExecEPNS0_13KernelContextERKNS0_8ExecSpanEPNS0_10ExecResultE
libarrow.so.1700:_ZN5arrow7compute8internal11CastFunctorINS_9Int64TypeENS_15LargeBinaryTypeEvE4ExecEPNS0_13KernelContextERKNS0_8ExecSpanEPNS0_10ExecResultE
libarrow.so.1700:_ZN5arrow7compute8internal11CastFunctorINS_9UInt8TypeENS_10BinaryTypeEvE4ExecEPNS0_13KernelContextERKNS0_8ExecSpanEPNS0_10ExecResultE
libarrow.so.1700:_ZN5arrow7compute8internal11CastFunctorINS_9UInt8TypeENS_11BooleanTypeEvE4ExecEPNS0_13KernelContextERKNS0_8ExecSpanEPNS0_10ExecResultE
libarrow.so.1700:_ZN5arrow7compute8internal11CastFunctorINS_9UInt8TypeENS_14Decimal128TypeEvE4ExecEPNS0_13KernelContextERKNS0_8ExecSpanEPNS0_10ExecResultE
libarrow.so.1700:_ZN5arrow7compute8internal11CastFunctorINS_9UInt8TypeENS_14Decimal256TypeEvE4ExecEPNS0_13KernelContextERKNS0_8ExecSpanEPNS0_10ExecResultE
libarrow.so.1700:_ZN5arrow7compute8internal11CastFunctorINS_9UInt8TypeENS_15LargeBinaryTypeEvE4ExecEPNS0_13KernelContextERKNS0_8ExecSpanEPNS0_10ExecResultE
libarrow.so.1700:_ZN5arrow7compute8internal11FSLTakeExecEPNS0_13KernelContextERKNS0_8ExecSpanEPNS0_10ExecResultE
libarrow.so.1700:_ZN5arrow7compute8internal11FailFunctorIPFNS_6StatusEPNS0_13KernelContextERKNS0_8ExecSpanEPNS0_10ExecResultEEE4ExecES5_S8_SA_
libarrow.so.1700:_ZN5arrow7compute8internal11FailFunctorIPFNS_6StatusEPNS0_13KernelContextERKNS0_9ExecBatchEPNS_5DatumEEE4ExecES5_S8_SA_
libarrow.so.1700:_ZN5arrow7compute8internal11MapTakeExecEPNS0_13KernelContextERKNS0_8ExecSpanEPNS0_10ExecResultE
libarrow.so.1700:_ZN5arrow7compute8internal11SumInitAvx2EPNS0_13KernelContextERKNS0_14KernelInitArgsE
libarrow.so.1700:_ZN5arrow7compute8internal12AddAggKernelESt10shared_ptrINS0_15KernelSignatureEESt8functionIFNS_6ResultISt10unique_ptrINS0_11KernelStateESt14default_deleteIS8_EEEEPNS0_13KernelContextERKNS0_14KernelInitArgsEEEPFNS_6StatusESE_PNS_5DatumEEPNS0_23ScalarAggregateFunctionENS0_9SimdLevel4typeEb
libarrow.so.1700:_ZN5arrow7compute8internal12AddAggKernelESt10shared_ptrINS0_15KernelSignatureEESt8functionIFNS_6ResultISt10unique_ptrINS0_11KernelStateESt14default_deleteIS8_EEEEPNS0_13KernelContextERKNS0_14KernelInitArgsEEEPNS0_23ScalarAggregateFunctionENS0_9SimdLevel4typeEb
libarrow.so.1700:_ZN5arrow7compute8internal12CastFromNullEPNS0_13KernelContextERKNS0_8ExecSpanEPNS0_10ExecResultE
libarrow.so.1700:_ZN5arrow7compute8internal12CastFunction9AddKernelENS_4Type4typeENS0_12ScalarKernelE
libarrow.so.1700:_ZN5arrow7compute8internal12CastFunction9AddKernelENS_4Type4typeESt6vectorINS0_9InputTypeESaIS6_EENS0_10OutputTypeEPFNS_6StatusEPNS0_13KernelContextERKNS0_8ExecSpanEPNS0_10ExecResultEENS0_12NullHandling4typeENS0_13MemAllocation4typeE
libarrow.so.1700:_ZN5arrow7compute8internal12CastFunctionC1ENSt7__cxx1112basic_stringIcSt11char_traitsIcESaIcEEENS_4Type4typeE
libarrow.so.1700:_ZN5arrow7compute8internal12CastFunctionC2ENSt7__cxx1112basic_stringIcSt11char_traitsIcESaIcEEENS_4Type4typeE
libarrow.so.1700:_ZN5arrow7compute8internal12CommonBinaryEPKNS_10TypeHolderEm
libarrow.so.1700:_ZN5arrow7compute8internal12FindSortKeysERKNS_6SchemaERKSt6vectorINS0_7SortKeyESaIS6_EE
libarrow.so.1700:_ZN5arrow7compute8internal12GetExecValueERKNS_5DatumE
libarrow.so.1700:_ZN5arrow7compute8internal12GetTrueCountERKNS_9ArraySpanE
libarrow.so.1700:_ZN5arrow7compute8internal12ListTakeExecEPNS0_13KernelContextERKNS0_8ExecSpanEPNS0_10ExecResultE
libarrow.so.1700:_ZN5arrow7compute8internal12MeanInitAvx2EPNS0_13KernelContextERKNS0_14KernelInitArgsE
libarrow.so.1700:_ZN5arrow7compute8internal12ReplaceTypesERKNS_10TypeHolderEPS2_m
libarrow.so.1700:_ZN5arrow7compute8internal12ReplaceTypesERKNS_10TypeHolderEPSt6vectorIS2_SaIS2_EE
libarrow.so.1700:_ZN5arrow7compute8internal13CommonNumericEPKNS_10TypeHolderEm
libarrow.so.1700:_ZN5arrow7compute8internal13CommonNumericERKSt6vectorINS_10TypeHolderESaIS3_EE
libarrow.so.1700:_ZN5arrow7compute8internal13FSLFilterExecEPNS0_13KernelContextERKNS0_8ExecSpanEPNS0_10ExecResultE
libarrow.so.1700:_ZN5arrow7compute8internal13FirstLastTypeEPNS0_13KernelContextERKSt6vectorINS_10TypeHolderESaIS5_EE
libarrow.so.1700:_ZN5arrow7compute8internal13GetDate32CastEv
libarrow.so.1700:_ZN5arrow7compute8internal13GetDate64CastEv
libarrow.so.1700:_ZN5arrow7compute8internal13GetTime32CastEv
libarrow.so.1700:_ZN5arrow7compute8internal13GetTime64CastEv
libarrow.so.1700:_ZN5arrow7compute8internal13MapFilterExecEPNS0_13KernelContextERKNS0_8ExecSpanEPNS0_10ExecResultE
libarrow.so.1700:_ZN5arrow7compute8internal13OutputAllNullEPNS0_13KernelContextERKNS0_8ExecSpanEPNS0_10ExecResultE
libarrow.so.1700:_ZN5arrow7compute8internal13SumInitAvx512EPNS0_13KernelContextERKNS0_14KernelInitArgsE
libarrow.so.1700:_ZN5arrow7compute8internal14AddCommonCastsENS_4Type4typeENS0_10OutputTypeEPNS1_12CastFunctionE
libarrow.so.1700:_ZN5arrow7compute8internal14CommonTemporalEPKNS_10TypeHolderEm
libarrow.so.1700:_ZN5arrow7compute8internal14GetArraySorterERKNS_8DataTypeE
libarrow.so.1700:_ZN5arrow7compute8internal14GetNestedCastsEv
libarrow.so.1700:_ZN5arrow7compute8internal14GetTakeIndicesERKNS_9ArraySpanENS0_13FilterOptions21NullSelectionBehaviorEPNS_10MemoryPoolE
libarrow.so.1700:_ZN5arrow7compute8internal14ListFilterExecEPNS0_13KernelContextERKNS0_8ExecSpanEPNS0_10ExecResultE
libarrow.so.1700:_ZN5arrow7compute8internal14ListValuesTypeEPNS0_13KernelContextERKSt6vectorINS_10TypeHolderESaIS5_EE
libarrow.so.1700:_ZN5arrow7compute8internal14MeanInitAvx512EPNS0_13KernelContextERKNS0_14KernelInitArgsE
libarrow.so.1700:_ZN5arrow7compute8internal14MinMaxInitAvx2EPNS0_13KernelContextERKNS0_14KernelInitArgsE
libarrow.so.1700:_ZN5arrow7compute8internal14OptionsWrapperINS0_10PadOptionsEE4InitEPNS0_13KernelContextERKNS0_14KernelInitArgsE
libarrow.so.1700:_ZN5arrow7compute8internal14OptionsWrapperINS0_11CastOptionsEE4InitEPNS0_13KernelContextERKNS0_14KernelInitArgsE
libarrow.so.1700:_ZN5arrow7compute8internal14OptionsWrapperINS0_11JoinOptionsEE4InitEPNS0_13KernelContextERKNS0_14KernelInitArgsE
libarrow.so.1700:_ZN5arrow7compute8internal14OptionsWrapperINS0_11ModeOptionsEE4InitEPNS0_13KernelContextERKNS0_14KernelInitArgsE
libarrow.so.1700:_ZN5arrow7compute8internal14OptionsWrapperINS0_11NullOptionsEE4InitEPNS0_13KernelContextERKNS0_14KernelInitArgsE
libarrow.so.1700:_ZN5arrow7compute8internal14OptionsWrapperINS0_11TakeOptionsEE4InitEPNS0_13KernelContextERKNS0_14KernelInitArgsE
libarrow.so.1700:_ZN5arrow7compute8internal14OptionsWrapperINS0_11WeekOptionsEE4InitEPNS0_13KernelContextERKNS0_14KernelInitArgsE
libarrow.so.1700:_ZN5arrow7compute8internal14OptionsWrapperINS0_12SliceOptionsEE4InitEPNS0_13KernelContextERKNS0_14KernelInitArgsE
libarrow.so.1700:_ZN5arrow7compute8internal14OptionsWrapperINS0_12SplitOptionsEE4InitEPNS0_13KernelContextERKNS0_14KernelInitArgsE
libarrow.so.1700:_ZN5arrow7compute8internal14OptionsWrapperINS0_13FilterOptionsEE4InitEPNS0_13KernelContextERKNS0_14KernelInitArgsE
libarrow.so.1700:_ZN5arrow7compute8internal14OptionsWrapperINS0_13RandomOptionsEE4InitEPNS0_13KernelContextERKNS0_14KernelInitArgsE
libarrow.so.1700:_ZN5arrow7compute8internal14OptionsWrapperINS0_15PairwiseOptionsEE4InitEPNS0_13KernelContextERKNS0_14KernelInitArgsE
libarrow.so.1700:_ZN5arrow7compute8internal14OptionsWrapperINS0_15QuantileOptionsEE4InitEPNS0_13KernelContextERKNS0_14KernelInitArgsE
libarrow.so.1700:_ZN5arrow7compute8internal14OptionsWrapperINS0_15StrftimeOptionsEE4InitEPNS0_13KernelContextERKNS0_14KernelInitArgsE
libarrow.so.1700:_ZN5arrow7compute8internal14OptionsWrapperINS0_15StrptimeOptionsEE4InitEPNS0_13KernelContextERKNS0_14KernelInitArgsE
libarrow.so.1700:_ZN5arrow7compute8internal14OptionsWrapperINS0_16ArraySortOptionsEE4InitEPNS0_13KernelContextERKNS0_14KernelInitArgsE
libarrow.so.1700:_ZN5arrow7compute8internal14OptionsWrapperINS0_16DayOfWeekOptionsEE4InitEPNS0_13KernelContextERKNS0_14KernelInitArgsE
libarrow.so.1700:_ZN5arrow7compute8internal14OptionsWrapperINS0_16ListSliceOptionsEE4InitEPNS0_13KernelContextERKNS0_14KernelInitArgsE
libarrow.so.1700:_ZN5arrow7compute8internal14OptionsWrapperINS0_16MapLookupOptionsEE4InitEPNS0_13KernelContextERKNS0_14KernelInitArgsE
libarrow.so.1700:_ZN5arrow7compute8internal14OptionsWrapperINS0_17MakeStructOptionsEE4InitEPNS0_13KernelContextERKNS0_14KernelInitArgsE
libarrow.so.1700:_ZN5arrow7compute8internal14OptionsWrapperINS0_18ListFlattenOptionsEE4InitEPNS0_13KernelContextERKNS0_14KernelInitArgsE
libarrow.so.1700:_ZN5arrow7compute8internal14OptionsWrapperINS0_18StructFieldOptionsEE4InitEPNS0_13KernelContextERKNS0_14KernelInitArgsE
libarrow.so.1700:_ZN5arrow7compute8internal14OptionsWrapperINS0_19ExtractRegexOptionsEE4InitEPNS0_13KernelContextERKNS0_14KernelInitArgsE
libarrow.so.1700:_ZN5arrow7compute8internal14OptionsWrapperINS0_19PartitionNthOptionsEE4InitEPNS0_13KernelContextERKNS0_14KernelInitArgsE
libarrow.so.1700:_ZN5arrow7compute8internal14OptionsWrapperINS0_19ReplaceSliceOptionsEE4InitEPNS0_13KernelContextERKNS0_14KernelInitArgsE
libarrow.so.1700:_ZN5arrow7compute8internal14OptionsWrapperINS0_19SplitPatternOptionsEE4InitEPNS0_13KernelContextERKNS0_14KernelInitArgsE
libarrow.so.1700:_ZN5arrow7compute8internal14OptionsWrapperINS0_20RoundTemporalOptionsEE4InitEPNS0_13KernelContextERKNS0_14KernelInitArgsE
libarrow.so.1700:_ZN5arrow7compute8internal14OptionsWrapperINS0_20Utf8NormalizeOptionsEE4InitEPNS0_13KernelContextERKNS0_14KernelInitArgsE
libarrow.so.1700:_ZN5arrow7compute8internal14OptionsWrapperINS0_21AssumeTimezoneOptionsEE4InitEPNS0_13KernelContextERKNS0_14KernelInitArgsE
libarrow.so.1700:_ZN5arrow7compute8internal14OptionsWrapperINS0_21MatchSubstringOptionsEE4InitEPNS0_13KernelContextERKNS0_14KernelInitArgsE
libarrow.so.1700:_ZN5arrow7compute8internal14OptionsWrapperINS0_23ReplaceSubstringOptionsEE4InitEPNS0_13KernelContextERKNS0_14KernelInitArgsE
libarrow.so.1700:_ZN5arrow7compute8internal14OptionsWrapperINS0_27ElementWiseAggregateOptionsEE4InitEPNS0_13KernelContextERKNS0_14KernelInitArgsE
libarrow.so.1700:_ZN5arrow7compute8internal14StructTakeExecEPNS0_13KernelContextERKNS0_8ExecSpanEPNS0_10ExecResultE
libarrow.so.1700:_ZN5arrow7compute8internal15AddMinMaxKernelESt8functionIFNS_6ResultISt10unique_ptrINS0_11KernelStateESt14default_deleteIS5_EEEEPNS0_13KernelContextERKNS0_14KernelInitArgsEEENS1_6detail9GetTypeIdEPNS0_23ScalarAggregateFunctionENS0_9SimdLevel4typeE
libarrow.so.1700:_ZN5arrow7compute8internal15AddZeroCopyCastENS_4Type4typeENS0_9InputTypeENS0_10OutputTypeEPNS1_12CastFunctionE
libarrow.so.1700:_ZN5arrow7compute8internal15CastDecimalArgsEPNS_10TypeHolderEm
libarrow.so.1700:_ZN5arrow7compute8internal15GetBooleanCastsEv
libarrow.so.1700:_ZN5arrow7compute8internal15GetCastFunctionERKNS_8DataTypeE
libarrow.so.1700:_ZN5arrow7compute8internal15GetDurationCastEv
libarrow.so.1700:_ZN5arrow7compute8internal15GetIntervalCastEv
libarrow.so.1700:_ZN5arrow7compute8internal15GetNumericCastsEv
libarrow.so.1700:_ZN5arrow7compute8internal15SortStructArrayEPNS0_11ExecContextEPmS4_RKNS_11StructArrayENS0_9SortOrderENS0_13NullPlacementE
libarrow.so.1700:_ZN5arrow7compute8internal16AddMinMaxKernelsESt8functionIFNS_6ResultISt10unique_ptrINS0_11KernelStateESt14default_deleteIS5_EEEEPNS0_13KernelContextERKNS0_14KernelInitArgsEEERKSt6vectorISt10shared_ptrINS_8DataTypeEESaISK_EEPNS0_23ScalarAggregateFunctionENS0_9SimdLevel4typeE
libarrow.so.1700:_ZN5arrow7compute8internal16CastToDictionaryEPNS0_13KernelContextERKNS0_8ExecSpanEPNS0_10ExecResultE
libarrow.so.1700:_ZN5arrow7compute8internal16GetTemporalCastsEv
libarrow.so.1700:_ZN5arrow7compute8internal16GetTimestampCastEv
libarrow.so.1700:_ZN5arrow7compute8internal16ListViewTakeExecEPNS0_13KernelContextERKNS0_8ExecSpanEPNS0_10ExecResultE
libarrow.so.1700:_ZN5arrow7compute8internal16MinMaxInitAvx512EPNS0_13KernelContextERKNS0_14KernelInitArgsE
libarrow.so.1700:_ZN5arrow7compute8internal16SortChunkedArrayEPNS0_11ExecContextEPmS4_RKNS_12ChunkedArrayENS0_9SortOrderENS0_13NullPlacementE
libarrow.so.1700:_ZN5arrow7compute8internal16SortChunkedArrayEPNS0_11ExecContextEPmS4_RKSt10shared_ptrINS_8DataTypeEERKSt6vectorIS5_INS_5ArrayEESaISC_EENS0_9SortOrderENS0_13NullPlacementE
libarrow.so.1700:_ZN5arrow7compute8internal16UnpackDictionaryEPNS0_13KernelContextERKNS0_8ExecSpanEPNS0_10ExecResultE
libarrow.so.1700:_ZN5arrow7compute8internal16ZeroCopyCastExecEPNS0_13KernelContextERKNS0_8ExecSpanEPNS0_10ExecResultE
libarrow.so.1700:_ZN5arrow7compute8internal17BooleanKeyEncoder10EncodeNullEPPh
libarrow.so.1700:_ZN5arrow7compute8internal17BooleanKeyEncoder13AddLengthNullEPi
libarrow.so.1700:_ZN5arrow7compute8internal17BooleanKeyEncoder6DecodeEPPhiPNS_10MemoryPoolE
libarrow.so.1700:_ZN5arrow7compute8internal17BooleanKeyEncoder6EncodeERKNS0_9ExecValueElPPh
libarrow.so.1700:_ZN5arrow7compute8internal17BooleanKeyEncoder9AddLengthERKNS0_9ExecValueElPi
libarrow.so.1700:_ZN5arrow7compute8internal17CastFromExtensionEPNS0_13KernelContextERKNS0_8ExecSpanEPNS0_10ExecResultE
libarrow.so.1700:_ZN5arrow7compute8internal17GetExtensionCastsEv
libarrow.so.1700:_ZN5arrow7compute8internal17LargeListTakeExecEPNS0_13KernelContextERKNS0_8ExecSpanEPNS0_10ExecResultE
libarrow.so.1700:_ZN5arrow7compute8internal17VarBinaryTakeExecEPNS0_13KernelContextERKNS0_8ExecSpanEPNS0_10ExecResultE
libarrow.so.1700:_ZN5arrow7compute8internal18AddBasicAggKernelsESt8functionIFNS_6ResultISt10unique_ptrINS0_11KernelStateESt14default_deleteIS5_EEEEPNS0_13KernelContextERKNS0_14KernelInitArgsEEERKSt6vectorISt10shared_ptrINS_8DataTypeEESaISK_EESK_PNS0_23ScalarAggregateFunctionENS0_9SimdLevel4typeE
libarrow.so.1700:_ZN5arrow7compute8internal18AddFirstLastKernelESt8functionIFNS_6ResultISt10unique_ptrINS0_11KernelStateESt14default_deleteIS5_EEEEPNS0_13KernelContextERKNS0_14KernelInitArgsEEENS1_6detail9GetTypeIdEPNS0_23ScalarAggregateFunctionENS0_9SimdLevel4typeE
libarrow.so.1700:_ZN5arrow7compute8internal18DecimalCastFunctorINS_14Decimal128TypeENS_10BinaryTypeEE4ExecEPNS0_13KernelContextERKNS0_8ExecSpanEPNS0_10ExecResultE
libarrow.so.1700:_ZN5arrow7compute8internal18DecimalCastFunctorINS_14Decimal128TypeENS_15LargeBinaryTypeEE4ExecEPNS0_13KernelContextERKNS0_8ExecSpanEPNS0_10ExecResultE
libarrow.so.1700:_ZN5arrow7compute8internal18DecimalCastFunctorINS_14Decimal256TypeENS_10BinaryTypeEE4ExecEPNS0_13KernelContextERKNS0_8ExecSpanEPNS0_10ExecResultE
libarrow.so.1700:_ZN5arrow7compute8internal18DecimalCastFunctorINS_14Decimal256TypeENS_15LargeBinaryTypeEE4ExecEPNS0_13KernelContextERKNS0_8ExecSpanEPNS0_10ExecResultE
libarrow.so.1700:_ZN5arrow7compute8internal18DenseUnionTakeExecEPNS0_13KernelContextERKNS0_8ExecSpanEPNS0_10ExecResultE
libarrow.so.1700:_ZN5arrow7compute8internal18FixedWidthTakeExecEPNS0_13KernelContextERKNS0_8ExecSpanEPNS0_10ExecResultE
libarrow.so.1700:_ZN5arrow7compute8internal18GetBinaryLikeCastsEv
libarrow.so.1700:_ZN5arrow7compute8internal18GetDictionaryCastsEv
libarrow.so.1700:_ZN5arrow7compute8internal18ListViewFilterExecEPNS0_13KernelContextERKNS0_8ExecSpanEPNS0_10ExecResultE
libarrow.so.1700:_ZN5arrow7compute8internal18RegisterScalarCastEPNS0_16FunctionRegistryE
libarrow.so.1700:_ZN5arrow7compute8internal18RegisterVectorHashEPNS0_16FunctionRegistryE
libarrow.so.1700:_ZN5arrow7compute8internal18RegisterVectorRankEPNS0_16FunctionRegistryE
libarrow.so.1700:_ZN5arrow7compute8internal18RegisterVectorSortEPNS0_16FunctionRegistryE
libarrow.so.1700:_ZN5arrow7compute8internal19AddFirstLastKernelsESt8functionIFNS_6ResultISt10unique_ptrINS0_11KernelStateESt14default_deleteIS5_EEEEPNS0_13KernelContextERKNS0_14KernelInitArgsEEERKSt6vectorISt10shared_ptrINS_8DataTypeEESaISK_EEPNS0_23ScalarAggregateFunctionE
libarrow.so.1700:_ZN5arrow7compute8internal19AddScalarAggKernelsESt8functionIFNS_6ResultISt10unique_ptrINS0_11KernelStateESt14default_deleteIS5_EEEEPNS0_13KernelContextERKNS0_14KernelInitArgsEEERKSt6vectorISt10shared_ptrINS_8DataTypeEESaISK_EESK_PNS0_23ScalarAggregateFunctionE
libarrow.so.1700:_ZN5arrow7compute8internal19GetFilterOutputSizeERKNS_9ArraySpanENS0_13FilterOptions21NullSelectionBehaviorE
libarrow.so.1700:_ZN5arrow7compute8internal19LargeListFilterExecEPNS0_13KernelContextERKNS0_8ExecSpanEPNS0_10ExecResultE
libarrow.so.1700:_ZN5arrow7compute8internal19PopulateTakeKernelsEPSt6vectorINS1_19SelectionKernelDataESaIS3_EE
libarrow.so.1700:_ZN5arrow7compute8internal19PrimitiveFilterExecEPNS0_13KernelContextERKNS0_8ExecSpanEPNS0_10ExecResultE
libarrow.so.1700:_ZN5arrow7compute8internal19SparseUnionTakeExecEPNS0_13KernelContextERKNS0_8ExecSpanEPNS0_10ExecResultE
libarrow.so.1700:_ZN5arrow7compute8internal20AddSumAvx2AggKernelsEPNS0_23ScalarAggregateFunctionE
libarrow.so.1700:_ZN5arrow7compute8internal20CastIntegerToIntegerEPNS0_13KernelContextERKNS0_8ExecSpanEPNS0_10ExecResultE
libarrow.so.1700:_ZN5arrow7compute8internal20DenseUnionFilterExecEPNS0_13KernelContextERKNS0_8ExecSpanEPNS0_10ExecResultE
libarrow.so.1700:_ZN5arrow7compute8internal20DictionaryKeyEncoder6DecodeEPPhiPNS_10MemoryPoolE
libarrow.so.1700:_ZN5arrow7compute8internal20DictionaryKeyEncoder6EncodeERKNS0_9ExecValueElPPh
libarrow.so.1700:_ZN5arrow7compute8internal20FixedWidthKeyEncoder10EncodeNullEPPh
libarrow.so.1700:_ZN5arrow7compute8internal20FixedWidthKeyEncoder13AddLengthNullEPi
libarrow.so.1700:_ZN5arrow7compute8internal20FixedWidthKeyEncoder6DecodeEPPhiPNS_10MemoryPoolE
libarrow.so.1700:_ZN5arrow7compute8internal20FixedWidthKeyEncoder6EncodeERKNS0_9ExecValueElPPh
libarrow.so.1700:_ZN5arrow7compute8internal20FixedWidthKeyEncoder9AddLengthERKNS0_9ExecValueElPi
libarrow.so.1700:_ZN5arrow7compute8internal20MakeTakeMetaFunctionEv
libarrow.so.1700:_ZN5arrow7compute8internal20RegisterScalarIfElseEPNS0_16FunctionRegistryE
libarrow.so.1700:_ZN5arrow7compute8internal20RegisterScalarNestedEPNS0_16FunctionRegistryE
libarrow.so.1700:_ZN5arrow7compute8internal20RegisterScalarRandomEPNS0_16FunctionRegistryE
libarrow.so.1700:_ZN5arrow7compute8internal20RegisterVectorNestedEPNS0_16FunctionRegistryE
libarrow.so.1700:_ZN5arrow7compute8internal20ReplaceTemporalTypesENS_8TimeUnit4typeEPSt6vectorINS_10TypeHolderESaIS5_EE
libarrow.so.1700:_ZN5arrow7compute8internal21AddMeanAvx2AggKernelsEPNS0_23ScalarAggregateFunctionE
libarrow.so.1700:_ZN5arrow7compute8internal21CastBinaryDecimalArgsENS1_16DecimalPromotionEPSt6vectorINS_10TypeHolderESaIS4_EE
libarrow.so.1700:_ZN5arrow7compute8internal21CastFloatingToIntegerEPNS0_13KernelContextERKNS0_8ExecSpanEPNS0_10ExecResultE
libarrow.so.1700:_ZN5arrow7compute8internal21CastIntegerToFloatingEPNS0_13KernelContextERKNS0_8ExecSpanEPNS0_10ExecResultE
libarrow.so.1700:_ZN5arrow7compute8internal21CheckAllArrayOrScalarERKSt6vectorINS_5DatumESaIS3_EE
libarrow.so.1700:_ZN5arrow7compute8internal21GetDefaultTakeOptionsEv
libarrow.so.1700:_ZN5arrow7compute8internal21LargeListViewTakeExecEPNS0_13KernelContextERKNS0_8ExecSpanEPNS0_10ExecResultE
libarrow.so.1700:_ZN5arrow7compute8internal21PopulateFilterKernelsEPSt6vectorINS1_19SelectionKernelDataESaIS3_EE
libarrow.so.1700:_ZN5arrow7compute8internal21RegisterScalarBooleanEPNS0_16FunctionRegistryE
libarrow.so.1700:_ZN5arrow7compute8internal21RegisterScalarOptionsEPNS0_16FunctionRegistryE
libarrow.so.1700:_ZN5arrow7compute8internal21RegisterVectorOptionsEPNS0_16FunctionRegistryE
libarrow.so.1700:_ZN5arrow7compute8internal21RegisterVectorReplaceEPNS0_16FunctionRegistryE
libarrow.so.1700:_ZN5arrow7compute8internal21RegisterVectorSelectKEPNS0_16FunctionRegistryE
libarrow.so.1700:_ZN5arrow7compute8internal22AddSumAvx512AggKernelsEPNS0_23ScalarAggregateFunctionE
libarrow.so.1700:_ZN5arrow7compute8internal22CastFloatingToFloatingEPNS0_13KernelContextERKNS0_8ExecSpanEPNS0_10ExecResultE
libarrow.so.1700:_ZN5arrow7compute8internal22ExampleParametricTypesEv
libarrow.so.1700:_ZN5arrow7compute8internal22LargeVarBinaryTakeExecEPNS0_13KernelContextERKNS0_8ExecSpanEPNS0_10ExecResultE
libarrow.so.1700:_ZN5arrow7compute8internal22MakeFilterMetaFunctionEv
libarrow.so.1700:_ZN5arrow7compute8internal22RegisterScalarValidityEPNS0_16FunctionRegistryE
libarrow.so.1700:_ZN5arrow7compute8internal22RegisterVectorPairwiseEPNS0_16FunctionRegistryE
libarrow.so.1700:_ZN5arrow7compute8internal23AddMeanAvx512AggKernelsEPNS0_23ScalarAggregateFunctionE
libarrow.so.1700:_ZN5arrow7compute8internal23AddMinMaxAvx2AggKernelsEPNS0_23ScalarAggregateFunctionE
libarrow.so.1700:_ZN5arrow7compute8internal23EnsureDictionaryDecodedEPNS_10TypeHolderEm
libarrow.so.1700:_ZN5arrow7compute8internal23EnsureDictionaryDecodedEPSt6vectorINS_10TypeHolderESaIS3_EE
libarrow.so.1700:_ZN5arrow7compute8internal23GetDefaultFilterOptionsEv
libarrow.so.1700:_ZN5arrow7compute8internal23LargeListViewFilterExecEPNS0_13KernelContextERKNS0_8ExecSpanEPNS0_10ExecResultE
libarrow.so.1700:_ZN5arrow7compute8internal23RegisterScalarSetLookupEPNS0_16FunctionRegistryE
libarrow.so.1700:_ZN5arrow7compute8internal23RegisterVectorArraySortEPNS0_16FunctionRegistryE
libarrow.so.1700:_ZN5arrow7compute8internal23RegisterVectorSelectionEPNS0_16FunctionRegistryE
libarrow.so.1700:_ZN5arrow7compute8internal24AddArrayScalarAggKernelsESt8functionIFNS_6ResultISt10unique_ptrINS0_11KernelStateESt14default_deleteIS5_EEEEPNS0_13KernelContextERKNS0_14KernelInitArgsEEERKSt6vectorISt10shared_ptrINS_8DataTypeEESaISK_EESK_PNS0_23ScalarAggregateFunctionENS0_9SimdLevel4typeE
libarrow.so.1700:_ZN5arrow7compute8internal24CastNumberToNumberUnsafeENS_4Type4typeES3_RKNS_9ArraySpanEPS4_
libarrow.so.1700:_ZN5arrow7compute8internal24CommonTemporalResolutionEPKNS_10TypeHolderEmPNS_8TimeUnit4typeE
libarrow.so.1700:_ZN5arrow7compute8internal24GetFunctionArgumentTypesERKSt6vectorINS_5DatumESaIS3_EE
libarrow.so.1700:_ZN5arrow7compute8internal24RegisterAggregateOptionsEPNS0_16FunctionRegistryE
libarrow.so.1700:_ZN5arrow7compute8internal24RegisterDictionaryDecodeEPNS0_16FunctionRegistryE
libarrow.so.1700:_ZN5arrow7compute8internal24RegisterScalarArithmeticEPNS0_16FunctionRegistryE
libarrow.so.1700:_ZN5arrow7compute8internal24RegisterScalarComparisonEPNS0_16FunctionRegistryE
libarrow.so.1700:_ZN5arrow7compute8internal24RegisterScalarStringUtf8EPNS0_16FunctionRegistryE
libarrow.so.1700:_ZN5arrow7compute8internal24ReplaceNullWithOtherTypeEPNS_10TypeHolderEm
libarrow.so.1700:_ZN5arrow7compute8internal24ReplaceNullWithOtherTypeEPSt6vectorINS_10TypeHolderESaIS3_EE
libarrow.so.1700:_ZN5arrow7compute8internal24ResolveOutputFromOptionsEPNS0_13KernelContextERKSt6vectorINS_10TypeHolderESaIS5_EE
libarrow.so.1700:_ZN5arrow7compute8internal25AddMinMaxAvx512AggKernelsEPNS0_23ScalarAggregateFunctionE
libarrow.so.1700:_ZN5arrow7compute8internal25CheckFloatToIntTruncationERKNS0_9ExecValueERKNS0_10ExecResultE
libarrow.so.1700:_ZN5arrow7compute8internal25RegisterScalarStringAsciiEPNS0_16FunctionRegistryE
libarrow.so.1700:_ZN5arrow7compute8internal25RegisterSelectionFunctionERKNSt7__cxx1112basic_stringIcSt11char_traitsIcESaIcEEENS0_11FunctionDocENS0_12VectorKernelEOSt6vectorINS1_19SelectionKernelDataESaISD_EEPKNS0_15FunctionOptionsEPNS0_16FunctionRegistryE
libarrow.so.1700:_ZN5arrow7compute8internal26DeserializeFunctionOptionsERKNS_6BufferE
libarrow.so.1700:_ZN5arrow7compute8internal26RegisterHashAggregateBasicEPNS0_16FunctionRegistryE
libarrow.so.1700:_ZN5arrow7compute8internal26RegisterVectorRunEndDecodeEPNS0_16FunctionRegistryE
libarrow.so.1700:_ZN5arrow7compute8internal26RegisterVectorRunEndEncodeEPNS0_16FunctionRegistryE
libarrow.so.1700:_ZN5arrow7compute8internal27RegisterScalarAggregateModeEPNS0_16FunctionRegistryE
libarrow.so.1700:_ZN5arrow7compute8internal27RegisterScalarTemporalUnaryEPNS0_16FunctionRegistryE
libarrow.so.1700:_ZN5arrow7compute8internal27RegisterVectorCumulativeSumEPNS0_16FunctionRegistryE
libarrow.so.1700:_ZN5arrow7compute8internal28EnsureUtf8LookupTablesFilledEv
libarrow.so.1700:_ZN5arrow7compute8internal28RegisterScalarAggregateBasicEPNS0_16FunctionRegistryE
libarrow.so.1700:_ZN5arrow7compute8internal28RegisterScalarTemporalBinaryEPNS0_16FunctionRegistryE
libarrow.so.1700:_ZN5arrow7compute8internal29FunctionOptionsToStructScalarERKNS0_15FunctionOptionsE
libarrow.so.1700:_ZN5arrow7compute8internal29RegisterScalarRoundArithmeticEPNS0_16FunctionRegistryE
libarrow.so.1700:_ZN5arrow7compute8internal30RegisterScalarAggregateTDigestEPNS0_16FunctionRegistryE
libarrow.so.1700:_ZN5arrow7compute8internal31FunctionOptionsFromStructScalarERKNS_12StructScalarE
libarrow.so.1700:_ZN5arrow7compute8internal31RegisterScalarAggregateQuantileEPNS0_16FunctionRegistryE
libarrow.so.1700:_ZN5arrow7compute8internal31RegisterScalarAggregateVarianceEPNS0_16FunctionRegistryE
libarrow.so.1700:_ZN5arrow7compute8internal34VisitPlainxREEFilterOutputSegmentsERKNS_9ArraySpanEbNS0_13FilterOptions21NullSelectionBehaviorERKSt8functionIFbllbEE
libarrow.so.1700:_ZN5arrow7compute8internal35CheckForIntegerToFloatingTruncationERKNS0_9ExecValueENS_4Type4typeE
libarrow.so.1700:_ZN5arrow7compute8internal35PromoteIntegerForDurationArithmeticEPSt6vectorINS_10TypeHolderESaIS3_EE
libarrow.so.1700:_ZN5arrow7compute8internal8LastTypeEPNS0_13KernelContextERKSt6vectorINS_10TypeHolderESaIS5_EE
libarrow.so.1700:_ZN5arrow7compute8internal8ree_util16MakeNullREEArrayERKSt10shared_ptrINS_8DataTypeEElPNS_10MemoryPoolE
libarrow.so.1700:_ZN5arrow7compute8internal8ree_util17WriteSingleRunEndEPNS_9ArrayDataEl
libarrow.so.1700:_ZN5arrow7compute8internal8ree_util19PreallocateREEArrayESt10shared_ptrINS_17RunEndEncodedTypeEEbllPNS_10MemoryPoolEl
libarrow.so.1700:_ZN5arrow7compute8internal8ree_util20AllocateValuesBufferElRKNS_8DataTypeEPNS_10MemoryPoolEl
libarrow.so.1700:_ZN5arrow7compute8internal8ree_util22PreallocateValuesArrayERKSt10shared_ptrINS_8DataTypeEEblPNS_10MemoryPoolEl
libarrow.so.1700:_ZN5arrow7compute8internal8ree_util23PreallocateRunEndsArrayERKSt10shared_ptrINS_8DataTypeEElPNS_10MemoryPoolE
libarrow.so.1700:_ZN5arrow7compute8internal9AddKernelENS_4Type4typeESt10shared_ptrINS0_15KernelSignatureEEPFNS_6StatusEPNS0_13KernelContextERKNS0_8ExecSpanEPNS0_10ExecResultEEPFS7_S9_RKNS0_9ExecBatchEPNS_5DatumEEPNS0_16FunctionRegistryEPNS0_14VectorFunctionE
libarrow.so.1700:_ZN5arrow7compute8internal9FirstTypeEPNS0_13KernelContextERKSt6vectorINS_10TypeHolderESaIS5_EE
libarrow.so.1700:_ZN5arrow7compute8is_validENS0_10ExpressionE
libarrow.so.1700:_ZN5arrow7compute9DayOfWeekERKNS_5DatumENS0_16DayOfWeekOptionsEPNS0_11ExecContextE
libarrow.so.1700:_ZN5arrow7compute9DayOfYearERKNS_5DatumEPNS0_11ExecContextE
libarrow.so.1700:_ZN5arrow7compute9ExecBatch11InferLengthERKSt6vectorINS_5DatumESaIS3_EE
libarrow.so.1700:_ZN5arrow7compute9ExecBatch4MakeESt6vectorINS_5DatumESaIS3_EEl
libarrow.so.1700:_ZN5arrow7compute9ExecBatchC1ERKNS_11RecordBatchE
libarrow.so.1700:_ZN5arrow7compute9ExecBatchC2ERKNS_11RecordBatchE
libarrow.so.1700:_ZN5arrow7compute9Hashing3210HashVarLenElbjPKjPKhPjS6_
libarrow.so.1700:_ZN5arrow7compute9Hashing3210HashVarLenElbjPKmPKhPjS6_
libarrow.so.1700:_ZN5arrow7compute9Hashing3215HashMultiColumnERKSt6vectorINS0_14KeyColumnArrayESaIS3_EEPNS0_12LightContextEPj
libarrow.so.1700:_ZN5arrow7compute9Hashing3215HashVarLen_avx2EbjPKjPKhPjS6_
libarrow.so.1700:_ZN5arrow7compute9Hashing3215HashVarLen_avx2EbjPKmPKhPjS6_
libarrow.so.1700:_ZN5arrow7compute9Hashing3217HashFixedLen_avx2EbjmPKhPjS4_
libarrow.so.1700:_ZN5arrow7compute9Hashing327HashBitEbljPKhPj
libarrow.so.1700:_ZN5arrow7compute9Hashing327HashIntEbjmPKhPj
libarrow.so.1700:_ZN5arrow7compute9Hashing329HashBatchERKNS0_9ExecBatchEPjRSt6vectorINS0_14KeyColumnArrayESaIS7_EElPNS_4util15TempVectorStackEll
libarrow.so.1700:_ZN5arrow7compute9Hashing329HashFixedElbjmPKhPjS4_
libarrow.so.1700:_ZN5arrow7compute9Hashing6410HashVarLenEbjPKjPKhPm
libarrow.so.1700:_ZN5arrow7compute9Hashing6410HashVarLenEbjPKmPKhPm
libarrow.so.1700:_ZN5arrow7compute9Hashing6415HashMultiColumnERKSt6vectorINS0_14KeyColumnArrayESaIS3_EEPNS0_12LightContextEPm
libarrow.so.1700:_ZN5arrow7compute9Hashing647HashBitEbljPKhPm
libarrow.so.1700:_ZN5arrow7compute9Hashing647HashIntEbjmPKhPm
libarrow.so.1700:_ZN5arrow7compute9Hashing649HashBatchERKNS0_9ExecBatchEPmRSt6vectorINS0_14KeyColumnArrayESaIS7_EElPNS_4util15TempVectorStackEll
libarrow.so.1700:_ZN5arrow7compute9Hashing649HashFixedEbjmPKhPm
libarrow.so.1700:_ZN5arrow7compute9IdenticalERKNS0_10ExpressionES3_
libarrow.so.1700:_ZN5arrow7compute9KleeneAndERKNS_5DatumES3_PNS0_11ExecContextE
libarrow.so.1700:_ZN5arrow7compute9MapLookupERKNS_5DatumENS0_16MapLookupOptionsEPNS0_11ExecContextE
libarrow.so.1700:_ZN5arrow7compute9SerializeERKNS0_10ExpressionE
libarrow.so.1700:_ZN5arrow7compute9ShiftLeftERKNS_5DatumES3_NS0_17ArithmeticOptionsEPNS0_11ExecContextE
libarrow.so.1700:_ZN5arrow7compute9SubsecondERKNS_5DatumEPNS0_11ExecContextE
libarrow.so.1700:_ZN5arrow7compute9field_refENS_8FieldRefE
libarrow.so.1700:_ZN5arrow7compute9not_equalENS0_10ExpressionES1_
libarrow.so.1700:_ZN5arrow7decimalEii
libarrow.so.1700:_ZN5arrow7float16Ev
libarrow.so.1700:_ZN5arrow7float32Ev
libarrow.so.1700:_ZN5arrow7float64Ev
libarrow.so.1700:_ZN5arrow7struct_ERKSt6vectorISt10shared_ptrINS_5FieldEESaIS3_EE
libarrow.so.1700:_ZN5arrow7struct_ESt16initializer_listISt4pairINSt7__cxx1112basic_stringIcSt11char_traitsIcESaIcEEESt10shared_ptrINS_8DataTypeEEEE
libarrow.so.1700:_ZN5arrow8DataTypeD0Ev
libarrow.so.1700:_ZN5arrow8DataTypeD1Ev
libarrow.so.1700:_ZN5arrow8DataTypeD2Ev
libarrow.so.1700:_ZN5arrow8DateTypeC1ENS_4Type4typeE
libarrow.so.1700:_ZN5arrow8DateTypeC2ENS_4Type4typeE
libarrow.so.1700:_ZN5arrow8FieldRef11FromDotPathERKNSt7__cxx1112basic_stringIcSt11char_traitsIcESaIcEEE
libarrow.so.1700:_ZN5arrow8FieldRef7FlattenESt6vectorIS0_SaIS0_EE
libarrow.so.1700:_ZN5arrow8FieldRefC1ENS_9FieldPathE
libarrow.so.1700:_ZN5arrow8FieldRefC2ENS_9FieldPathE
libarrow.so.1700:_ZN5arrow8IntTypesEv
libarrow.so.1700:_ZN5arrow8IteratorISt10shared_ptrINS_11RecordBatchEEE4NextINS_14VectorIteratorIS3_EEEENS_6ResultIS3_EEPv
libarrow.so.1700:_ZN5arrow8IteratorISt10shared_ptrINS_11RecordBatchEEE6DeleteINS_14VectorIteratorIS3_EEEEvPv
libarrow.so.1700:_ZN5arrow8IteratorISt10shared_ptrINS_6BufferEEE4NextINS_17GeneratorIteratorIS3_EEEENS_6ResultIS3_EEPv
libarrow.so.1700:_ZN5arrow8IteratorISt10shared_ptrINS_6BufferEEE4NextINS_17TransformIteratorIS3_S3_EEEENS_6ResultIS3_EEPv
libarrow.so.1700:_ZN5arrow8IteratorISt10shared_ptrINS_6BufferEEE6DeleteINS_17GeneratorIteratorIS3_EEEEvPv
libarrow.so.1700:_ZN5arrow8IteratorISt10shared_ptrINS_6BufferEEE6DeleteINS_17TransformIteratorIS3_S3_EEEEvPv
libarrow.so.1700:_ZN5arrow8MapArray10FromArraysERKSt10shared_ptrINS_5ArrayEES5_S5_PNS_10MemoryPoolES1_INS_6BufferEE
libarrow.so.1700:_ZN5arrow8MapArray10FromArraysESt10shared_ptrINS_8DataTypeEERKS1_INS_5ArrayEES7_S7_PNS_10MemoryPoolES1_INS_6BufferEE
libarrow.so.1700:_ZN5arrow8MapArray17ValidateChildDataERKSt6vectorISt10shared_ptrINS_9ArrayDataEESaIS4_EE
libarrow.so.1700:_ZN5arrow8MapArray18FromArraysInternalESt10shared_ptrINS_8DataTypeEERKS1_INS_5ArrayEES7_S7_PNS_10MemoryPoolES1_INS_6BufferEE
libarrow.so.1700:_ZN5arrow8MapArray7SetDataERKSt10shared_ptrINS_9ArrayDataEE
libarrow.so.1700:_ZN5arrow8MapArrayC1ERKSt10shared_ptrINS_8DataTypeEElRKS1_INS_6BufferEERKS1_INS_5ArrayEES9_ll
libarrow.so.1700:_ZN5arrow8MapArrayC1ERKSt10shared_ptrINS_8DataTypeEElRKS1_INS_6BufferEERKS1_INS_5ArrayEESD_S9_ll
libarrow.so.1700:_ZN5arrow8MapArrayC1ERKSt10shared_ptrINS_8DataTypeEElSt6vectorIS1_INS_6BufferEESaIS8_EERKS1_INS_5ArrayEESE_ll
libarrow.so.1700:_ZN5arrow8MapArrayC1ERKSt10shared_ptrINS_9ArrayDataEE
libarrow.so.1700:_ZN5arrow8MapArrayC2ERKSt10shared_ptrINS_8DataTypeEElRKS1_INS_6BufferEERKS1_INS_5ArrayEES9_ll
libarrow.so.1700:_ZN5arrow8MapArrayC2ERKSt10shared_ptrINS_8DataTypeEElRKS1_INS_6BufferEERKS1_INS_5ArrayEESD_S9_ll
libarrow.so.1700:_ZN5arrow8MapArrayC2ERKSt10shared_ptrINS_8DataTypeEElSt6vectorIS1_INS_6BufferEESaIS8_EERKS1_INS_5ArrayEESE_ll
libarrow.so.1700:_ZN5arrow8MapArrayC2ERKSt10shared_ptrINS_9ArrayDataEE
libarrow.so.1700:_ZN5arrow8NullDiffERKNS_5ArrayES2_PNS_10MemoryPoolE
libarrow.so.1700:_ZN5arrow8TimeTypeC1ENS_4Type4typeENS_8TimeUnit4typeE
libarrow.so.1700:_ZN5arrow8TimeTypeC2ENS_4Type4typeENS_8TimeUnit4typeE
libarrow.so.1700:_ZN5arrow8TimeUnit6valuesEv
libarrow.so.1700:_ZN5arrow8ToStringB5cxx11ENS_5Datum4KindE
libarrow.so.1700:_ZN5arrow8bit_util11ClearBitmapEPhll
libarrow.so.1700:_ZN5arrow8bit_util9SetBitmapEPhll
libarrow.so.1700:_ZN5arrow8bit_util9SetBitsToEPhllb
libarrow.so.1700:_ZN5arrow8durationENS_8TimeUnit4typeE
libarrow.so.1700:_ZN5arrow8internal10CopyBitmapEPKhllPhl
libarrow.so.1700:_ZN5arrow8internal10CopyBitmapEPNS_10MemoryPoolEPKhll
libarrow.so.1700:_ZN5arrow8internal10CreatePipeEv
libarrow.so.1700:_ZN5arrow8internal10DeleteFileERKNS0_16PlatformFilenameEb
libarrow.so.1700:_ZN5arrow8internal10FileExistsERKNS0_16PlatformFilenameE
libarrow.so.1700:_ZN5arrow8internal10FileReadAtEiPhll
libarrow.so.1700:_ZN5arrow8internal10SendSignalEi
libarrow.so.1700:_ZN5arrow8internal10ThreadPool11GetCapacityEv
libarrow.so.1700:_ZN5arrow8internal10ThreadPool11GetNumTasksEv
libarrow.so.1700:_ZN5arrow8internal10ThreadPool11MakeEternalEi
libarrow.so.1700:_ZN5arrow8internal10ThreadPool11SetCapacityEi
libarrow.so.1700:_ZN5arrow8internal10ThreadPool11WaitForIdleEv
libarrow.so.1700:_ZN5arrow8internal10ThreadPool14OwnsThisThreadEv
libarrow.so.1700:_ZN5arrow8internal10ThreadPool15DefaultCapacityEv
libarrow.so.1700:_ZN5arrow8internal10ThreadPool17GetActualCapacityEv
libarrow.so.1700:_ZN5arrow8internal10ThreadPool17MakeCpuThreadPoolEv
libarrow.so.1700:_ZN5arrow8internal10ThreadPool21LaunchWorkersUnlockedEi
libarrow.so.1700:_ZN5arrow8internal10ThreadPool30CollectFinishedWorkersUnlockedEv
libarrow.so.1700:_ZN5arrow8internal10ThreadPool4MakeEi
libarrow.so.1700:_ZN5arrow8internal10ThreadPool8ShutdownEb
libarrow.so.1700:_ZN5arrow8internal10ThreadPool9KeepAliveESt10shared_ptrINS0_8Executor8ResourceEE
libarrow.so.1700:_ZN5arrow8internal10ThreadPool9SpawnRealENS0_9TaskHintsENS0_6FnOnceIFvvEEENS_9StopTokenEONS3_IFvRKNS_6StatusEEEE
libarrow.so.1700:_ZN5arrow8internal10ThreadPoolC1Ev
libarrow.so.1700:_ZN5arrow8internal10ThreadPoolC2Ev
libarrow.so.1700:_ZN5arrow8internal10ThreadPoolD0Ev
libarrow.so.1700:_ZN5arrow8internal10ThreadPoolD1Ev
libarrow.so.1700:_ZN5arrow8internal10ThreadPoolD2Ev
libarrow.so.1700:_ZN5arrow8internal10ToTypeNameB5cxx11ENS_4Type4typeE
libarrow.so.1700:_ZN5arrow8internal10TrimStringENSt7__cxx1112basic_stringIcSt11char_traitsIcESaIcEEE
libarrow.so.1700:_ZN5arrow8internal10UpcastIntsEPKiPll
libarrow.so.1700:_ZN5arrow8internal11BitmapOrNotEPKhlS2_lllPh
libarrow.so.1700:_ZN5arrow8internal11BitmapOrNotEPNS_10MemoryPoolEPKhlS4_lll
libarrow.so.1700:_ZN5arrow8internal11BytesToBitsERKSt6vectorIhSaIhEEPNS_10MemoryPoolE
libarrow.so.1700:_ZN5arrow8internal11FileGetSizeEi
libarrow.so.1700:_ZN5arrow8internal11GetPageSizeEv
libarrow.so.1700:_ZN5arrow8internal11GetThreadIdEv
libarrow.so.1700:_ZN5arrow8internal11JoinStringsB5cxx11ERKSt6vectorISt17basic_string_viewIcSt11char_traitsIcEESaIS5_EES5_
libarrow.so.1700:_ZN5arrow8internal11JoinStringsERKSt6vectorINSt7__cxx1112basic_stringIcSt11char_traitsIcESaIcEEESaIS7_EESt17basic_string_viewIcS5_E
libarrow.so.1700:_ZN5arrow8internal11SplitStringESt17basic_string_viewIcSt11char_traitsIcEEcl
libarrow.so.1700:_ZN5arrow8internal11TrieBuilder15AppendChildNodeEPNS0_4Trie4NodeEhOS3_
libarrow.so.1700:_ZN5arrow8internal11TrieBuilder15CreateChildNodeEPNS0_4Trie4NodeEcSt17basic_string_viewIcSt11char_traitsIcEE
libarrow.so.1700:_ZN5arrow8internal11TrieBuilder15CreateChildNodeEPNS0_4Trie4NodeEhSt17basic_string_viewIcSt11char_traitsIcEE
libarrow.so.1700:_ZN5arrow8internal11TrieBuilder17ExtendLookupTableEPs
libarrow.so.1700:_ZN5arrow8internal11TrieBuilder6AppendESt17basic_string_viewIcSt11char_traitsIcEEb
libarrow.so.1700:_ZN5arrow8internal11TrieBuilder6FinishEv
libarrow.so.1700:_ZN5arrow8internal11TrieBuilder9SplitNodeEll
libarrow.so.1700:_ZN5arrow8internal11TrieBuilderC1Ev
libarrow.so.1700:_ZN5arrow8internal11TrieBuilderC2Ev
libarrow.so.1700:_ZN5arrow8internal11integration21IntegrationJsonReader4OpenEPNS_10MemoryPoolERKSt10shared_ptrINS_2io12ReadableFileEE
libarrow.so.1700:_ZN5arrow8internal11integration21IntegrationJsonReader4OpenEPNS_10MemoryPoolESt10shared_ptrINS_6BufferEE
libarrow.so.1700:_ZN5arrow8internal11integration21IntegrationJsonReader4OpenESt10shared_ptrINS_6BufferEE
libarrow.so.1700:_ZN5arrow8internal11integration21IntegrationJsonReaderC1EPNS_10MemoryPoolESt10shared_ptrINS_6BufferEE
libarrow.so.1700:_ZN5arrow8internal11integration21IntegrationJsonReaderC2EPNS_10MemoryPoolESt10shared_ptrINS_6BufferEE
libarrow.so.1700:_ZN5arrow8internal11integration21IntegrationJsonReaderD1Ev
libarrow.so.1700:_ZN5arrow8internal11integration21IntegrationJsonReaderD2Ev
libarrow.so.1700:_ZN5arrow8internal11integration21IntegrationJsonWriter16WriteRecordBatchERKNS_11RecordBatchE
libarrow.so.1700:_ZN5arrow8internal11integration21IntegrationJsonWriter4OpenERKSt10shared_ptrINS_6SchemaEE
libarrow.so.1700:_ZN5arrow8internal11integration21IntegrationJsonWriter6FinishB5cxx11Ev
libarrow.so.1700:_ZN5arrow8internal11integration21IntegrationJsonWriterC1ERKSt10shared_ptrINS_6SchemaEE
libarrow.so.1700:_ZN5arrow8internal11integration21IntegrationJsonWriterC2ERKSt10shared_ptrINS_6SchemaEE
libarrow.so.1700:_ZN5arrow8internal11integration21IntegrationJsonWriterD1Ev
libarrow.so.1700:_ZN5arrow8internal11integration21IntegrationJsonWriterD2Ev
libarrow.so.1700:_ZN5arrow8internal11integration4json10ReadSchemaERKNS_9rapidjson12GenericValueINS3_4UTF8IcEENS3_19MemoryPoolAllocatorINS3_12CrtAllocatorEEEEEPNS_10MemoryPoolEPNS_3ipc14DictionaryMemoE
libarrow.so.1700:_ZN5arrow8internal11integration4json10WriteArrayERKNSt7__cxx1112basic_stringIcSt11char_traitsIcESaIcEEERKNS_5ArrayEPNS_9rapidjson6WriterINSE_19GenericStringBufferINSE_4UTF8IcEENSE_12CrtAllocatorEEESI_SI_SJ_Lj0EEE
libarrow.so.1700:_ZN5arrow8internal11integration4json11WriteSchemaERKNS_6SchemaERKNS_3ipc21DictionaryFieldMapperEPNS_9rapidjson6WriterINSA_19GenericStringBufferINSA_4UTF8IcEENSA_12CrtAllocatorEEESE_SE_SF_Lj0EEE
libarrow.so.1700:_ZN5arrow8internal11integration4json15ReadRecordBatchERKNS_9rapidjson12GenericValueINS3_4UTF8IcEENS3_19MemoryPoolAllocatorINS3_12CrtAllocatorEEEEERKSt10shared_ptrINS_6SchemaEEPNS_3ipc14DictionaryMemoEPNS_10MemoryPoolE
libarrow.so.1700:_ZN5arrow8internal11integration4json15WriteDictionaryElRKSt10shared_ptrINS_5ArrayEEPNS_9rapidjson6WriterINS8_19GenericStringBufferINS8_4UTF8IcEENS8_12CrtAllocatorEEESC_SC_SD_Lj0EEE
libarrow.so.1700:_ZN5arrow8internal11integration4json16WriteRecordBatchERKNS_11RecordBatchEPNS_9rapidjson6WriterINS6_19GenericStringBufferINS6_4UTF8IcEENS6_12CrtAllocatorEEESA_SA_SB_Lj0EEE
libarrow.so.1700:_ZN5arrow8internal11integration4json9ReadArrayEPNS_10MemoryPoolERKNS_9rapidjson12GenericValueINS5_4UTF8IcEENS5_19MemoryPoolAllocatorINS5_12CrtAllocatorEEEEERKSt10shared_ptrINS_5FieldEE
libarrow.so.1700:_ZN5arrow8internal11wrap_memcpyEPvPKvm
libarrow.so.1700:_ZN5arrow8internal12AsciiToLowerB5cxx11ESt17basic_string_viewIcSt11char_traitsIcEE
libarrow.so.1700:_ZN5arrow8internal12AsciiToUpperB5cxx11ESt17basic_string_viewIcSt11char_traitsIcEE
libarrow.so.1700:_ZN5arrow8internal12BitRunReaderC1EPKhll
libarrow.so.1700:_ZN5arrow8internal12BitRunReaderC2EPKhll
libarrow.so.1700:_ZN5arrow8internal12BitmapAndNotEPKhlS2_lllPh
libarrow.so.1700:_ZN5arrow8internal12BitmapAndNotEPNS_10MemoryPoolEPKhlS4_lll
libarrow.so.1700:_ZN5arrow8internal12BitmapEqualsEPKhlS2_ll
libarrow.so.1700:_ZN5arrow8internal12CountSetBitsEPKhll
libarrow.so.1700:_ZN5arrow8internal12DowncastIntsEPKlPal
libarrow.so.1700:_ZN5arrow8internal12DowncastIntsEPKlPil
libarrow.so.1700:_ZN5arrow8internal12DowncastIntsEPKlPll
libarrow.so.1700:_ZN5arrow8internal12DowncastIntsEPKlPsl
libarrow.so.1700:_ZN5arrow8internal12ErrnoMessageB5cxx11Ei
libarrow.so.1700:_ZN5arrow8internal12FileTruncateEil
libarrow.so.1700:_ZN5arrow8internal12GetArrayViewERKSt10shared_ptrINS_9ArrayDataEERKS1_INS_8DataTypeEE
libarrow.so.1700:_ZN5arrow8internal12InvertBitmapEPKhllPhl
libarrow.so.1700:_ZN5arrow8internal12InvertBitmapEPNS_10MemoryPoolEPKhll
libarrow.so.1700:_ZN5arrow8internal12ParseBooleanESt17basic_string_viewIcSt11char_traitsIcEE
libarrow.so.1700:_ZN5arrow8internal12ReverseUint8Eh
libarrow.so.1700:_ZN5arrow8internal12TemporaryDir4MakeERKNSt7__cxx1112basic_stringIcSt11char_traitsIcESaIcEEE
libarrow.so.1700:_ZN5arrow8internal12TemporaryDirC1EONS0_16PlatformFilenameE
libarrow.so.1700:_ZN5arrow8internal12TemporaryDirC2EONS0_16PlatformFilenameE
libarrow.so.1700:_ZN5arrow8internal12TemporaryDirD1Ev
libarrow.so.1700:_ZN5arrow8internal12TemporaryDirD2Ev
libarrow.so.1700:_ZN5arrow8internal12ValidateUTF8ERKNS_5ArrayE
libarrow.so.1700:_ZN5arrow8internal12ValidateUTF8ERKNS_9ArrayDataE
libarrow.so.1700:_ZN5arrow8internal13ChunkResolverC1EOS1_
libarrow.so.1700:_ZN5arrow8internal13ChunkResolverC1ERKS1_
libarrow.so.1700:_ZN5arrow8internal13ChunkResolverC1ERKSt6vectorIPKNS_5ArrayESaIS5_EE
libarrow.so.1700:_ZN5arrow8internal13ChunkResolverC1ERKSt6vectorISt10shared_ptrINS_11RecordBatchEESaIS5_EE
libarrow.so.1700:_ZN5arrow8internal13ChunkResolverC1ERKSt6vectorISt10shared_ptrINS_5ArrayEESaIS5_EE
libarrow.so.1700:_ZN5arrow8internal13ChunkResolverC2EOS1_
libarrow.so.1700:_ZN5arrow8internal13ChunkResolverC2ERKS1_
libarrow.so.1700:_ZN5arrow8internal13ChunkResolverC2ERKSt6vectorIPKNS_5ArrayESaIS5_EE
libarrow.so.1700:_ZN5arrow8internal13ChunkResolverC2ERKSt6vectorISt10shared_ptrINS_11RecordBatchEESaIS5_EE
libarrow.so.1700:_ZN5arrow8internal13ChunkResolverC2ERKSt6vectorISt10shared_ptrINS_5ArrayEESaIS5_EE
libarrow.so.1700:_ZN5arrow8internal13ChunkResolveraSEOS1_
libarrow.so.1700:_ZN5arrow8internal13ChunkResolveraSERKS1_
libarrow.so.1700:_ZN5arrow8internal13CreateDirTreeERKNS0_16PlatformFilenameE
libarrow.so.1700:_ZN5arrow8internal13DeleteDirTreeERKNS0_16PlatformFilenameEb
libarrow.so.1700:_ZN5arrow8internal13DowncastUIntsEPKmPhl
libarrow.so.1700:_ZN5arrow8internal13DowncastUIntsEPKmPjl
libarrow.so.1700:_ZN5arrow8internal13DowncastUIntsEPKmPml
libarrow.so.1700:_ZN5arrow8internal13DowncastUIntsEPKmPtl
libarrow.so.1700:_ZN5arrow8internal13GetCurrentRSSEv
libarrow.so.1700:_ZN5arrow8internal13GetRandomSeedEv
libarrow.so.1700:_ZN5arrow8internal13ReverseBitmapEPKhllPhl
libarrow.so.1700:_ZN5arrow8internal13ReverseBitmapEPNS_10MemoryPoolEPKhll
libarrow.so.1700:_ZN5arrow8internal13SignalHandlerC1EPFviE
libarrow.so.1700:_ZN5arrow8internal13SignalHandlerC1ERK9sigaction
libarrow.so.1700:_ZN5arrow8internal13SignalHandlerC1Ev
libarrow.so.1700:_ZN5arrow8internal13SignalHandlerC2EPFviE
libarrow.so.1700:_ZN5arrow8internal13SignalHandlerC2ERK9sigaction
libarrow.so.1700:_ZN5arrow8internal13SignalHandlerC2Ev
libarrow.so.1700:_ZN5arrow8internal13StringToFloatEPKcmcPd
libarrow.so.1700:_ZN5arrow8internal13StringToFloatEPKcmcPf
libarrow.so.1700:_ZN5arrow8internal13StringToFloatEPKcmcPt
libarrow.so.1700:_ZN5arrow8internal13TransposeIntsERKNS_8DataTypeES3_PKhPhlllPKi
libarrow.so.1700:_ZN5arrow8internal13TransposeIntsIaaEEvPKT_PT0_lPKi
libarrow.so.1700:_ZN5arrow8internal13TransposeIntsIahEEvPKT_PT0_lPKi
libarrow.so.1700:_ZN5arrow8internal13TransposeIntsIaiEEvPKT_PT0_lPKi
libarrow.so.1700:_ZN5arrow8internal13TransposeIntsIajEEvPKT_PT0_lPKi
libarrow.so.1700:_ZN5arrow8internal13TransposeIntsIalEEvPKT_PT0_lPKi
libarrow.so.1700:_ZN5arrow8internal13TransposeIntsIamEEvPKT_PT0_lPKi
libarrow.so.1700:_ZN5arrow8internal13TransposeIntsIasEEvPKT_PT0_lPKi
libarrow.so.1700:_ZN5arrow8internal13TransposeIntsIatEEvPKT_PT0_lPKi
libarrow.so.1700:_ZN5arrow8internal13TransposeIntsIhaEEvPKT_PT0_lPKi
libarrow.so.1700:_ZN5arrow8internal13TransposeIntsIhhEEvPKT_PT0_lPKi
libarrow.so.1700:_ZN5arrow8internal13TransposeIntsIhiEEvPKT_PT0_lPKi
libarrow.so.1700:_ZN5arrow8internal13TransposeIntsIhjEEvPKT_PT0_lPKi
libarrow.so.1700:_ZN5arrow8internal13TransposeIntsIhlEEvPKT_PT0_lPKi
libarrow.so.1700:_ZN5arrow8internal13TransposeIntsIhmEEvPKT_PT0_lPKi
libarrow.so.1700:_ZN5arrow8internal13TransposeIntsIhsEEvPKT_PT0_lPKi
libarrow.so.1700:_ZN5arrow8internal13TransposeIntsIhtEEvPKT_PT0_lPKi
libarrow.so.1700:_ZN5arrow8internal13TransposeIntsIiaEEvPKT_PT0_lPKi
libarrow.so.1700:_ZN5arrow8internal13TransposeIntsIihEEvPKT_PT0_lPKi
libarrow.so.1700:_ZN5arrow8internal13TransposeIntsIiiEEvPKT_PT0_lPKi
libarrow.so.1700:_ZN5arrow8internal13TransposeIntsIijEEvPKT_PT0_lPKi
libarrow.so.1700:_ZN5arrow8internal13TransposeIntsIilEEvPKT_PT0_lPKi
libarrow.so.1700:_ZN5arrow8internal13TransposeIntsIimEEvPKT_PT0_lPKi
libarrow.so.1700:_ZN5arrow8internal13TransposeIntsIisEEvPKT_PT0_lPKi
libarrow.so.1700:_ZN5arrow8internal13TransposeIntsIitEEvPKT_PT0_lPKi
libarrow.so.1700:_ZN5arrow8internal13TransposeIntsIjaEEvPKT_PT0_lPKi
libarrow.so.1700:_ZN5arrow8internal13TransposeIntsIjhEEvPKT_PT0_lPKi
libarrow.so.1700:_ZN5arrow8internal13TransposeIntsIjiEEvPKT_PT0_lPKi
libarrow.so.1700:_ZN5arrow8internal13TransposeIntsIjjEEvPKT_PT0_lPKi
libarrow.so.1700:_ZN5arrow8internal13TransposeIntsIjlEEvPKT_PT0_lPKi
libarrow.so.1700:_ZN5arrow8internal13TransposeIntsIjmEEvPKT_PT0_lPKi
libarrow.so.1700:_ZN5arrow8internal13TransposeIntsIjsEEvPKT_PT0_lPKi
libarrow.so.1700:_ZN5arrow8internal13TransposeIntsIjtEEvPKT_PT0_lPKi
libarrow.so.1700:_ZN5arrow8internal13TransposeIntsIlaEEvPKT_PT0_lPKi
libarrow.so.1700:_ZN5arrow8internal13TransposeIntsIlhEEvPKT_PT0_lPKi
libarrow.so.1700:_ZN5arrow8internal13TransposeIntsIliEEvPKT_PT0_lPKi
libarrow.so.1700:_ZN5arrow8internal13TransposeIntsIljEEvPKT_PT0_lPKi
libarrow.so.1700:_ZN5arrow8internal13TransposeIntsIllEEvPKT_PT0_lPKi
libarrow.so.1700:_ZN5arrow8internal13TransposeIntsIlmEEvPKT_PT0_lPKi
libarrow.so.1700:_ZN5arrow8internal13TransposeIntsIlsEEvPKT_PT0_lPKi
libarrow.so.1700:_ZN5arrow8internal13TransposeIntsIltEEvPKT_PT0_lPKi
libarrow.so.1700:_ZN5arrow8internal13TransposeIntsImaEEvPKT_PT0_lPKi
libarrow.so.1700:_ZN5arrow8internal13TransposeIntsImhEEvPKT_PT0_lPKi
libarrow.so.1700:_ZN5arrow8internal13TransposeIntsImiEEvPKT_PT0_lPKi
libarrow.so.1700:_ZN5arrow8internal13TransposeIntsImjEEvPKT_PT0_lPKi
libarrow.so.1700:_ZN5arrow8internal13TransposeIntsImlEEvPKT_PT0_lPKi
libarrow.so.1700:_ZN5arrow8internal13TransposeIntsImmEEvPKT_PT0_lPKi
libarrow.so.1700:_ZN5arrow8internal13TransposeIntsImsEEvPKT_PT0_lPKi
libarrow.so.1700:_ZN5arrow8internal13TransposeIntsImtEEvPKT_PT0_lPKi
libarrow.so.1700:_ZN5arrow8internal13TransposeIntsIsaEEvPKT_PT0_lPKi
libarrow.so.1700:_ZN5arrow8internal13TransposeIntsIshEEvPKT_PT0_lPKi
libarrow.so.1700:_ZN5arrow8internal13TransposeIntsIsiEEvPKT_PT0_lPKi
libarrow.so.1700:_ZN5arrow8internal13TransposeIntsIsjEEvPKT_PT0_lPKi
libarrow.so.1700:_ZN5arrow8internal13TransposeIntsIslEEvPKT_PT0_lPKi
libarrow.so.1700:_ZN5arrow8internal13TransposeIntsIsmEEvPKT_PT0_lPKi
libarrow.so.1700:_ZN5arrow8internal13TransposeIntsIssEEvPKT_PT0_lPKi
libarrow.so.1700:_ZN5arrow8internal13TransposeIntsIstEEvPKT_PT0_lPKi
libarrow.so.1700:_ZN5arrow8internal13TransposeIntsItaEEvPKT_PT0_lPKi
libarrow.so.1700:_ZN5arrow8internal13TransposeIntsIthEEvPKT_PT0_lPKi
libarrow.so.1700:_ZN5arrow8internal13TransposeIntsItiEEvPKT_PT0_lPKi
libarrow.so.1700:_ZN5arrow8internal13TransposeIntsItjEEvPKT_PT0_lPKi
libarrow.so.1700:_ZN5arrow8internal13TransposeIntsItlEEvPKT_PT0_lPKi
libarrow.so.1700:_ZN5arrow8internal13TransposeIntsItmEEvPKT_PT0_lPKi
libarrow.so.1700:_ZN5arrow8internal13TransposeIntsItsEEvPKT_PT0_lPKi
libarrow.so.1700:_ZN5arrow8internal13TransposeIntsIttEEvPKT_PT0_lPKi
libarrow.so.1700:_ZN5arrow8internal13ValidateArrayERKNS_5ArrayE
libarrow.so.1700:_ZN5arrow8internal13ValidateArrayERKNS_9ArrayDataE
libarrow.so.1700:_ZN5arrow8internal13unpack32_avx2EPKjPjii
libarrow.so.1700:_ZN5arrow8internal14DetectIntWidthEPKlPKhlh
libarrow.so.1700:_ZN5arrow8internal14DetectIntWidthEPKllh
libarrow.so.1700:_ZN5arrow8internal14DieWithMessageERKNSt7__cxx1112basic_stringIcSt11char_traitsIcESaIcEEE
libarrow.so.1700:_ZN5arrow8internal14FileDescriptor19CloseFromDestructorEi
libarrow.so.1700:_ZN5arrow8internal14FileDescriptor5CloseEv
libarrow.so.1700:_ZN5arrow8internal14FileDescriptor6DetachEv
libarrow.so.1700:_ZN5arrow8internal14FileDescriptorC1EOS1_
libarrow.so.1700:_ZN5arrow8internal14FileDescriptorC2EOS1_
libarrow.so.1700:_ZN5arrow8internal14FileDescriptorD1Ev
libarrow.so.1700:_ZN5arrow8internal14FileDescriptorD2Ev
libarrow.so.1700:_ZN5arrow8internal14FileDescriptoraSEOS1_
libarrow.so.1700:_ZN5arrow8internal14IntegersCanFitERKNS_6ScalarERKNS_8DataTypeE
libarrow.so.1700:_ZN5arrow8internal14IntegersCanFitERKNS_9ArraySpanERKNS_8DataTypeE
libarrow.so.1700:_ZN5arrow8internal14MemoryMapRemapEPvmmiPS1_
libarrow.so.1700:_ZN5arrow8internal14RegisterAtForkESt8weak_ptrINS0_13AtForkHandlerEE
libarrow.so.1700:_ZN5arrow8internal14SerialExecutor10IsFinishedEv
libarrow.so.1700:_ZN5arrow8internal14SerialExecutor11GetNumTasksEv
libarrow.so.1700:_ZN5arrow8internal14SerialExecutor14OwnsThisThreadEv
libarrow.so.1700:_ZN5arrow8internal14SerialExecutor5PauseEv
libarrow.so.1700:_ZN5arrow8internal14SerialExecutor6FinishEv
libarrow.so.1700:_ZN5arrow8internal14SerialExecutor7RunLoopEv
libarrow.so.1700:_ZN5arrow8internal14SerialExecutor7UnpauseEv
libarrow.so.1700:_ZN5arrow8internal14SerialExecutor9SpawnRealENS0_9TaskHintsENS0_6FnOnceIFvvEEENS_9StopTokenEONS3_IFvRKNS_6StatusEEEE
libarrow.so.1700:_ZN5arrow8internal14SerialExecutorC1Ev
libarrow.so.1700:_ZN5arrow8internal14SerialExecutorC2Ev
libarrow.so.1700:_ZN5arrow8internal14SerialExecutorD0Ev
libarrow.so.1700:_ZN5arrow8internal14SerialExecutorD1Ev
libarrow.so.1700:_ZN5arrow8internal14SerialExecutorD2Ev
libarrow.so.1700:_ZN5arrow8internal15BitBlockCounter12GetBlockSlowEl
libarrow.so.1700:_ZN5arrow8internal15BitmapAllButOneEPNS_10MemoryPoolEllb
libarrow.so.1700:_ZN5arrow8internal15CountAndSetBitsEPKhlS2_ll
libarrow.so.1700:_ZN5arrow8internal15DetectUIntWidthEPKmPKhlh
libarrow.so.1700:_ZN5arrow8internal15DetectUIntWidthEPKmlh
libarrow.so.1700:_ZN5arrow8internal15ErrnoFromStatusERKNS_6StatusE
libarrow.so.1700:_ZN5arrow8internal15GetEnvVarNativeB5cxx11EPKc
libarrow.so.1700:_ZN5arrow8internal15GetEnvVarNativeERKNSt7__cxx1112basic_stringIcSt11char_traitsIcESaIcEEE
libarrow.so.1700:_ZN5arrow8internal15unpack32_avx512EPKjPjii
libarrow.so.1700:_ZN5arrow8internal16CheckIndexBoundsERKNS_9ArraySpanEm
libarrow.so.1700:_ZN5arrow8internal16FileOpenReadableERKNS0_16PlatformFilenameE
libarrow.so.1700:_ZN5arrow8internal16FileOpenWritableERKNS0_16PlatformFilenameEbbb
libarrow.so.1700:_ZN5arrow8internal16GetCpuThreadPoolEv
libarrow.so.1700:_ZN5arrow8internal16GetReversedBlockEhhh
libarrow.so.1700:_ZN5arrow8internal16GetSignalHandlerEi
libarrow.so.1700:_ZN5arrow8internal16IsNullDenseUnionERKNS_9ArrayDataEl
libarrow.so.1700:_ZN5arrow8internal16PlatformFilename10FromStringESt17basic_string_viewIcSt11char_traitsIcEE
libarrow.so.1700:_ZN5arrow8internal16PlatformFilenameC1ENS1_4ImplE
libarrow.so.1700:_ZN5arrow8internal16PlatformFilenameC1ENSt7__cxx1112basic_stringIcSt11char_traitsIcESaIcEEE
libarrow.so.1700:_ZN5arrow8internal16PlatformFilenameC1EOS1_
libarrow.so.1700:_ZN5arrow8internal16PlatformFilenameC1EPKc
libarrow.so.1700:_ZN5arrow8internal16PlatformFilenameC1ERKS1_
libarrow.so.1700:_ZN5arrow8internal16PlatformFilenameC1Ev
libarrow.so.1700:_ZN5arrow8internal16PlatformFilenameC2ENS1_4ImplE
libarrow.so.1700:_ZN5arrow8internal16PlatformFilenameC2ENSt7__cxx1112basic_stringIcSt11char_traitsIcESaIcEEE
libarrow.so.1700:_ZN5arrow8internal16PlatformFilenameC2EOS1_
libarrow.so.1700:_ZN5arrow8internal16PlatformFilenameC2EPKc
libarrow.so.1700:_ZN5arrow8internal16PlatformFilenameC2ERKS1_
libarrow.so.1700:_ZN5arrow8internal16PlatformFilenameC2Ev
libarrow.so.1700:_ZN5arrow8internal16PlatformFilenameD1Ev
libarrow.so.1700:_ZN5arrow8internal16PlatformFilenameD2Ev
libarrow.so.1700:_ZN5arrow8internal16PlatformFilenameaSEOS1_
libarrow.so.1700:_ZN5arrow8internal16PlatformFilenameaSERKS1_
libarrow.so.1700:_ZN5arrow8internal16SetSignalHandlerEiRKNS0_13SignalHandlerE
libarrow.so.1700:_ZN5arrow8internal16SignalFromStatusERKNS_6StatusE
libarrow.so.1700:_ZN5arrow8internal16parallel_memcopyEPhPKhlmi
libarrow.so.1700:_ZN5arrow8internal17CheckBufferLengthEPKNS_19FixedSizeBinaryTypeEPKSt10shared_ptrINS_6BufferEE
libarrow.so.1700:_ZN5arrow8internal17ComputeBitmapHashEPKhmll
libarrow.so.1700:_ZN5arrow8internal17DeleteDirContentsERKNS0_16PlatformFilenameEb
libarrow.so.1700:_ZN5arrow8internal17InvalidValueOrDieERKNS_6StatusE
libarrow.so.1700:_ZN5arrow8internal17IsNullSparseUnionERKNS_9ArrayDataEl
libarrow.so.1700:_ZN5arrow8internal17ValidateArrayFullERKNS_5ArrayE
libarrow.so.1700:_ZN5arrow8internal17ValidateArrayFullERKNS_9ArrayDataE
libarrow.so.1700:_ZN5arrow8internal18IsPermutationValidERKSt6vectorIlSaIlEE
libarrow.so.1700:_ZN5arrow8internal18LoadDynamicLibraryEPKc
libarrow.so.1700:_ZN5arrow8internal18LoadDynamicLibraryERKNS0_16PlatformFilenameE
libarrow.so.1700:_ZN5arrow8internal18SendSignalToThreadEim
libarrow.so.1700:_ZN5arrow8internal18WinErrorFromStatusERKNS_6StatusE
libarrow.so.1700:_ZN5arrow8internal19DictionaryMemoTable11GetOrInsertEPKNS_10BinaryTypeESt17basic_string_viewIcSt11char_traitsIcEEPi
libarrow.so.1700:_ZN5arrow8internal19DictionaryMemoTable11GetOrInsertEPKNS_10Date32TypeEiPi
libarrow.so.1700:_ZN5arrow8internal19DictionaryMemoTable11GetOrInsertEPKNS_10Date64TypeElPi
libarrow.so.1700:_ZN5arrow8internal19DictionaryMemoTable11GetOrInsertEPKNS_10DoubleTypeEdPi
libarrow.so.1700:_ZN5arrow8internal19DictionaryMemoTable11GetOrInsertEPKNS_10Time32TypeEiPi
libarrow.so.1700:_ZN5arrow8internal19DictionaryMemoTable11GetOrInsertEPKNS_10Time64TypeElPi
libarrow.so.1700:_ZN5arrow8internal19DictionaryMemoTable11GetOrInsertEPKNS_10UInt16TypeEtPi
libarrow.so.1700:_ZN5arrow8internal19DictionaryMemoTable11GetOrInsertEPKNS_10UInt32TypeEjPi
libarrow.so.1700:_ZN5arrow8internal19DictionaryMemoTable11GetOrInsertEPKNS_10UInt64TypeEmPi
libarrow.so.1700:_ZN5arrow8internal19DictionaryMemoTable11GetOrInsertEPKNS_11BooleanTypeEbPi
libarrow.so.1700:_ZN5arrow8internal19DictionaryMemoTable11GetOrInsertEPKNS_12DurationTypeElPi
libarrow.so.1700:_ZN5arrow8internal19DictionaryMemoTable11GetOrInsertEPKNS_13TimestampTypeElPi
libarrow.so.1700:_ZN5arrow8internal19DictionaryMemoTable11GetOrInsertEPKNS_14BinaryViewTypeESt17basic_string_viewIcSt11char_traitsIcEEPi
libarrow.so.1700:_ZN5arrow8internal19DictionaryMemoTable11GetOrInsertEPKNS_15LargeBinaryTypeESt17basic_string_viewIcSt11char_traitsIcEEPi
libarrow.so.1700:_ZN5arrow8internal19DictionaryMemoTable11GetOrInsertEPKNS_17MonthIntervalTypeEiPi
libarrow.so.1700:_ZN5arrow8internal19DictionaryMemoTable11GetOrInsertEPKNS_19DayTimeIntervalTypeENS2_15DayMillisecondsEPi
libarrow.so.1700:_ZN5arrow8internal19DictionaryMemoTable11GetOrInsertEPKNS_24MonthDayNanoIntervalTypeENS2_13MonthDayNanosEPi
libarrow.so.1700:_ZN5arrow8internal19DictionaryMemoTable11GetOrInsertEPKNS_8Int8TypeEaPi
libarrow.so.1700:_ZN5arrow8internal19DictionaryMemoTable11GetOrInsertEPKNS_9FloatTypeEfPi
libarrow.so.1700:_ZN5arrow8internal19DictionaryMemoTable11GetOrInsertEPKNS_9Int16TypeEsPi
libarrow.so.1700:_ZN5arrow8internal19DictionaryMemoTable11GetOrInsertEPKNS_9Int32TypeEiPi
libarrow.so.1700:_ZN5arrow8internal19DictionaryMemoTable11GetOrInsertEPKNS_9Int64TypeElPi
libarrow.so.1700:_ZN5arrow8internal19DictionaryMemoTable11GetOrInsertEPKNS_9UInt8TypeEhPi
libarrow.so.1700:_ZN5arrow8internal19DictionaryMemoTable12GetArrayDataElPSt10shared_ptrINS_9ArrayDataEE
libarrow.so.1700:_ZN5arrow8internal19DictionaryMemoTable12InsertValuesERKNS_5ArrayE
libarrow.so.1700:_ZN5arrow8internal19DictionaryMemoTableC1EPNS_10MemoryPoolERKSt10shared_ptrINS_5ArrayEE
libarrow.so.1700:_ZN5arrow8internal19DictionaryMemoTableC1EPNS_10MemoryPoolERKSt10shared_ptrINS_8DataTypeEE
libarrow.so.1700:_ZN5arrow8internal19DictionaryMemoTableC2EPNS_10MemoryPoolERKSt10shared_ptrINS_5ArrayEE
libarrow.so.1700:_ZN5arrow8internal19DictionaryMemoTableC2EPNS_10MemoryPoolERKSt10shared_ptrINS_8DataTypeEE
libarrow.so.1700:_ZN5arrow8internal19DictionaryMemoTableD1Ev
libarrow.so.1700:_ZN5arrow8internal19DictionaryMemoTableD2Ev
libarrow.so.1700:_ZN5arrow8internal19FillZeroLengthArrayEPKNS_8DataTypeEPNS_9ArraySpanE
libarrow.so.1700:_ZN5arrow8internal19GetOptionalThreadIdEv
libarrow.so.1700:_ZN5arrow8internal19GetTotalMemoryBytesEv
libarrow.so.1700:_ZN5arrow8internal19IsNullRunEndEncodedERKNS_9ArrayDataEl
libarrow.so.1700:_ZN5arrow8internal19PackVariadicBuffersENS_4util4spanIKSt10shared_ptrINS_6BufferEEEE
libarrow.so.1700:_ZN5arrow8internal19RecordBatchToTensorERKNS_11RecordBatchEbbPNS_10MemoryPoolEPSt10shared_ptrINS_6TensorEE
libarrow.so.1700:_ZN5arrow8internal19ReverseBlockOffsetsEPKhlllPh
libarrow.so.1700:_ZN5arrow8internal19SwapEndianArrayDataERKSt10shared_ptrINS_9ArrayDataEEPNS_10MemoryPoolE
libarrow.so.1700:_ZN5arrow8internal20CheckIntegersInRangeERKNS_9ArraySpanERKNS_6ScalarES6_
libarrow.so.1700:_ZN5arrow8internal20ChunkedBinaryBuilder6FinishEPSt6vectorISt10shared_ptrINS_5ArrayEESaIS5_EE
libarrow.so.1700:_ZN5arrow8internal20ChunkedBinaryBuilder7ReserveEl
libarrow.so.1700:_ZN5arrow8internal20ChunkedBinaryBuilder9NextChunkEv
libarrow.so.1700:_ZN5arrow8internal20ChunkedBinaryBuilderC1EiPNS_10MemoryPoolE
libarrow.so.1700:_ZN5arrow8internal20ChunkedBinaryBuilderC1EiiPNS_10MemoryPoolE
libarrow.so.1700:_ZN5arrow8internal20ChunkedBinaryBuilderC2EiPNS_10MemoryPoolE
libarrow.so.1700:_ZN5arrow8internal20ChunkedBinaryBuilderC2EiiPNS_10MemoryPoolE
libarrow.so.1700:_ZN5arrow8internal20ChunkedStringBuilder6FinishEPSt6vectorISt10shared_ptrINS_5ArrayEESaIS5_EE
libarrow.so.1700:_ZN5arrow8internal20MemoryAdviseWillNeedERKSt6vectorINS0_12MemoryRegionESaIS2_EE
libarrow.so.1700:_ZN5arrow8internal20OptionalBitmapEqualsEPKhlS2_ll
libarrow.so.1700:_ZN5arrow8internal20OptionalBitmapEqualsERKSt10shared_ptrINS_6BufferEElS5_ll
libarrow.so.1700:_ZN5arrow8internal20RunCompressorBuilder11AppendNullsEl
libarrow.so.1700:_ZN5arrow8internal20RunCompressorBuilder12AppendScalarERKNS_6ScalarEl
libarrow.so.1700:_ZN5arrow8internal20RunCompressorBuilder13AppendScalarsERKSt6vectorISt10shared_ptrINS_6ScalarEESaIS5_EE
libarrow.so.1700:_ZN5arrow8internal20RunCompressorBuilder14FinishInternalEPSt10shared_ptrINS_9ArrayDataEE
libarrow.so.1700:_ZN5arrow8internal20RunCompressorBuilder14ResizePhysicalEl
libarrow.so.1700:_ZN5arrow8internal20RunCompressorBuilder16FinishCurrentRunEv
libarrow.so.1700:_ZN5arrow8internal20RunCompressorBuilder17AppendEmptyValuesEl
libarrow.so.1700:_ZN5arrow8internal20RunCompressorBuilder29AppendRunCompressedArraySliceERKNS_9ArraySpanEll
libarrow.so.1700:_ZN5arrow8internal20RunCompressorBuilder5ResetEv
libarrow.so.1700:_ZN5arrow8internal20RunCompressorBuilderC1EPNS_10MemoryPoolESt10shared_ptrINS_12ArrayBuilderEES4_INS_8DataTypeEE
libarrow.so.1700:_ZN5arrow8internal20RunCompressorBuilderC2EPNS_10MemoryPoolESt10shared_ptrINS_12ArrayBuilderEES4_INS_8DataTypeEE
libarrow.so.1700:_ZN5arrow8internal20RunCompressorBuilderD0Ev
libarrow.so.1700:_ZN5arrow8internal20RunCompressorBuilderD1Ev
libarrow.so.1700:_ZN5arrow8internal20RunCompressorBuilderD2Ev
libarrow.so.1700:_ZN5arrow8internal21ErrnoFromStatusDetailERKNS_12StatusDetailE
libarrow.so.1700:_ZN5arrow8internal21MultipleChunkIterator4NextEPSt10shared_ptrINS_5ArrayEES5_
libarrow.so.1700:_ZN5arrow8internal21StatusDetailFromErrnoEi
libarrow.so.1700:_ZN5arrow8internal22AdaptiveIntBuilderBase5ResetEv
libarrow.so.1700:_ZN5arrow8internal22AdaptiveIntBuilderBase6ResizeEl
libarrow.so.1700:_ZN5arrow8internal22AdaptiveIntBuilderBaseC1EhPNS_10MemoryPoolEl
libarrow.so.1700:_ZN5arrow8internal22AdaptiveIntBuilderBaseC2EhPNS_10MemoryPoolEl
libarrow.so.1700:_ZN5arrow8internal22ComputeRowMajorStridesERKNS_14FixedWidthTypeERKSt6vectorIlSaIlEEPS6_
libarrow.so.1700:_ZN5arrow8internal22FloatToStringFormatter11FormatFloatEdPci
libarrow.so.1700:_ZN5arrow8internal22FloatToStringFormatter11FormatFloatEfPci
libarrow.so.1700:_ZN5arrow8internal22FloatToStringFormatter11FormatFloatEtPci
libarrow.so.1700:_ZN5arrow8internal22FloatToStringFormatterC1EiPKcS3_ciiii
libarrow.so.1700:_ZN5arrow8internal22FloatToStringFormatterC1Ev
libarrow.so.1700:_ZN5arrow8internal22FloatToStringFormatterC2EiPKcS3_ciiii
libarrow.so.1700:_ZN5arrow8internal22FloatToStringFormatterC2Ev
libarrow.so.1700:_ZN5arrow8internal22FloatToStringFormatterD1Ev
libarrow.so.1700:_ZN5arrow8internal22FloatToStringFormatterD2Ev
libarrow.so.1700:_ZN5arrow8internal22ReinstateSignalHandlerEiPFviE
libarrow.so.1700:_ZN5arrow8internal22StatusDetailFromSignalEi
libarrow.so.1700:_ZN5arrow8internal22ValidateSparseCSXIndexERKSt10shared_ptrINS_8DataTypeEES5_RKSt6vectorIlSaIlEESA_PKc
libarrow.so.1700:_ZN5arrow8internal23OptionalBitBlockCounterC1EPKhll
libarrow.so.1700:_ZN5arrow8internal23OptionalBitBlockCounterC1ERKSt10shared_ptrINS_6BufferEEll
libarrow.so.1700:_ZN5arrow8internal23OptionalBitBlockCounterC2EPKhll
libarrow.so.1700:_ZN5arrow8internal23OptionalBitBlockCounterC2ERKSt10shared_ptrINS_6BufferEEll
libarrow.so.1700:_ZN5arrow8internal24UnionMayHaveLogicalNullsERKNS_9ArrayDataE
libarrow.so.1700:_ZN5arrow8internal24ValidateTensorParametersERKSt10shared_ptrINS_8DataTypeEERKS1_INS_6BufferEERKSt6vectorIlSaIlEESE_RKSA_INSt7__cxx1112basic_stringIcSt11char_traitsIcESaIcEEESaISK_EE
libarrow.so.1700:_ZN5arrow8internal25ComputeColumnMajorStridesERKNS_14FixedWidthTypeERKSt6vectorIlSaIlEEPS6_
libarrow.so.1700:_ZN5arrow8internal25IsTensorStridesContiguousERKSt10shared_ptrINS_8DataTypeEERKSt6vectorIlSaIlEESA_
libarrow.so.1700:_ZN5arrow8internal25RechunkArraysConsistentlyERKSt6vectorIS1_ISt10shared_ptrINS_5ArrayEESaIS4_EESaIS6_EE
libarrow.so.1700:_ZN5arrow8internal26AsciiEqualsCaseInsensitiveESt17basic_string_viewIcSt11char_traitsIcEES4_
libarrow.so.1700:_ZN5arrow8internal26MakeSparseTensorFromTensorERKNS_6TensorENS_18SparseTensorFormat4typeERKSt10shared_ptrINS_8DataTypeEEPNS_10MemoryPoolEPS6_INS_11SparseIndexEEPS6_INS_6BufferEE
libarrow.so.1700:_ZN5arrow8internal26SparseTensorConverterMixin11AssignIndexEPhli
libarrow.so.1700:_ZN5arrow8internal26SparseTensorConverterMixin13GetIndexValueEPKhi
libarrow.so.1700:_ZN5arrow8internal26SparseTensorConverterMixin9IsNonZeroEh
libarrow.so.1700:_ZN5arrow8internal27CheckSparseCSXIndexValidityERKSt10shared_ptrINS_8DataTypeEES5_RKSt6vectorIlSaIlEESA_PKc
libarrow.so.1700:_ZN5arrow8internal28CheckSparseIndexMaximumValueERKSt10shared_ptrINS_8DataTypeEERKSt6vectorIlSaIlEE
libarrow.so.1700:_ZN5arrow8internal29DictionaryMayHaveLogicalNullsERKNS_9ArrayDataE
libarrow.so.1700:_ZN5arrow8internal29FlattenLogicalListRecursivelyERKNS_5ArrayEPNS_10MemoryPoolE
libarrow.so.1700:_ZN5arrow8internal29MakeSparseCOOTensorFromTensorERKNS_6TensorERKSt10shared_ptrINS_8DataTypeEEPNS_10MemoryPoolEPS4_INS_11SparseIndexEEPS4_INS_6BufferEE
libarrow.so.1700:_ZN5arrow8internal29MakeSparseCSFTensorFromTensorERKNS_6TensorERKSt10shared_ptrINS_8DataTypeEEPNS_10MemoryPoolEPS4_INS_11SparseIndexEEPS4_INS_6BufferEE
libarrow.so.1700:_ZN5arrow8internal29MakeSparseCSXMatrixFromTensorENS0_26SparseMatrixCompressedAxisERKNS_6TensorERKSt10shared_ptrINS_8DataTypeEEPNS_10MemoryPoolEPS5_INS_11SparseIndexEEPS5_INS_6BufferEE
libarrow.so.1700:_ZN5arrow8internal29MakeTensorFromSparseCOOTensorEPNS_10MemoryPoolEPKNS_16SparseTensorImplINS_14SparseCOOIndexEEE
libarrow.so.1700:_ZN5arrow8internal29MakeTensorFromSparseCSCMatrixEPNS_10MemoryPoolEPKNS_16SparseTensorImplINS_14SparseCSCIndexEEE
libarrow.so.1700:_ZN5arrow8internal29MakeTensorFromSparseCSFTensorEPNS_10MemoryPoolEPKNS_16SparseTensorImplINS_14SparseCSFIndexEEE
libarrow.so.1700:_ZN5arrow8internal29MakeTensorFromSparseCSRMatrixEPNS_10MemoryPoolEPKNS_16SparseTensorImplINS_14SparseCSRIndexEEE
libarrow.so.1700:_ZN5arrow8internal29MakeTensorFromSparseCSXMatrixENS0_26SparseMatrixCompressedAxisEPNS_10MemoryPoolERKSt10shared_ptrINS_6TensorEES8_lRKS4_INS_8DataTypeEERKSt6vectorIlSaIlEElPKhRKSD_INSt7__cxx1112basic_stringIcSt11char_traitsIcESaIcEEESaISP_EE
libarrow.so.1700:_ZN5arrow8internal29OptionalBinaryBitBlockCounterC1EPKhlS3_ll
libarrow.so.1700:_ZN5arrow8internal29OptionalBinaryBitBlockCounterC1ERKSt10shared_ptrINS_6BufferEElS6_ll
libarrow.so.1700:_ZN5arrow8internal29OptionalBinaryBitBlockCounterC2EPKhlS3_ll
libarrow.so.1700:_ZN5arrow8internal29OptionalBinaryBitBlockCounterC2ERKSt10shared_ptrINS_6BufferEElS6_ll
libarrow.so.1700:_ZN5arrow8internal32RunEndEncodedMayHaveLogicalNullsERKNS_9ArrayDataE
libarrow.so.1700:_ZN5arrow8internal32SetPipeFileDescriptorNonBlockingEi
libarrow.so.1700:_ZN5arrow8internal5crc32EjPKvm
libarrow.so.1700:_ZN5arrow8internal6Bitmap16CopyFromInvertedERKS1_
libarrow.so.1700:_ZN5arrow8internal6Bitmap8CopyFromERKS1_
libarrow.so.1700:_ZN5arrow8internal6Bitmap9BitLengthEPKS1_m
libarrow.so.1700:_ZN5arrow8internal7CpuInfo11GetInstanceEv
libarrow.so.1700:_ZN5arrow8internal7CpuInfo13EnableFeatureElb
libarrow.so.1700:_ZN5arrow8internal7CpuInfoC1Ev
libarrow.so.1700:_ZN5arrow8internal7CpuInfoC2Ev
libarrow.so.1700:_ZN5arrow8internal7CpuInfoD1Ev
libarrow.so.1700:_ZN5arrow8internal7CpuInfoD2Ev
libarrow.so.1700:_ZN5arrow8internal7ListDirERKNS0_16PlatformFilenameE
libarrow.so.1700:_ZN5arrow8internal7ReplaceB5cxx11ESt17basic_string_viewIcSt11char_traitsIcEES4_S4_
libarrow.so.1700:_ZN5arrow8internal7TDigest5MergeERKS1_
libarrow.so.1700:_ZN5arrow8internal7TDigest5MergeERKSt6vectorIS1_SaIS1_EE
libarrow.so.1700:_ZN5arrow8internal7TDigest5ResetEv
libarrow.so.1700:_ZN5arrow8internal7TDigestC1EOS1_
libarrow.so.1700:_ZN5arrow8internal7TDigestC1Ejj
libarrow.so.1700:_ZN5arrow8internal7TDigestC2EOS1_
libarrow.so.1700:_ZN5arrow8internal7TDigestC2Ejj
libarrow.so.1700:_ZN5arrow8internal7TDigestD1Ev
libarrow.so.1700:_ZN5arrow8internal7TDigestD2Ev
libarrow.so.1700:_ZN5arrow8internal7TDigestaSEOS1_
libarrow.so.1700:_ZN5arrow8internal8BitmapOrEPKhlS2_lllPh
libarrow.so.1700:_ZN5arrow8internal8BitmapOrEPNS_10MemoryPoolEPKhlS4_lll
libarrow.so.1700:_ZN5arrow8internal8Executor9KeepAliveESt10shared_ptrINS1_8ResourceEE
libarrow.so.1700:_ZN5arrow8internal8ExecutorD0Ev
libarrow.so.1700:_ZN5arrow8internal8ExecutorD1Ev
libarrow.so.1700:_ZN5arrow8internal8ExecutorD2Ev
libarrow.so.1700:_ZN5arrow8internal8FileReadEiPhl
libarrow.so.1700:_ZN5arrow8internal8FileSeekEil
libarrow.so.1700:_ZN5arrow8internal8FileSeekEili
libarrow.so.1700:_ZN5arrow8internal8FileTellEi
libarrow.so.1700:_ZN5arrow8internal8SelfPipe4MakeEb
libarrow.so.1700:_ZN5arrow8internal8SelfPipeD0Ev
libarrow.so.1700:_ZN5arrow8internal8SelfPipeD1Ev
libarrow.so.1700:_ZN5arrow8internal8SelfPipeD2Ev
libarrow.so.1700:_ZN5arrow8internal8ToStringB5cxx11ENS_4Type4typeE
libarrow.so.1700:_ZN5arrow8internal8ToStringB5cxx11ENS_8TimeUnit4typeE
libarrow.so.1700:_ZN5arrow8internal8unpack32EPKjPjii
libarrow.so.1700:_ZN5arrow8internal8unpack64EPKhPmii
libarrow.so.1700:_ZN5arrow8internal9BitmapAndEPKhlS2_lllPh
libarrow.so.1700:_ZN5arrow8internal9BitmapAndEPNS_10MemoryPoolEPKhlS4_lll
libarrow.so.1700:_ZN5arrow8internal9BitmapXorEPKhlS2_lllPh
libarrow.so.1700:_ZN5arrow8internal9BitmapXorEPNS_10MemoryPoolEPKhlS4_lll
libarrow.so.1700:_ZN5arrow8internal9CreateDirERKNS0_16PlatformFilenameE
libarrow.so.1700:_ZN5arrow8internal9DebugTrapEv
libarrow.so.1700:_ZN5arrow8internal9DelEnvVarEPKc
libarrow.so.1700:_ZN5arrow8internal9DelEnvVarERKNSt7__cxx1112basic_stringIcSt11char_traitsIcESaIcEEE
libarrow.so.1700:_ZN5arrow8internal9FileCloseEi
libarrow.so.1700:_ZN5arrow8internal9FileWriteEiPKhl
libarrow.so.1700:_ZN5arrow8internal9GetEnvVarB5cxx11EPKc
libarrow.so.1700:_ZN5arrow8internal9GetEnvVarERKNSt7__cxx1112basic_stringIcSt11char_traitsIcESaIcEEE
libarrow.so.1700:_ZN5arrow8internal9GetSymbolEPvPKc
libarrow.so.1700:_ZN5arrow8internal9SetEnvVarEPKcS2_
libarrow.so.1700:_ZN5arrow8internal9SetEnvVarERKNSt7__cxx1112basic_stringIcSt11char_traitsIcESaIcEEES8_
libarrow.so.1700:_ZN5arrow8internal9TaskGroup10MakeSerialENS_9StopTokenE
libarrow.so.1700:_ZN5arrow8internal9TaskGroup12MakeThreadedEPNS0_8ExecutorENS_9StopTokenE
libarrow.so.1700:_ZN5arrow8ree_util16LogicalNullCountERKNS_9ArraySpanE
libarrow.so.1700:_ZN5arrow8ree_util17FindPhysicalIndexERKNS_9ArraySpanEll
libarrow.so.1700:_ZN5arrow8ree_util17FindPhysicalRangeERKNS_9ArraySpanEll
libarrow.so.1700:_ZN5arrow8ree_util18FindPhysicalLengthERKNS_9ArraySpanE
libarrow.so.1700:_ZN5arrow8ree_util29ValidateRunEndEncodedChildrenERKNS_17RunEndEncodedTypeElRKSt10shared_ptrINS_9ArrayDataEES8_ll
libarrow.so.1700:_ZN5arrow8ree_util8internal23FindPhysicalIndexImpl16ERNS1_19PhysicalIndexFinderIsEEl
libarrow.so.1700:_ZN5arrow8ree_util8internal23FindPhysicalIndexImpl32ERNS1_19PhysicalIndexFinderIiEEl
libarrow.so.1700:_ZN5arrow8ree_util8internal23FindPhysicalIndexImpl64ERNS1_19PhysicalIndexFinderIlEEl
libarrow.so.1700:_ZN5arrow9ArrayData4MakeESt10shared_ptrINS_8DataTypeEElSt6vectorIS1_INS_6BufferEESaIS6_EES4_IS1_IS0_ESaIS9_EES9_ll
libarrow.so.1700:_ZN5arrow9ArrayData4MakeESt10shared_ptrINS_8DataTypeEElSt6vectorIS1_INS_6BufferEESaIS6_EES4_IS1_IS0_ESaIS9_EEll
libarrow.so.1700:_ZN5arrow9ArrayData4MakeESt10shared_ptrINS_8DataTypeEElSt6vectorIS1_INS_6BufferEESaIS6_EEll
libarrow.so.1700:_ZN5arrow9ArrayData4MakeESt10shared_ptrINS_8DataTypeEElll
libarrow.so.1700:_ZN5arrow9ArraySpan10SetMembersERKNS_9ArrayDataE
libarrow.so.1700:_ZN5arrow9ArraySpan14FillFromScalarERKNS_6ScalarE
libarrow.so.1700:_ZN5arrow9CPUDevice14memory_managerEPNS_10MemoryPoolE
libarrow.so.1700:_ZN5arrow9CPUDevice22default_memory_managerEv
libarrow.so.1700:_ZN5arrow9CPUDevice8InstanceEv
libarrow.so.1700:_ZN5arrow9FieldPath6GetAllERKNS_6SchemaERKSt6vectorIS0_SaIS0_EE
libarrow.so.1700:_ZN5arrow9HexEncodeB5cxx11EPKcm
libarrow.so.1700:_ZN5arrow9HexEncodeB5cxx11EPKhm
libarrow.so.1700:_ZN5arrow9HexEncodeB5cxx11ESt17basic_string_viewIcSt11char_traitsIcEE
libarrow.so.1700:_ZN5arrow9ListArray10FromArraysERKNS_5ArrayES3_PNS_10MemoryPoolESt10shared_ptrINS_6BufferEEl
libarrow.so.1700:_ZN5arrow9ListArray10FromArraysESt10shared_ptrINS_8DataTypeEERKNS_5ArrayES6_PNS_10MemoryPoolES1_INS_6BufferEEl
libarrow.so.1700:_ZN5arrow9ListArray12FromListViewERKNS_13ListViewArrayEPNS_10MemoryPoolE
libarrow.so.1700:_ZN5arrow9ListArray7SetDataERKSt10shared_ptrINS_9ArrayDataEE
libarrow.so.1700:_ZN5arrow9ListArrayC1ESt10shared_ptrINS_8DataTypeEElS1_INS_6BufferEES1_INS_5ArrayEES5_ll
libarrow.so.1700:_ZN5arrow9ListArrayC1ESt10shared_ptrINS_9ArrayDataEE
libarrow.so.1700:_ZN5arrow9ListArrayC2ESt10shared_ptrINS_8DataTypeEElS1_INS_6BufferEES1_INS_5ArrayEES5_ll
libarrow.so.1700:_ZN5arrow9ListArrayC2ESt10shared_ptrINS_9ArrayDataEE
libarrow.so.1700:_ZN5arrow9MakeArrayERKSt10shared_ptrINS_9ArrayDataEE
libarrow.so.1700:_ZN5arrow9MapScalar16FillScratchSpaceEPhRKSt10shared_ptrINS_5ArrayEE
libarrow.so.1700:_ZN5arrow9MapScalarC1ESt10shared_ptrINS_5ArrayEEb
libarrow.so.1700:_ZN5arrow9MapScalarC2ESt10shared_ptrINS_5ArrayEEb
libarrow.so.1700:_ZN5arrow9NullArrayC1El
libarrow.so.1700:_ZN5arrow9NullArrayC2El
libarrow.so.1700:_ZN5arrow9UnionType18ValidateParametersERKSt6vectorISt10shared_ptrINS_5FieldEESaIS4_EERKS1_IaSaIaEENS_9UnionMode4typeE
libarrow.so.1700:_ZN5arrow9UnionTypeC1ESt6vectorISt10shared_ptrINS_5FieldEESaIS4_EES1_IaSaIaEENS_4Type4typeE
libarrow.so.1700:_ZN5arrow9UnionTypeC2ESt6vectorISt10shared_ptrINS_5FieldEESaIS4_EES1_IaSaIaEENS_4Type4typeE
libarrow.so.1700:_ZN5arrow9dict_util16LogicalNullCountERKNS_9ArraySpanE
libarrow.so.1700:_ZN5arrow9extension18fixed_shape_tensorERKSt10shared_ptrINS_8DataTypeEERKSt6vectorIlSaIlEESA_RKS6_INSt7__cxx1112basic_stringIcSt11char_traitsIcESaIcEEESaISG_EE
libarrow.so.1700:_ZN5arrow9extension20FixedShapeTensorType10MakeTensorERKSt10shared_ptrINS_15ExtensionScalarEE
libarrow.so.1700:_ZN5arrow9extension20FixedShapeTensorType4MakeERKSt10shared_ptrINS_8DataTypeEERKSt6vectorIlSaIlEESB_RKS7_INSt7__cxx1112basic_stringIcSt11char_traitsIcESaIcEEESaISH_EE
libarrow.so.1700:_ZN5arrow9extension20FixedShapeTensorType7stridesEv
libarrow.so.1700:_ZN5arrow9extension21FixedShapeTensorArray10FromTensorERKSt10shared_ptrINS_6TensorEE
libarrow.so.1700:_ZN5arrow9list_util8internal17RangeOfValuesUsedERKNS_9ArraySpanE
libarrow.so.1700:_ZN5arrow9list_util8internal21SumOfLogicalListSizesERKNS_9ArraySpanE
libarrow.so.1700:_ZN5arrow9list_viewESt10shared_ptrINS_5FieldEE
libarrow.so.1700:_ZN5arrow9list_viewESt10shared_ptrINS_8DataTypeEE
libarrow.so.1700:_ZN5arrow9timestampENS_8TimeUnit4typeE
libarrow.so.1700:_ZN5arrow9timestampENS_8TimeUnit4typeERKNSt7__cxx1112basic_stringIcSt11char_traitsIcESaIcEEE
libarrow.so.1700:_ZN5arrow9utf8_viewEv
libarrow.so.1700:_ZN5arrowcoERKNS_15BasicDecimal128E
libarrow.so.1700:_ZN5arrowcoERKNS_15BasicDecimal256E
libarrow.so.1700:_ZN5arrowdvERKNS_15BasicDecimal128ES2_
libarrow.so.1700:_ZN5arrowdvERKNS_15BasicDecimal256ES2_
libarrow.so.1700:_ZN5arrowgeERKNS_15BasicDecimal128ES2_
libarrow.so.1700:_ZN5arrowgtERKNS_15BasicDecimal128ES2_
libarrow.so.1700:_ZN5arrowleERKNS_15BasicDecimal128ES2_
libarrow.so.1700:_ZN5arrowlsERSoNS_19DayTimeIntervalType15DayMillisecondsE
libarrow.so.1700:_ZN5arrowlsERSoNS_24MonthDayNanoIntervalType13MonthDayNanosE
libarrow.so.1700:_ZN5arrowlsERSoNS_8TimeUnit4typeE
libarrow.so.1700:_ZN5arrowlsERSoRKNS_10Decimal128E
libarrow.so.1700:_ZN5arrowlsERSoRKNS_10Decimal256E
libarrow.so.1700:_ZN5arrowlsERSoRKNS_10TypeHolderE
libarrow.so.1700:_ZN5arrowlsERSoRKNS_8DataTypeE
libarrow.so.1700:_ZN5arrowlsERSoRKNS_8FieldRefE
libarrow.so.1700:_ZN5arrowltERKNS_15BasicDecimal128ES2_
libarrow.so.1700:_ZN5arrowltERKNS_15BasicDecimal256ES2_
libarrow.so.1700:_ZN5arrowmiERKNS_15BasicDecimal128ES2_
libarrow.so.1700:_ZN5arrowmlERKNS_15BasicDecimal128ES2_
libarrow.so.1700:_ZN5arrowmlERKNS_15BasicDecimal256ES2_
libarrow.so.1700:_ZN5arrowngERKNS_15BasicDecimal128E
libarrow.so.1700:_ZN5arrowngERKNS_15BasicDecimal256E
libarrow.so.1700:_ZN5arrowplERKNS_15BasicDecimal128ES2_
libarrow.so.1700:_ZN5arrowplERKNS_15BasicDecimal256ES2_
libarrow.so.1700:_ZN5arrowrmERKNS_15BasicDecimal128ES2_
libarrow.so.1700:_ZNK14arrow_vendored17double_conversion23DoubleToStringConverter11ToPrecisionEdiPNS0_13StringBuilderE
libarrow.so.1700:_ZNK14arrow_vendored17double_conversion23DoubleToStringConverter13ToExponentialEdiPNS0_13StringBuilderE
libarrow.so.1700:_ZNK14arrow_vendored17double_conversion23DoubleToStringConverter19HandleSpecialValuesEdPNS0_13StringBuilderE
libarrow.so.1700:_ZNK14arrow_vendored17double_conversion23DoubleToStringConverter20ToShortestIeeeNumberEdPNS0_13StringBuilderENS1_8DtoaModeE
libarrow.so.1700:_ZNK14arrow_vendored17double_conversion23DoubleToStringConverter27CreateDecimalRepresentationEPKciiiPNS0_13StringBuilderE
libarrow.so.1700:_ZNK14arrow_vendored17double_conversion23DoubleToStringConverter31CreateExponentialRepresentationEPKciiPNS0_13StringBuilderE
libarrow.so.1700:_ZNK14arrow_vendored17double_conversion23DoubleToStringConverter7ToFixedEdiPNS0_13StringBuilderE
libarrow.so.1700:_ZNK14arrow_vendored17double_conversion23StringToDoubleConverter13StringToFloatEPKciPi
libarrow.so.1700:_ZNK14arrow_vendored17double_conversion23StringToDoubleConverter13StringToFloatEPKtiPi
libarrow.so.1700:_ZNK14arrow_vendored17double_conversion23StringToDoubleConverter14StringToDoubleEPKciPi
libarrow.so.1700:_ZNK14arrow_vendored17double_conversion23StringToDoubleConverter14StringToDoubleEPKtiPi
libarrow.so.1700:_ZNK14arrow_vendored17double_conversion23StringToDoubleConverter8StringToIdEET_PKciPi
libarrow.so.1700:_ZNK14arrow_vendored17double_conversion23StringToDoubleConverter8StringToIdEET_PKtiPi
libarrow.so.1700:_ZNK14arrow_vendored17double_conversion23StringToDoubleConverter8StringToIfEET_PKciPi
libarrow.so.1700:_ZNK14arrow_vendored17double_conversion23StringToDoubleConverter8StringToIfEET_PKtiPi
libarrow.so.1700:_ZNK14arrow_vendored17double_conversion6Bignum11BigitOrZeroEi
libarrow.so.1700:_ZNK14arrow_vendored17double_conversion6Bignum11ToHexStringEPci
libarrow.so.1700:_ZNK14arrow_vendored17double_conversion6Bignum8RawBigitEi
libarrow.so.1700:_ZNK14arrow_vendored4date4tzdb11locate_zoneESt17basic_string_viewIcSt11char_traitsIcEE
libarrow.so.1700:_ZNK14arrow_vendored4date4tzdb12current_zoneEv
libarrow.so.1700:_ZNK14arrow_vendored4date9time_zone13get_info_implENSt6chrono10time_pointINS0_7local_tENS2_8durationIlSt5ratioILl1ELl1EEEEEE
libarrow.so.1700:_ZNK14arrow_vendored4date9time_zone13get_info_implENSt6chrono10time_pointINS2_3_V212system_clockENS2_8durationIlSt5ratioILl1ELl1EEEEEE
libarrow.so.1700:_ZNK14arrow_vendored4date9time_zone13load_sys_infoEN9__gnu_cxx17__normal_iteratorIPKNS0_6detail10transitionESt6vectorIS5_SaIS5_EEEE
libarrow.so.1700:_ZNK14arrow_vendored4date9time_zone4initEv
libarrow.so.1700:_ZNK5arrow10BinaryType18ComputeFingerprintB5cxx11Ev
libarrow.so.1700:_ZNK5arrow10BinaryType8ToStringB5cxx11Eb
libarrow.so.1700:_ZNK5arrow10Date32Type18ComputeFingerprintB5cxx11Ev
libarrow.so.1700:_ZNK5arrow10Date32Type8ToStringB5cxx11Eb
libarrow.so.1700:_ZNK5arrow10Date64Type18ComputeFingerprintB5cxx11Ev
libarrow.so.1700:_ZNK5arrow10Date64Type8ToStringB5cxx11Eb
libarrow.so.1700:_ZNK5arrow10Decimal12813ToArrowStatusENS_13DecimalStatusE
libarrow.so.1700:_ZNK5arrow10Decimal12815ToIntegerStringB5cxx11Ev
libarrow.so.1700:_ZNK5arrow10Decimal1287ToFloatEi
libarrow.so.1700:_ZNK5arrow10Decimal1288ToDoubleEi
libarrow.so.1700:_ZNK5arrow10Decimal1288ToStringB5cxx11Ei
libarrow.so.1700:_ZNK5arrow10Decimal128cvlEv
libarrow.so.1700:_ZNK5arrow10Decimal25613ToArrowStatusENS_13DecimalStatusE
libarrow.so.1700:_ZNK5arrow10Decimal25615ToIntegerStringB5cxx11Ev
libarrow.so.1700:_ZNK5arrow10Decimal2567ToFloatEi
libarrow.so.1700:_ZNK5arrow10Decimal2568ToDoubleEi
libarrow.so.1700:_ZNK5arrow10Decimal2568ToStringB5cxx11Ei
libarrow.so.1700:_ZNK5arrow10DoubleType18ComputeFingerprintB5cxx11Ev
libarrow.so.1700:_ZNK5arrow10DoubleType9precisionEv
libarrow.so.1700:_ZNK5arrow10MemoryPool10max_memoryEv
libarrow.so.1700:_ZNK5arrow10StringType18ComputeFingerprintB5cxx11Ev
libarrow.so.1700:_ZNK5arrow10StringType8ToStringB5cxx11Eb
libarrow.so.1700:_ZNK5arrow10StructType11RemoveFieldEi
libarrow.so.1700:_ZNK5arrow10StructType13GetFieldIndexERKNSt7__cxx1112basic_stringIcSt11char_traitsIcESaIcEEE
libarrow.so.1700:_ZNK5arrow10StructType14GetFieldByNameERKNSt7__cxx1112basic_stringIcSt11char_traitsIcESaIcEEE
libarrow.so.1700:_ZNK5arrow10StructType18ComputeFingerprintB5cxx11Ev
libarrow.so.1700:_ZNK5arrow10StructType18GetAllFieldIndicesERKNSt7__cxx1112basic_stringIcSt11char_traitsIcESaIcEEE
libarrow.so.1700:_ZNK5arrow10StructType18GetAllFieldsByNameERKNSt7__cxx1112basic_stringIcSt11char_traitsIcESaIcEEE
libarrow.so.1700:_ZNK5arrow10StructType8AddFieldEiRKSt10shared_ptrINS_5FieldEE
libarrow.so.1700:_ZNK5arrow10StructType8SetFieldEiRKSt10shared_ptrINS_5FieldEE
libarrow.so.1700:_ZNK5arrow10StructType8ToStringB5cxx11Eb
libarrow.so.1700:_ZNK5arrow10Time32Type8ToStringB5cxx11Eb
libarrow.so.1700:_ZNK5arrow10Time64Type8ToStringB5cxx11Eb
libarrow.so.1700:_ZNK5arrow10UInt16Type18ComputeFingerprintB5cxx11Ev
libarrow.so.1700:_ZNK5arrow10UInt32Type18ComputeFingerprintB5cxx11Ev
libarrow.so.1700:_ZNK5arrow10UInt64Type18ComputeFingerprintB5cxx11Ev
libarrow.so.1700:_ZNK5arrow10UnionArray5fieldEi
libarrow.so.1700:_ZNK5arrow11BooleanType18ComputeFingerprintB5cxx11Ev
libarrow.so.1700:_ZNK5arrow11DecimalType18ComputeFingerprintB5cxx11Ev
libarrow.so.1700:_ZNK5arrow11RecordBatch11ColumnNamesB5cxx11Ev
libarrow.so.1700:_ZNK5arrow11RecordBatch11column_nameB5cxx11Ei
libarrow.so.1700:_ZNK5arrow11RecordBatch11num_columnsEv
libarrow.so.1700:_ZNK5arrow11RecordBatch12ApproxEqualsERKS0_RKNS_12EqualOptionsE
libarrow.so.1700:_ZNK5arrow11RecordBatch12ValidateFullEv
libarrow.so.1700:_ZNK5arrow11RecordBatch12ViewOrCopyToERKSt10shared_ptrINS_13MemoryManagerEE
libarrow.so.1700:_ZNK5arrow11RecordBatch13RenameColumnsERKSt6vectorINSt7__cxx1112basic_stringIcSt11char_traitsIcESaIcEEESaIS7_EE
libarrow.so.1700:_ZNK5arrow11RecordBatch13ReplaceSchemaESt10shared_ptrINS_6SchemaEE
libarrow.so.1700:_ZNK5arrow11RecordBatch13SelectColumnsERKSt6vectorIiSaIiEE
libarrow.so.1700:_ZNK5arrow11RecordBatch13ToStructArrayEv
libarrow.so.1700:_ZNK5arrow11RecordBatch15GetColumnByNameERKNSt7__cxx1112basic_stringIcSt11char_traitsIcESaIcEEE
libarrow.so.1700:_ZNK5arrow11RecordBatch5SliceEl
libarrow.so.1700:_ZNK5arrow11RecordBatch6CopyToERKSt10shared_ptrINS_13MemoryManagerEE
libarrow.so.1700:_ZNK5arrow11RecordBatch6EqualsERKS0_bRKNS_12EqualOptionsE
libarrow.so.1700:_ZNK5arrow11RecordBatch8ToStringB5cxx11Ev
libarrow.so.1700:_ZNK5arrow11RecordBatch8ToTensorEbbPNS_10MemoryPoolE
libarrow.so.1700:_ZNK5arrow11RecordBatch8ValidateEv
libarrow.so.1700:_ZNK5arrow11RecordBatch9AddColumnEiNSt7__cxx1112basic_stringIcSt11char_traitsIcESaIcEEERKSt10shared_ptrINS_5ArrayEE
libarrow.so.1700:_ZNK5arrow11SparseIndex13ValidateShapeERKSt6vectorIlSaIlEE
libarrow.so.1700:_ZNK5arrow11StringArray12ValidateUTF8Ev
libarrow.so.1700:_ZNK5arrow11StructArray11struct_typeEv
libarrow.so.1700:_ZNK5arrow11StructArray14GetFieldByNameERKNSt7__cxx1112basic_stringIcSt11char_traitsIcESaIcEEE
libarrow.so.1700:_ZNK5arrow11StructArray17GetFlattenedFieldEiPNS_10MemoryPoolE
libarrow.so.1700:_ZNK5arrow11StructArray23CanReferenceFieldByNameERKNSt7__cxx1112basic_stringIcSt11char_traitsIcESaIcEEE
libarrow.so.1700:_ZNK5arrow11StructArray25CanReferenceFieldsByNamesERKSt6vectorINSt7__cxx1112basic_stringIcSt11char_traitsIcESaIcEEESaIS7_EE
libarrow.so.1700:_ZNK5arrow11StructArray5fieldEi
libarrow.so.1700:_ZNK5arrow11StructArray6fieldsEv
libarrow.so.1700:_ZNK5arrow11StructArray7FlattenEPNS_10MemoryPoolE
libarrow.so.1700:_ZNK5arrow12BooleanArray10true_countEv
libarrow.so.1700:_ZNK5arrow12BooleanArray11false_countEv
libarrow.so.1700:_ZNK5arrow12ChunkedArray12ApproxEqualsERKS0_RKNS_12EqualOptionsE
libarrow.so.1700:_ZNK5arrow12ChunkedArray12ValidateFullEv
libarrow.so.1700:_ZNK5arrow12ChunkedArray4ViewERKSt10shared_ptrINS_8DataTypeEE
libarrow.so.1700:_ZNK5arrow12ChunkedArray5SliceEl
libarrow.so.1700:_ZNK5arrow12ChunkedArray5SliceEll
libarrow.so.1700:_ZNK5arrow12ChunkedArray6EqualsERKS0_RKNS_12EqualOptionsE
libarrow.so.1700:_ZNK5arrow12ChunkedArray6EqualsERKSt10shared_ptrIS0_ERKNS_12EqualOptionsE
libarrow.so.1700:_ZNK5arrow12ChunkedArray7FlattenEPNS_10MemoryPoolE
libarrow.so.1700:_ZNK5arrow12ChunkedArray8ToStringB5cxx11Ev
libarrow.so.1700:_ZNK5arrow12ChunkedArray8ValidateEv
libarrow.so.1700:_ZNK5arrow12ChunkedArray9GetScalarEl
libarrow.so.1700:_ZNK5arrow12DurationType18ComputeFingerprintB5cxx11Ev
libarrow.so.1700:_ZNK5arrow12DurationType8ToStringB5cxx11Eb
libarrow.so.1700:_ZNK5arrow12IntervalType18ComputeFingerprintB5cxx11Ev
libarrow.so.1700:_ZNK5arrow12ListViewType18ComputeFingerprintB5cxx11Ev
libarrow.so.1700:_ZNK5arrow12ListViewType8ToStringB5cxx11Eb
libarrow.so.1700:_ZNK5arrow12SparseTensor4sizeEv
libarrow.so.1700:_ZNK5arrow12SparseTensor6EqualsERKS0_RKNS_12EqualOptionsE
libarrow.so.1700:_ZNK5arrow12SparseTensor8ToTensorEPNS_10MemoryPoolE
libarrow.so.1700:_ZNK5arrow12SparseTensor8dim_nameB5cxx11Ei
libarrow.so.1700:_ZNK5arrow12StructScalar5fieldENS_8FieldRefE
libarrow.so.1700:_ZNK5arrow13ExtensionType6layoutEv
libarrow.so.1700:_ZNK5arrow13ExtensionType8ToStringB5cxx11Eb
libarrow.so.1700:_ZNK5arrow13HalfFloatType18ComputeFingerprintB5cxx11Ev
libarrow.so.1700:_ZNK5arrow13HalfFloatType9precisionEv
libarrow.so.1700:_ZNK5arrow13LargeListType18ComputeFingerprintB5cxx11Ev
libarrow.so.1700:_ZNK5arrow13LargeListType8ToStringB5cxx11Eb
libarrow.so.1700:_ZNK5arrow13ListViewArray5sizesEv
libarrow.so.1700:_ZNK5arrow13ListViewArray7FlattenEPNS_10MemoryPoolE
libarrow.so.1700:_ZNK5arrow13ListViewArray7offsetsEv
libarrow.so.1700:_ZNK5arrow13SchemaBuilder6FinishEv
libarrow.so.1700:_ZNK5arrow13SchemaBuilder6policyEv
libarrow.so.1700:_ZNK5arrow13StructBuilder4typeEv
libarrow.so.1700:_ZNK5arrow13TimestampType18ComputeFingerprintB5cxx11Ev
libarrow.so.1700:_ZNK5arrow13TimestampType8ToStringB5cxx11Eb
libarrow.so.1700:_ZNK5arrow14BinaryViewType18ComputeFingerprintB5cxx11Ev
libarrow.so.1700:_ZNK5arrow14BinaryViewType8ToStringB5cxx11Eb
libarrow.so.1700:_ZNK5arrow14Decimal128Type8ToStringB5cxx11Eb
libarrow.so.1700:_ZNK5arrow14Decimal256Type8ToStringB5cxx11Eb
libarrow.so.1700:_ZNK5arrow14DictionaryType18ComputeFingerprintB5cxx11Ev
libarrow.so.1700:_ZNK5arrow14DictionaryType6layoutEv
libarrow.so.1700:_ZNK5arrow14DictionaryType8ToStringB5cxx11Eb
libarrow.so.1700:_ZNK5arrow14DictionaryType9bit_widthEv
libarrow.so.1700:_ZNK5arrow14LargeListArray7FlattenEPNS_10MemoryPoolE
libarrow.so.1700:_ZNK5arrow14LargeListArray7offsetsEv
libarrow.so.1700:_ZNK5arrow14SparseCOOIndex8ToStringB5cxx11Ev
libarrow.so.1700:_ZNK5arrow14SparseCSFIndex6EqualsERKS0_
libarrow.so.1700:_ZNK5arrow14SparseCSFIndex8ToStringB5cxx11Ev
libarrow.so.1700:_ZNK5arrow14StringViewType18ComputeFingerprintB5cxx11Ev
libarrow.so.1700:_ZNK5arrow14StringViewType8ToStringB5cxx11Eb
libarrow.so.1700:_ZNK5arrow15BasicDecimal12813ReduceScaleByEib
libarrow.so.1700:_ZNK5arrow15BasicDecimal12815FitsInPrecisionEi
libarrow.so.1700:_ZNK5arrow15BasicDecimal12815IncreaseScaleByEi
libarrow.so.1700:_ZNK5arrow15BasicDecimal12819GetWholeAndFractionEiPS0_S1_
libarrow.so.1700:_ZNK5arrow15BasicDecimal12823CountLeadingBinaryZerosEv
libarrow.so.1700:_ZNK5arrow15BasicDecimal1286DivideERKS0_PS0_S3_
libarrow.so.1700:_ZNK5arrow15BasicDecimal1287RescaleEiiPS0_
libarrow.so.1700:_ZNK5arrow15BasicDecimal25613ReduceScaleByEib
libarrow.so.1700:_ZNK5arrow15BasicDecimal25615FitsInPrecisionEi
libarrow.so.1700:_ZNK5arrow15BasicDecimal25615IncreaseScaleByEi
libarrow.so.1700:_ZNK5arrow15BasicDecimal25619GetWholeAndFractionEiPS0_S1_
libarrow.so.1700:_ZNK5arrow15BasicDecimal2566DivideERKS0_PS0_S3_
libarrow.so.1700:_ZNK5arrow15BasicDecimal2567RescaleEiiPS0_
libarrow.so.1700:_ZNK5arrow15BinaryViewArray7GetViewEl
libarrow.so.1700:_ZNK5arrow15Decimal128Array11FormatValueB5cxx11El
libarrow.so.1700:_ZNK5arrow15Decimal256Array11FormatValueB5cxx11El
libarrow.so.1700:_ZNK5arrow15DictionaryArray10dictionaryEv
libarrow.so.1700:_ZNK5arrow15DictionaryArray13GetValueIndexEl
libarrow.so.1700:_ZNK5arrow15DictionaryArray17CanCompareIndicesERKS0_
libarrow.so.1700:_ZNK5arrow15DictionaryArray7CompactEPNS_10MemoryPoolE
libarrow.so.1700:_ZNK5arrow15DictionaryArray7indicesEv
libarrow.so.1700:_ZNK5arrow15DictionaryArray9TransposeERKSt10shared_ptrINS_8DataTypeEERKS1_INS_5ArrayEEPKiPNS_10MemoryPoolE
libarrow.so.1700:_ZNK5arrow15LargeBinaryType18ComputeFingerprintB5cxx11Ev
libarrow.so.1700:_ZNK5arrow15LargeBinaryType8ToStringB5cxx11Eb
libarrow.so.1700:_ZNK5arrow15LargeStringType18ComputeFingerprintB5cxx11Ev
libarrow.so.1700:_ZNK5arrow15LargeStringType8ToStringB5cxx11Eb
libarrow.so.1700:_ZNK5arrow15ProxyMemoryPool10max_memoryEv
libarrow.so.1700:_ZNK5arrow15ProxyMemoryPool12backend_nameB5cxx11Ev
libarrow.so.1700:_ZNK5arrow15ProxyMemoryPool15bytes_allocatedEv
libarrow.so.1700:_ZNK5arrow15ProxyMemoryPool15num_allocationsEv
libarrow.so.1700:_ZNK5arrow15ProxyMemoryPool21total_bytes_allocatedEv
libarrow.so.1700:_ZNK5arrow15StringViewArray12ValidateUTF8Ev
libarrow.so.1700:_ZNK5arrow15TimestampParser6formatEv
libarrow.so.1700:_ZNK5arrow16DictionaryScalar15GetEncodedValueEv
libarrow.so.1700:_ZNK5arrow16KeyValueMetadata12sorted_pairsB5cxx11Ev
libarrow.so.1700:_ZNK5arrow16KeyValueMetadata14ToUnorderedMapEPSt13unordered_mapINSt7__cxx1112basic_stringIcSt11char_traitsIcESaIcEEES7_St4hashIS7_ESt8equal_toIS7_ESaISt4pairIKS7_S7_EEE
libarrow.so.1700:_ZNK5arrow16KeyValueMetadata3GetB5cxx11ESt17basic_string_viewIcSt11char_traitsIcEE
libarrow.so.1700:_ZNK5arrow16KeyValueMetadata3keyB5cxx11El
libarrow.so.1700:_ZNK5arrow16KeyValueMetadata4CopyEv
libarrow.so.1700:_ZNK5arrow16KeyValueMetadata4sizeEv
libarrow.so.1700:_ZNK5arrow16KeyValueMetadata5MergeERKS0_
libarrow.so.1700:_ZNK5arrow16KeyValueMetadata5valueB5cxx11El
libarrow.so.1700:_ZNK5arrow16KeyValueMetadata6EqualsERKS0_
libarrow.so.1700:_ZNK5arrow16KeyValueMetadata7FindKeyESt17basic_string_viewIcSt11char_traitsIcEE
libarrow.so.1700:_ZNK5arrow16KeyValueMetadata8ContainsESt17basic_string_viewIcSt11char_traitsIcEE
libarrow.so.1700:_ZNK5arrow16KeyValueMetadata8ToStringB5cxx11Ev
libarrow.so.1700:_ZNK5arrow16LargeStringArray12ValidateUTF8Ev
libarrow.so.1700:_ZNK5arrow16SparseUnionArray17GetFlattenedFieldEiPNS_10MemoryPoolE
libarrow.so.1700:_ZNK5arrow16TableBatchReader6schemaEv
libarrow.so.1700:_ZNK5arrow17BasicUnionBuilder4typeEv
libarrow.so.1700:_ZNK5arrow17FixedSizeListType18ComputeFingerprintB5cxx11Ev
libarrow.so.1700:_ZNK5arrow17FixedSizeListType8ToStringB5cxx11Eb
libarrow.so.1700:_ZNK5arrow17LargeListViewType18ComputeFingerprintB5cxx11Ev
libarrow.so.1700:_ZNK5arrow17LargeListViewType8ToStringB5cxx11Eb
libarrow.so.1700:_ZNK5arrow17LoggingMemoryPool10max_memoryEv
libarrow.so.1700:_ZNK5arrow17LoggingMemoryPool12backend_nameB5cxx11Ev
libarrow.so.1700:_ZNK5arrow17LoggingMemoryPool15bytes_allocatedEv
libarrow.so.1700:_ZNK5arrow17LoggingMemoryPool15num_allocationsEv
libarrow.so.1700:_ZNK5arrow17LoggingMemoryPool21total_bytes_allocatedEv
libarrow.so.1700:_ZNK5arrow17RunEndEncodedType18ComputeFingerprintB5cxx11Ev
libarrow.so.1700:_ZNK5arrow17RunEndEncodedType8ToStringB5cxx11Eb
libarrow.so.1700:_ZNK5arrow18AdaptiveIntBuilder4typeEv
libarrow.so.1700:_ZNK5arrow18FixedSizeListArray10value_typeEv
libarrow.so.1700:_ZNK5arrow18FixedSizeListArray6valuesEv
libarrow.so.1700:_ZNK5arrow18FixedSizeListArray7FlattenEPNS_10MemoryPoolE
libarrow.so.1700:_ZNK5arrow18FixedSizeListArray9list_typeEv
libarrow.so.1700:_ZNK5arrow18LargeListViewArray5sizesEv
libarrow.so.1700:_ZNK5arrow18LargeListViewArray7FlattenEPNS_10MemoryPoolE
libarrow.so.1700:_ZNK5arrow18LargeListViewArray7offsetsEv
libarrow.so.1700:_ZNK5arrow18RunEndEncodedArray13LogicalValuesEv
libarrow.so.1700:_ZNK5arrow18RunEndEncodedArray14LogicalRunEndsEPNS_10MemoryPoolE
libarrow.so.1700:_ZNK5arrow18RunEndEncodedArray18FindPhysicalLengthEv
libarrow.so.1700:_ZNK5arrow18RunEndEncodedArray18FindPhysicalOffsetEv
libarrow.so.1700:_ZNK5arrow19AdaptiveUIntBuilder4typeEv
libarrow.so.1700:_ZNK5arrow19FixedSizeBinaryType18ComputeFingerprintB5cxx11Ev
libarrow.so.1700:_ZNK5arrow19FixedSizeBinaryType8ToStringB5cxx11Eb
libarrow.so.1700:_ZNK5arrow19FixedSizeBinaryType9bit_widthEv
libarrow.so.1700:_ZNK5arrow19GenericBasicDecimalINS_15BasicDecimal128ELi128ELi2EE10IsNegativeEv
libarrow.so.1700:_ZNK5arrow19GenericBasicDecimalINS_15BasicDecimal128ELi128ELi2EE19little_endian_arrayEv
libarrow.so.1700:_ZNK5arrow19GenericBasicDecimalINS_15BasicDecimal128ELi128ELi2EE19native_endian_arrayEv
libarrow.so.1700:_ZNK5arrow19GenericBasicDecimalINS_15BasicDecimal128ELi128ELi2EE19native_endian_bytesEv
libarrow.so.1700:_ZNK5arrow19GenericBasicDecimalINS_15BasicDecimal128ELi128ELi2EE4SignEv
libarrow.so.1700:_ZNK5arrow19GenericBasicDecimalINS_15BasicDecimal128ELi128ELi2EE7ToBytesEPh
libarrow.so.1700:_ZNK5arrow19GenericBasicDecimalINS_15BasicDecimal128ELi128ELi2EE7ToBytesEv
libarrow.so.1700:_ZNK5arrow19GenericBasicDecimalINS_15BasicDecimal128ELi128ELi2EEcvbEv
libarrow.so.1700:_ZNK5arrow19GenericBasicDecimalINS_15BasicDecimal256ELi256ELi4EE10IsNegativeEv
libarrow.so.1700:_ZNK5arrow19GenericBasicDecimalINS_15BasicDecimal256ELi256ELi4EE19little_endian_arrayEv
libarrow.so.1700:_ZNK5arrow19GenericBasicDecimalINS_15BasicDecimal256ELi256ELi4EE19native_endian_arrayEv
libarrow.so.1700:_ZNK5arrow19GenericBasicDecimalINS_15BasicDecimal256ELi256ELi4EE19native_endian_bytesEv
libarrow.so.1700:_ZNK5arrow19GenericBasicDecimalINS_15BasicDecimal256ELi256ELi4EE4SignEv
libarrow.so.1700:_ZNK5arrow19GenericBasicDecimalINS_15BasicDecimal256ELi256ELi4EE7ToBytesEPh
libarrow.so.1700:_ZNK5arrow19GenericBasicDecimalINS_15BasicDecimal256ELi256ELi4EE7ToBytesEv
libarrow.so.1700:_ZNK5arrow19GenericBasicDecimalINS_15BasicDecimal256ELi256ELi4EEcvbEv
libarrow.so.1700:_ZNK5arrow20DayTimeIntervalArray8GetValueEl
libarrow.so.1700:_ZNK5arrow20FixedSizeBinaryArray8GetValueEl
libarrow.so.1700:_ZNK5arrow20RunEndEncodedBuilder4typeEv
libarrow.so.1700:_ZNK5arrow22FixedSizeBinaryBuilder7GetViewEl
libarrow.so.1700:_ZNK5arrow22FixedSizeBinaryBuilder8GetValueEl
libarrow.so.1700:_ZNK5arrow24VarLengthListLikeBuilderINS_12ListViewTypeEE13value_builderEv
libarrow.so.1700:_ZNK5arrow24VarLengthListLikeBuilderINS_12ListViewTypeEE16ValidateOverflowEl
libarrow.so.1700:_ZNK5arrow24VarLengthListLikeBuilderINS_12ListViewTypeEE4typeEv
libarrow.so.1700:_ZNK5arrow24VarLengthListLikeBuilderINS_13LargeListTypeEE13value_builderEv
libarrow.so.1700:_ZNK5arrow24VarLengthListLikeBuilderINS_13LargeListTypeEE16ValidateOverflowEl
libarrow.so.1700:_ZNK5arrow24VarLengthListLikeBuilderINS_13LargeListTypeEE4typeEv
libarrow.so.1700:_ZNK5arrow24VarLengthListLikeBuilderINS_17LargeListViewTypeEE13value_builderEv
libarrow.so.1700:_ZNK5arrow24VarLengthListLikeBuilderINS_17LargeListViewTypeEE16ValidateOverflowEl
libarrow.so.1700:_ZNK5arrow24VarLengthListLikeBuilderINS_17LargeListViewTypeEE4typeEv
libarrow.so.1700:_ZNK5arrow24VarLengthListLikeBuilderINS_8ListTypeEE13value_builderEv
libarrow.so.1700:_ZNK5arrow24VarLengthListLikeBuilderINS_8ListTypeEE16ValidateOverflowEl
libarrow.so.1700:_ZNK5arrow24VarLengthListLikeBuilderINS_8ListTypeEE4typeEv
libarrow.so.1700:_ZNK5arrow25MonthDayNanoIntervalArray8GetValueEl
libarrow.so.1700:_ZNK5arrow2fs10FileSystem11PathFromUriERKNSt7__cxx1112basic_stringIcSt11char_traitsIcESaIcEEE
libarrow.so.1700:_ZNK5arrow2fs10FileSystem7MakeUriENSt7__cxx1112basic_stringIcSt11char_traitsIcESaIcEEE
libarrow.so.1700:_ZNK5arrow2fs10GcsOptions6EqualsERKS1_
libarrow.so.1700:_ZNK5arrow2fs11HdfsOptions6EqualsERKS1_
libarrow.so.1700:_ZNK5arrow2fs13GcsFileSystem11PathFromUriERKNSt7__cxx1112basic_stringIcSt11char_traitsIcESaIcEEE
libarrow.so.1700:_ZNK5arrow2fs13GcsFileSystem6EqualsERKNS0_10FileSystemE
libarrow.so.1700:_ZNK5arrow2fs13GcsFileSystem7optionsEv
libarrow.so.1700:_ZNK5arrow2fs13GcsFileSystem9type_nameB5cxx11Ev
libarrow.so.1700:_ZNK5arrow2fs14GcsCredentials6EqualsERKS1_
libarrow.so.1700:_ZNK5arrow2fs14SlowFileSystem11PathFromUriERKNSt7__cxx1112basic_stringIcSt11char_traitsIcESaIcEEE
libarrow.so.1700:_ZNK5arrow2fs14SlowFileSystem6EqualsERKNS0_10FileSystemE
libarrow.so.1700:_ZNK5arrow2fs15LocalFileSystem11PathFromUriERKNSt7__cxx1112basic_stringIcSt11char_traitsIcESaIcEEE
libarrow.so.1700:_ZNK5arrow2fs15LocalFileSystem6EqualsERKNS0_10FileSystemE
libarrow.so.1700:_ZNK5arrow2fs15LocalFileSystem7MakeUriENSt7__cxx1112basic_stringIcSt11char_traitsIcESaIcEEE
libarrow.so.1700:_ZNK5arrow2fs16HadoopFileSystem11PathFromUriERKNSt7__cxx1112basic_stringIcSt11char_traitsIcESaIcEEE
libarrow.so.1700:_ZNK5arrow2fs16HadoopFileSystem6EqualsERKNS0_10FileSystemE
libarrow.so.1700:_ZNK5arrow2fs16HadoopFileSystem7optionsEv
libarrow.so.1700:_ZNK5arrow2fs17SubTreeFileSystem11PathFromUriERKNSt7__cxx1112basic_stringIcSt11char_traitsIcESaIcEEE
libarrow.so.1700:_ZNK5arrow2fs17SubTreeFileSystem11PrependBaseERKNSt7__cxx1112basic_stringIcSt11char_traitsIcESaIcEEE
libarrow.so.1700:_ZNK5arrow2fs17SubTreeFileSystem19PrependBaseNonEmptyERKNSt7__cxx1112basic_stringIcSt11char_traitsIcESaIcEEE
libarrow.so.1700:_ZNK5arrow2fs17SubTreeFileSystem6EqualsERKNS0_10FileSystemE
libarrow.so.1700:_ZNK5arrow2fs17SubTreeFileSystem7FixInfoEPNS0_8FileInfoE
libarrow.so.1700:_ZNK5arrow2fs17SubTreeFileSystem9StripBaseERKNSt7__cxx1112basic_stringIcSt11char_traitsIcESaIcEEE
libarrow.so.1700:_ZNK5arrow2fs22LocalFileSystemOptions6EqualsERKS1_
libarrow.so.1700:_ZNK5arrow2fs8FileInfo8ToStringB5cxx11Ev
libarrow.so.1700:_ZNK5arrow2fs8FileInfo8dir_nameB5cxx11Ev
libarrow.so.1700:_ZNK5arrow2fs8FileInfo9base_nameB5cxx11Ev
libarrow.so.1700:_ZNK5arrow2fs8FileInfo9extensionB5cxx11Ev
libarrow.so.1700:_ZNK5arrow2fs8internal14MockFileSystem11PathFromUriERKNSt7__cxx1112basic_stringIcSt11char_traitsIcESaIcEEE
libarrow.so.1700:_ZNK5arrow2fs8internal14MockFileSystem6EqualsERKNS0_10FileSystemE
libarrow.so.1700:_ZNK5arrow2io11InputStream18supports_zero_copyEv
libarrow.so.1700:_ZNK5arrow2io11StdinStream4TellEv
libarrow.so.1700:_ZNK5arrow2io11StdinStream6closedEv
libarrow.so.1700:_ZNK5arrow2io12BufferReader18supports_zero_copyEv
libarrow.so.1700:_ZNK5arrow2io12BufferReader6DoTellEv
libarrow.so.1700:_ZNK5arrow2io12BufferReader6closedEv
libarrow.so.1700:_ZNK5arrow2io12ReadableFile15file_descriptorEv
libarrow.so.1700:_ZNK5arrow2io12ReadableFile6DoTellEv
libarrow.so.1700:_ZNK5arrow2io12ReadableFile6closedEv
libarrow.so.1700:_ZNK5arrow2io12StderrStream4TellEv
libarrow.so.1700:_ZNK5arrow2io12StderrStream6closedEv
libarrow.so.1700:_ZNK5arrow2io12StdoutStream4TellEv
libarrow.so.1700:_ZNK5arrow2io12StdoutStream6closedEv
libarrow.so.1700:_ZNK5arrow2io15SlowInputStream4TellEv
libarrow.so.1700:_ZNK5arrow2io15SlowInputStream6closedEv
libarrow.so.1700:_ZNK5arrow2io16FileOutputStream15file_descriptorEv
libarrow.so.1700:_ZNK5arrow2io16FileOutputStream4TellEv
libarrow.so.1700:_ZNK5arrow2io16FileOutputStream6closedEv
libarrow.so.1700:_ZNK5arrow2io16HdfsOutputStream4TellEv
libarrow.so.1700:_ZNK5arrow2io16HdfsOutputStream6closedEv
libarrow.so.1700:_ZNK5arrow2io16HdfsReadableFile4TellEv
libarrow.so.1700:_ZNK5arrow2io16HdfsReadableFile6closedEv
libarrow.so.1700:_ZNK5arrow2io16MemoryMappedFile15file_descriptorEv
libarrow.so.1700:_ZNK5arrow2io16MemoryMappedFile18supports_zero_copyEv
libarrow.so.1700:_ZNK5arrow2io16MemoryMappedFile4TellEv
libarrow.so.1700:_ZNK5arrow2io16MemoryMappedFile6closedEv
libarrow.so.1700:_ZNK5arrow2io16MockOutputStream4TellEv
libarrow.so.1700:_ZNK5arrow2io16MockOutputStream6closedEv
libarrow.so.1700:_ZNK5arrow2io18BufferOutputStream4TellEv
libarrow.so.1700:_ZNK5arrow2io18BufferOutputStream6closedEv
libarrow.so.1700:_ZNK5arrow2io19BufferedInputStream11buffer_sizeEv
libarrow.so.1700:_ZNK5arrow2io19BufferedInputStream14bytes_bufferedEv
libarrow.so.1700:_ZNK5arrow2io19BufferedInputStream3rawEv
libarrow.so.1700:_ZNK5arrow2io19BufferedInputStream6DoTellEv
libarrow.so.1700:_ZNK5arrow2io19BufferedInputStream6closedEv
libarrow.so.1700:_ZNK5arrow2io20BufferedOutputStream11buffer_sizeEv
libarrow.so.1700:_ZNK5arrow2io20BufferedOutputStream14bytes_bufferedEv
libarrow.so.1700:_ZNK5arrow2io20BufferedOutputStream3rawEv
libarrow.so.1700:_ZNK5arrow2io20BufferedOutputStream4TellEv
libarrow.so.1700:_ZNK5arrow2io20BufferedOutputStream6closedEv
libarrow.so.1700:_ZNK5arrow2io20SlowRandomAccessFile4TellEv
libarrow.so.1700:_ZNK5arrow2io20SlowRandomAccessFile6closedEv
libarrow.so.1700:_ZNK5arrow2io20TransformInputStream4TellEv
libarrow.so.1700:_ZNK5arrow2io20TransformInputStream6closedEv
libarrow.so.1700:_ZNK5arrow2io21CompressedInputStream3rawEv
libarrow.so.1700:_ZNK5arrow2io21CompressedInputStream6DoTellEv
libarrow.so.1700:_ZNK5arrow2io21CompressedInputStream6closedEv
libarrow.so.1700:_ZNK5arrow2io21FixedSizeBufferWriter4TellEv
libarrow.so.1700:_ZNK5arrow2io21FixedSizeBufferWriter6closedEv
libarrow.so.1700:_ZNK5arrow2io22CompressedOutputStream3rawEv
libarrow.so.1700:_ZNK5arrow2io22CompressedOutputStream4TellEv
libarrow.so.1700:_ZNK5arrow2io22CompressedOutputStream6closedEv
libarrow.so.1700:_ZNK5arrow2io8Readable10io_contextEv
libarrow.so.1700:_ZNK5arrow3csv11BlockParser12parsed_batchEv
libarrow.so.1700:_ZNK5arrow3csv11BlockParser13first_row_numEv
libarrow.so.1700:_ZNK5arrow3csv11ReadOptions8ValidateEv
libarrow.so.1700:_ZNK5arrow3csv12ParseOptions8ValidateEv
libarrow.so.1700:_ZNK5arrow3csv12WriteOptions8ValidateEv
libarrow.so.1700:_ZNK5arrow3csv14ConvertOptions8ValidateEv
libarrow.so.1700:_ZNK5arrow3ipc13StreamDecoder18next_required_sizeEv
libarrow.so.1700:_ZNK5arrow3ipc13StreamDecoder5statsEv
libarrow.so.1700:_ZNK5arrow3ipc13StreamDecoder6schemaEv
libarrow.so.1700:_ZNK5arrow3ipc14DictionaryMemo13GetDictionaryElPNS_10MemoryPoolE
libarrow.so.1700:_ZNK5arrow3ipc14DictionaryMemo13HasDictionaryEl
libarrow.so.1700:_ZNK5arrow3ipc14DictionaryMemo17GetDictionaryTypeEl
libarrow.so.1700:_ZNK5arrow3ipc14DictionaryMemo6fieldsEv
libarrow.so.1700:_ZNK5arrow3ipc14MessageDecoder18next_required_sizeEv
libarrow.so.1700:_ZNK5arrow3ipc14MessageDecoder5stateEv
libarrow.so.1700:_ZNK5arrow3ipc21DictionaryFieldMapper10GetFieldIdESt6vectorIiSaIiEE
libarrow.so.1700:_ZNK5arrow3ipc21DictionaryFieldMapper10num_fieldsEv
libarrow.so.1700:_ZNK5arrow3ipc21DictionaryFieldMapper9num_dictsEv
libarrow.so.1700:_ZNK5arrow3ipc7Message11SerializeToEPNS_2io12OutputStreamERKNS0_15IpcWriteOptionsEPl
libarrow.so.1700:_ZNK5arrow3ipc7Message11body_lengthEv
libarrow.so.1700:_ZNK5arrow3ipc7Message15custom_metadataEv
libarrow.so.1700:_ZNK5arrow3ipc7Message16metadata_versionEv
libarrow.so.1700:_ZNK5arrow3ipc7Message4bodyEv
libarrow.so.1700:_ZNK5arrow3ipc7Message4typeEv
libarrow.so.1700:_ZNK5arrow3ipc7Message6EqualsERKS1_
libarrow.so.1700:_ZNK5arrow3ipc7Message6VerifyEv
libarrow.so.1700:_ZNK5arrow3ipc7Message6headerEv
libarrow.so.1700:_ZNK5arrow3ipc7Message8metadataEv
libarrow.so.1700:_ZNK5arrow3ipc8internal26IoRecordedRandomAccessFile10io_contextEv
libarrow.so.1700:_ZNK5arrow3ipc8internal26IoRecordedRandomAccessFile13GetReadRangesEv
libarrow.so.1700:_ZNK5arrow3ipc8internal26IoRecordedRandomAccessFile4TellEv
libarrow.so.1700:_ZNK5arrow3ipc8internal26IoRecordedRandomAccessFile6closedEv
libarrow.so.1700:_ZNK5arrow4json8internal12ObjectParser12GetStringMapB5cxx11Ev
libarrow.so.1700:_ZNK5arrow4json8internal12ObjectParser7GetBoolEPKc
libarrow.so.1700:_ZNK5arrow4json8internal12ObjectParser9GetStringB5cxx11EPKc
libarrow.so.1700:_ZNK5arrow4util3Uri11query_itemsB5cxx11Ev
libarrow.so.1700:_ZNK5arrow4util3Uri12query_stringB5cxx11Ev
libarrow.so.1700:_ZNK5arrow4util3Uri14is_file_schemeEv
libarrow.so.1700:_ZNK5arrow4util3Uri4hostB5cxx11Ev
libarrow.so.1700:_ZNK5arrow4util3Uri4pathB5cxx11Ev
libarrow.so.1700:_ZNK5arrow4util3Uri4portEv
libarrow.so.1700:_ZNK5arrow4util3Uri6schemeB5cxx11Ev
libarrow.so.1700:_ZNK5arrow4util3Uri8ToStringB5cxx11Ev
libarrow.so.1700:_ZNK5arrow4util3Uri8has_hostEv
libarrow.so.1700:_ZNK5arrow4util3Uri8passwordB5cxx11Ev
libarrow.so.1700:_ZNK5arrow4util3Uri8usernameB5cxx11Ev
libarrow.so.1700:_ZNK5arrow4util3Uri9port_textB5cxx11Ev
libarrow.so.1700:_ZNK5arrow4util7Float167ToFloatEv
libarrow.so.1700:_ZNK5arrow4util7Float168ToDoubleEv
libarrow.so.1700:_ZNK5arrow4util7tracing4Span5validEv
libarrow.so.1700:_ZNK5arrow4util8ArrowLog9IsEnabledEv
libarrow.so.1700:_ZNK5arrow5Array10null_countEv
libarrow.so.1700:_ZNK5arrow5Array11RangeEqualsERKS0_lllRKNS_12EqualOptionsE
libarrow.so.1700:_ZNK5arrow5Array11RangeEqualsERKSt10shared_ptrIS0_ElllRKNS_12EqualOptionsE
libarrow.so.1700:_ZNK5arrow5Array11RangeEqualsElllRKS0_RKNS_12EqualOptionsE
libarrow.so.1700:_ZNK5arrow5Array11RangeEqualsElllRKSt10shared_ptrIS0_ERKNS_12EqualOptionsE
libarrow.so.1700:_ZNK5arrow5Array12ApproxEqualsERKS0_RKNS_12EqualOptionsE
libarrow.so.1700:_ZNK5arrow5Array12ApproxEqualsERKSt10shared_ptrIS0_ERKNS_12EqualOptionsE
libarrow.so.1700:_ZNK5arrow5Array12ValidateFullEv
libarrow.so.1700:_ZNK5arrow5Array12ViewOrCopyToERKSt10shared_ptrINS_13MemoryManagerEE
libarrow.so.1700:_ZNK5arrow5Array23ComputeLogicalNullCountEv
libarrow.so.1700:_ZNK5arrow5Array4DiffB5cxx11ERKS0_
libarrow.so.1700:_ZNK5arrow5Array4ViewERKSt10shared_ptrINS_8DataTypeEE
libarrow.so.1700:_ZNK5arrow5Array5SliceEl
libarrow.so.1700:_ZNK5arrow5Array5SliceEll
libarrow.so.1700:_ZNK5arrow5Array6AcceptEPNS_12ArrayVisitorE
libarrow.so.1700:_ZNK5arrow5Array6CopyToERKSt10shared_ptrINS_13MemoryManagerEE
libarrow.so.1700:_ZNK5arrow5Array6EqualsERKS0_RKNS_12EqualOptionsE
libarrow.so.1700:_ZNK5arrow5Array6EqualsERKSt10shared_ptrIS0_ERKNS_12EqualOptionsE
libarrow.so.1700:_ZNK5arrow5Array8ToStringB5cxx11Ev
libarrow.so.1700:_ZNK5arrow5Array8ValidateEv
libarrow.so.1700:_ZNK5arrow5Array9GetScalarEl
libarrow.so.1700:_ZNK5arrow5Array9SliceSafeEl
libarrow.so.1700:_ZNK5arrow5Array9SliceSafeEll
libarrow.so.1700:_ZNK5arrow5Datum10make_arrayEv
libarrow.so.1700:_ZNK5arrow5Datum10null_countEv
libarrow.so.1700:_ZNK5arrow5Datum15TotalBufferSizeEv
libarrow.so.1700:_ZNK5arrow5Datum4typeEv
libarrow.so.1700:_ZNK5arrow5Datum6EqualsERKS0_
libarrow.so.1700:_ZNK5arrow5Datum6chunksEv
libarrow.so.1700:_ZNK5arrow5Datum6lengthEv
libarrow.so.1700:_ZNK5arrow5Datum6schemaEv
libarrow.so.1700:_ZNK5arrow5Datum8ToStringB5cxx11Ev
libarrow.so.1700:_ZNK5arrow5Field11HasMetadataEv
libarrow.so.1700:_ZNK5arrow5Field12MergeOptions8ToStringB5cxx11Ev
libarrow.so.1700:_ZNK5arrow5Field12WithMetadataERKSt10shared_ptrIKNS_16KeyValueMetadataEE
libarrow.so.1700:_ZNK5arrow5Field12WithNullableEb
libarrow.so.1700:_ZNK5arrow5Field14RemoveMetadataEv
libarrow.so.1700:_ZNK5arrow5Field16IsCompatibleWithERKS0_
libarrow.so.1700:_ZNK5arrow5Field16IsCompatibleWithERKSt10shared_ptrIS0_E
libarrow.so.1700:_ZNK5arrow5Field18ComputeFingerprintB5cxx11Ev
libarrow.so.1700:_ZNK5arrow5Field18WithMergedMetadataERKSt10shared_ptrIKNS_16KeyValueMetadataEE
libarrow.so.1700:_ZNK5arrow5Field26ComputeMetadataFingerprintB5cxx11Ev
libarrow.so.1700:_ZNK5arrow5Field4CopyEv
libarrow.so.1700:_ZNK5arrow5Field6EqualsERKS0_b
libarrow.so.1700:_ZNK5arrow5Field6EqualsERKSt10shared_ptrIS0_Eb
libarrow.so.1700:_ZNK5arrow5Field7FlattenEv
libarrow.so.1700:_ZNK5arrow5Field8ToStringB5cxx11Eb
libarrow.so.1700:_ZNK5arrow5Field8WithNameERKNSt7__cxx1112basic_stringIcSt11char_traitsIcESaIcEEE
libarrow.so.1700:_ZNK5arrow5Field8WithTypeERKSt10shared_ptrINS_8DataTypeEE
libarrow.so.1700:_ZNK5arrow5Field9MergeWithERKS0_NS0_12MergeOptionsE
libarrow.so.1700:_ZNK5arrow5Field9MergeWithERKSt10shared_ptrIS0_ENS0_12MergeOptionsE
libarrow.so.1700:_ZNK5arrow5Table11ColumnNamesB5cxx11Ev
libarrow.so.1700:_ZNK5arrow5Table13CombineChunksEPNS_10MemoryPoolE
libarrow.so.1700:_ZNK5arrow5Table13RenameColumnsERKSt6vectorINSt7__cxx1112basic_stringIcSt11char_traitsIcESaIcEEESaIS7_EE
libarrow.so.1700:_ZNK5arrow5Table13SelectColumnsERKSt6vectorIiSaIiEE
libarrow.so.1700:_ZNK5arrow5Table20CombineChunksToBatchEPNS_10MemoryPoolE
libarrow.so.1700:_ZNK5arrow5Table6EqualsERKS0_b
libarrow.so.1700:_ZNK5arrow5Table6fieldsEv
libarrow.so.1700:_ZNK5arrow5Table8ToStringB5cxx11Ev
libarrow.so.1700:_ZNK5arrow6Buffer12CheckMutableEv
libarrow.so.1700:_ZNK5arrow6Buffer6EqualsERKS0_
libarrow.so.1700:_ZNK5arrow6Buffer6EqualsERKS0_l
libarrow.so.1700:_ZNK5arrow6Buffer8CheckCPUEv
libarrow.so.1700:_ZNK5arrow6Buffer8ToStringB5cxx11Ev
libarrow.so.1700:_ZNK5arrow6Buffer9CopySliceEllPNS_10MemoryPoolE
libarrow.so.1700:_ZNK5arrow6Scalar12ApproxEqualsERKS0_RKNS_12EqualOptionsE
libarrow.so.1700:_ZNK5arrow6Scalar12ValidateFullEv
libarrow.so.1700:_ZNK5arrow6Scalar4hashEv
libarrow.so.1700:_ZNK5arrow6Scalar6AcceptEPNS_13ScalarVisitorE
libarrow.so.1700:_ZNK5arrow6Scalar6CastToESt10shared_ptrINS_8DataTypeEE
libarrow.so.1700:_ZNK5arrow6Scalar6EqualsERKS0_RKNS_12EqualOptionsE
libarrow.so.1700:_ZNK5arrow6Scalar8ToStringB5cxx11Ev
libarrow.so.1700:_ZNK5arrow6Scalar8ValidateEv
libarrow.so.1700:_ZNK5arrow6Schema10endiannessEv
libarrow.so.1700:_ZNK5arrow6Schema10num_fieldsEv
libarrow.so.1700:_ZNK5arrow6Schema11HasMetadataEv
libarrow.so.1700:_ZNK5arrow6Schema11RemoveFieldEi
libarrow.so.1700:_ZNK5arrow6Schema11field_namesB5cxx11Ev
libarrow.so.1700:_ZNK5arrow6Schema12WithMetadataERKSt10shared_ptrIKNS_16KeyValueMetadataEE
libarrow.so.1700:_ZNK5arrow6Schema13GetFieldIndexERKNSt7__cxx1112basic_stringIcSt11char_traitsIcESaIcEEE
libarrow.so.1700:_ZNK5arrow6Schema14GetFieldByNameERKNSt7__cxx1112basic_stringIcSt11char_traitsIcESaIcEEE
libarrow.so.1700:_ZNK5arrow6Schema14RemoveMetadataEv
libarrow.so.1700:_ZNK5arrow6Schema14WithEndiannessENS_10EndiannessE
libarrow.so.1700:_ZNK5arrow6Schema16is_native_endianEv
libarrow.so.1700:_ZNK5arrow6Schema18ComputeFingerprintB5cxx11Ev
libarrow.so.1700:_ZNK5arrow6Schema18GetAllFieldIndicesERKNSt7__cxx1112basic_stringIcSt11char_traitsIcESaIcEEE
libarrow.so.1700:_ZNK5arrow6Schema18GetAllFieldsByNameERKNSt7__cxx1112basic_stringIcSt11char_traitsIcESaIcEEE
libarrow.so.1700:_ZNK5arrow6Schema21HasDistinctFieldNamesEv
libarrow.so.1700:_ZNK5arrow6Schema23CanReferenceFieldByNameERKNSt7__cxx1112basic_stringIcSt11char_traitsIcESaIcEEE
libarrow.so.1700:_ZNK5arrow6Schema25CanReferenceFieldsByNamesERKSt6vectorINSt7__cxx1112basic_stringIcSt11char_traitsIcESaIcEEESaIS7_EE
libarrow.so.1700:_ZNK5arrow6Schema26ComputeMetadataFingerprintB5cxx11Ev
libarrow.so.1700:_ZNK5arrow6Schema5fieldEi
libarrow.so.1700:_ZNK5arrow6Schema6EqualsERKS0_b
libarrow.so.1700:_ZNK5arrow6Schema6EqualsERKSt10shared_ptrIS0_Eb
libarrow.so.1700:_ZNK5arrow6Schema6fieldsEv
libarrow.so.1700:_ZNK5arrow6Schema8AddFieldEiRKSt10shared_ptrINS_5FieldEE
libarrow.so.1700:_ZNK5arrow6Schema8SetFieldEiRKSt10shared_ptrINS_5FieldEE
libarrow.so.1700:_ZNK5arrow6Schema8ToStringB5cxx11Eb
libarrow.so.1700:_ZNK5arrow6Schema8metadataEv
libarrow.so.1700:_ZNK5arrow6Schema9WithNamesERKSt6vectorINSt7__cxx1112basic_stringIcSt11char_traitsIcESaIcEEESaIS7_EE
libarrow.so.1700:_ZNK5arrow6Status12CodeAsStringB5cxx11Ev
libarrow.so.1700:_ZNK5arrow6Status27ToStringWithoutContextLinesB5cxx11Ev
libarrow.so.1700:_ZNK5arrow6Status4WarnERKNSt7__cxx1112basic_stringIcSt11char_traitsIcESaIcEEE
libarrow.so.1700:_ZNK5arrow6Status4WarnEv
libarrow.so.1700:_ZNK5arrow6Status5AbortERKNSt7__cxx1112basic_stringIcSt11char_traitsIcESaIcEEE
libarrow.so.1700:_ZNK5arrow6Status5AbortEv
libarrow.so.1700:_ZNK5arrow6Status8ToStringB5cxx11Ev
libarrow.so.1700:_ZNK5arrow6Tensor12CountNonZeroEv
libarrow.so.1700:_ZNK5arrow6Tensor12is_row_majorEv
libarrow.so.1700:_ZNK5arrow6Tensor13is_contiguousEv
libarrow.so.1700:_ZNK5arrow6Tensor15is_column_majorEv
libarrow.so.1700:_ZNK5arrow6Tensor4sizeEv
libarrow.so.1700:_ZNK5arrow6Tensor6EqualsERKS0_RKNS_12EqualOptionsE
libarrow.so.1700:_ZNK5arrow6Tensor7type_idEv
libarrow.so.1700:_ZNK5arrow6Tensor8dim_nameB5cxx11Ei
libarrow.so.1700:_ZNK5arrow6detail15Fingerprintable19LoadFingerprintSlowB5cxx11Ev
libarrow.so.1700:_ZNK5arrow6detail15Fingerprintable27LoadMetadataFingerprintSlowB5cxx11Ev
libarrow.so.1700:_ZNK5arrow7MapType18ComputeFingerprintB5cxx11Ev
libarrow.so.1700:_ZNK5arrow7MapType8ToStringB5cxx11Eb
libarrow.so.1700:_ZNK5arrow7compute10Expression13IsNullLiteralEv
libarrow.so.1700:_ZNK5arrow7compute10Expression13IsSatisfiableEv
libarrow.so.1700:_ZNK5arrow7compute10Expression18IsScalarExpressionEv
libarrow.so.1700:_ZNK5arrow7compute10Expression4BindERKNS_10TypeHolderEPNS0_11ExecContextE
libarrow.so.1700:_ZNK5arrow7compute10Expression4BindERKNS_6SchemaEPNS0_11ExecContextE
libarrow.so.1700:_ZNK5arrow7compute10Expression4callEv
libarrow.so.1700:_ZNK5arrow7compute10Expression4hashEv
libarrow.so.1700:_ZNK5arrow7compute10Expression4typeEv
libarrow.so.1700:_ZNK5arrow7compute10Expression6EqualsERKS1_
libarrow.so.1700:_ZNK5arrow7compute10Expression7IsBoundEv
libarrow.so.1700:_ZNK5arrow7compute10Expression7literalEv
libarrow.so.1700:_ZNK5arrow7compute10Expression8ToStringB5cxx11Ev
libarrow.so.1700:_ZNK5arrow7compute10Expression9field_refEv
libarrow.so.1700:_ZNK5arrow7compute10Expression9parameterEv
libarrow.so.1700:_ZNK5arrow7compute10OutputType4typeEv
libarrow.so.1700:_ZNK5arrow7compute10OutputType7ResolveEPNS0_13KernelContextERKSt6vectorINS_10TypeHolderESaIS5_EE
libarrow.so.1700:_ZNK5arrow7compute10OutputType8ToStringB5cxx11Ev
libarrow.so.1700:_ZNK5arrow7compute10OutputType8resolverEv
libarrow.so.1700:_ZNK5arrow7compute10SwissTable12early_filterEiPKjPhS4_
libarrow.so.1700:_ZNK5arrow7compute10SwissTable13init_slot_idsEiPKtPKjPKhS7_Pj
libarrow.so.1700:_ZNK5arrow7compute10SwissTable15run_comparisonsEiPKtPKhPKjPiPtRKSt8functionIFviS3_S7_PjS9_PvEESC_
libarrow.so.1700:_ZNK5arrow7compute10SwissTable16early_filter_impEiPKjPhS4_
libarrow.so.1700:_ZNK5arrow7compute10SwissTable17extract_group_idsEiPKtPKjPKhPj
libarrow.so.1700:_ZNK5arrow7compute10SwissTable22extract_group_ids_avx2EiPKjPKhPjiii
libarrow.so.1700:_ZNK5arrow7compute10SwissTable24early_filter_imp_avx2_x8EiPKjPhS4_
libarrow.so.1700:_ZNK5arrow7compute10SwissTable25early_filter_imp_avx2_x32EiPKjPhS4_
libarrow.so.1700:_ZNK5arrow7compute10SwissTable26init_slot_ids_for_new_keysEjPKtPKjPj
libarrow.so.1700:_ZNK5arrow7compute10SwissTable4findEiPKjPhPKhPjPNS_4util15TempVectorStackERKSt8functionIFviPKtS3_S7_PtPvEESF_
libarrow.so.1700:_ZNK5arrow7compute11CastOptions7is_safeEv
libarrow.so.1700:_ZNK5arrow7compute11CastOptions9is_unsafeEv
libarrow.so.1700:_ZNK5arrow7compute11ExecContext8cpu_infoEv
libarrow.so.1700:_ZNK5arrow7compute12MetaFunction7ExecuteERKNS0_9ExecBatchEPKNS0_15FunctionOptionsEPNS0_11ExecContextE
libarrow.so.1700:_ZNK5arrow7compute12MetaFunction7ExecuteERKSt6vectorINS_5DatumESaIS3_EEPKNS0_15FunctionOptionsEPNS0_11ExecContextE
libarrow.so.1700:_ZNK5arrow7compute12RowTableImpl12size_offsetsEl
libarrow.so.1700:_ZNK5arrow7compute12RowTableImpl13has_any_nullsEPKNS0_12LightContextE
libarrow.so.1700:_ZNK5arrow7compute12RowTableImpl15size_null_masksEl
libarrow.so.1700:_ZNK5arrow7compute12RowTableImpl22size_rows_fixed_lengthEl
libarrow.so.1700:_ZNK5arrow7compute12RowTableImpl24size_rows_varying_lengthEl
libarrow.so.1700:_ZNK5arrow7compute14KeyColumnArray12WithMetadataERKNS0_17KeyColumnMetadataE
libarrow.so.1700:_ZNK5arrow7compute14KeyColumnArray14WithBufferFromERKS1_i
libarrow.so.1700:_ZNK5arrow7compute14KeyColumnArray5SliceEll
libarrow.so.1700:_ZNK5arrow7compute15FunctionOptions4CopyEv
libarrow.so.1700:_ZNK5arrow7compute15FunctionOptions6EqualsERKS1_
libarrow.so.1700:_ZNK5arrow7compute15FunctionOptions8ToStringB5cxx11Ev
libarrow.so.1700:_ZNK5arrow7compute15FunctionOptions9SerializeEv
libarrow.so.1700:_ZNK5arrow7compute15KernelSignature13MatchesInputsERKSt6vectorINS_10TypeHolderESaIS3_EE
libarrow.so.1700:_ZNK5arrow7compute15KernelSignature4HashEv
libarrow.so.1700:_ZNK5arrow7compute15KernelSignature6EqualsERKS1_
libarrow.so.1700:_ZNK5arrow7compute15KernelSignature8ToStringB5cxx11Ev
libarrow.so.1700:_ZNK5arrow7compute15SelectionVector6lengthEv
libarrow.so.1700:_ZNK5arrow7compute16FunctionRegistry11GetFunctionERKNSt7__cxx1112basic_stringIcSt11char_traitsIcESaIcEEE
libarrow.so.1700:_ZNK5arrow7compute16FunctionRegistry13cast_functionEv
libarrow.so.1700:_ZNK5arrow7compute16FunctionRegistry13num_functionsEv
libarrow.so.1700:_ZNK5arrow7compute16FunctionRegistry16GetFunctionNamesB5cxx11Ev
libarrow.so.1700:_ZNK5arrow7compute16FunctionRegistry22GetFunctionOptionsTypeERKNSt7__cxx1112basic_stringIcSt11char_traitsIcESaIcEEE
libarrow.so.1700:_ZNK5arrow7compute16RowTableMetadata13is_compatibleERKS1_
libarrow.so.1700:_ZNK5arrow7compute16RowTableMetadata18num_varbinary_colsEv
libarrow.so.1700:_ZNK5arrow7compute16SetLookupOptions23GetNullMatchingBehaviorEv
libarrow.so.1700:_ZNK5arrow7compute18ResizableArrayData10array_dataEv
libarrow.so.1700:_ZNK5arrow7compute18ResizableArrayData12column_arrayEv
libarrow.so.1700:_ZNK5arrow7compute19FunctionOptionsType11DeserializeERKNS_6BufferE
libarrow.so.1700:_ZNK5arrow7compute19FunctionOptionsType9SerializeERKNS0_15FunctionOptionsE
libarrow.so.1700:_ZNK5arrow7compute7SortKey6EqualsERKS1_
libarrow.so.1700:_ZNK5arrow7compute7SortKey8ToStringB5cxx11Ev
libarrow.so.1700:_ZNK5arrow7compute8Function10CheckArityEm
libarrow.so.1700:_ZNK5arrow7compute8Function12DispatchBestEPSt6vectorINS_10TypeHolderESaIS3_EE
libarrow.so.1700:_ZNK5arrow7compute8Function13DispatchExactERKSt6vectorINS_10TypeHolderESaIS3_EE
libarrow.so.1700:_ZNK5arrow7compute8Function15GetBestExecutorESt6vectorINS_10TypeHolderESaIS3_EE
libarrow.so.1700:_ZNK5arrow7compute8Function7ExecuteERKNS0_9ExecBatchEPKNS0_15FunctionOptionsEPNS0_11ExecContextE
libarrow.so.1700:_ZNK5arrow7compute8Function7ExecuteERKSt6vectorINS_5DatumESaIS3_EEPKNS0_15FunctionOptionsEPNS0_11ExecContextE
libarrow.so.1700:_ZNK5arrow7compute8Function8ValidateEv
libarrow.so.1700:_ZNK5arrow7compute8Ordering12IsSuborderOfERKS1_
libarrow.so.1700:_ZNK5arrow7compute8Ordering6EqualsERKS1_
libarrow.so.1700:_ZNK5arrow7compute8Ordering8ToStringB5cxx11Ev
libarrow.so.1700:_ZNK5arrow7compute8internal12CastFunction13DispatchExactERKSt6vectorINS_10TypeHolderESaIS4_EE
libarrow.so.1700:_ZNK5arrow7compute8internal18GenericOptionsType11DeserializeERKNS_6BufferE
libarrow.so.1700:_ZNK5arrow7compute8internal18GenericOptionsType9SerializeERKNS0_15FunctionOptionsE
libarrow.so.1700:_ZNK5arrow7compute9ExecBatch12SelectValuesERKSt6vectorIiSaIiEE
libarrow.so.1700:_ZNK5arrow7compute9ExecBatch13ToRecordBatchESt10shared_ptrINS_6SchemaEEPNS_10MemoryPoolE
libarrow.so.1700:_ZNK5arrow7compute9ExecBatch15TotalBufferSizeEv
libarrow.so.1700:_ZNK5arrow7compute9ExecBatch5SliceEll
libarrow.so.1700:_ZNK5arrow7compute9ExecBatch6EqualsERKS1_
libarrow.so.1700:_ZNK5arrow7compute9ExecBatch8ToStringB5cxx11Ev
libarrow.so.1700:_ZNK5arrow7compute9InputType12type_matcherEv
libarrow.so.1700:_ZNK5arrow7compute9InputType4HashEv
libarrow.so.1700:_ZNK5arrow7compute9InputType4typeEv
libarrow.so.1700:_ZNK5arrow7compute9InputType6EqualsERKS1_
libarrow.so.1700:_ZNK5arrow7compute9InputType7MatchesERKNS_5DatumE
libarrow.so.1700:_ZNK5arrow7compute9InputType7MatchesERKNS_8DataTypeE
libarrow.so.1700:_ZNK5arrow7compute9InputType8ToStringB5cxx11Ev
libarrow.so.1700:_ZNK5arrow8DataType18ComputeFingerprintB5cxx11Ev
libarrow.so.1700:_ZNK5arrow8DataType26ComputeMetadataFingerprintB5cxx11Ev
libarrow.so.1700:_ZNK5arrow8DataType4HashEv
libarrow.so.1700:_ZNK5arrow8DataType6AcceptEPNS_11TypeVisitorE
libarrow.so.1700:_ZNK5arrow8DataType6EqualsERKS0_b
libarrow.so.1700:_ZNK5arrow8DataType6EqualsERKSt10shared_ptrIS0_Eb
libarrow.so.1700:_ZNK5arrow8FieldRef4hashEv
libarrow.so.1700:_ZNK5arrow8FieldRef7FindAllERKNS_11RecordBatchE
libarrow.so.1700:_ZNK5arrow8FieldRef7FindAllERKNS_12ChunkedArrayE
libarrow.so.1700:_ZNK5arrow8FieldRef7FindAllERKNS_5ArrayE
libarrow.so.1700:_ZNK5arrow8FieldRef7FindAllERKNS_5FieldE
libarrow.so.1700:_ZNK5arrow8FieldRef7FindAllERKNS_5TableE
libarrow.so.1700:_ZNK5arrow8FieldRef7FindAllERKNS_6SchemaE
libarrow.so.1700:_ZNK5arrow8FieldRef7FindAllERKNS_8DataTypeE
libarrow.so.1700:_ZNK5arrow8FieldRef7FindAllERKNS_9ArrayDataE
libarrow.so.1700:_ZNK5arrow8FieldRef7FindAllERKSt6vectorISt10shared_ptrINS_5FieldEESaIS4_EE
libarrow.so.1700:_ZNK5arrow8FieldRef8ToStringB5cxx11Ev
libarrow.so.1700:_ZNK5arrow8FieldRef9ToDotPathB5cxx11Ev
libarrow.so.1700:_ZNK5arrow8Int8Type18ComputeFingerprintB5cxx11Ev
libarrow.so.1700:_ZNK5arrow8ListType18ComputeFingerprintB5cxx11Ev
libarrow.so.1700:_ZNK5arrow8ListType8ToStringB5cxx11Eb
libarrow.so.1700:_ZNK5arrow8NullType18ComputeFingerprintB5cxx11Ev
libarrow.so.1700:_ZNK5arrow8NullType8ToStringB5cxx11Eb
libarrow.so.1700:_ZNK5arrow8TimeType18ComputeFingerprintB5cxx11Ev
libarrow.so.1700:_ZNK5arrow8internal11integration21IntegrationJsonReader15ReadRecordBatchEi
libarrow.so.1700:_ZNK5arrow8internal11integration21IntegrationJsonReader18num_record_batchesEv
libarrow.so.1700:_ZNK5arrow8internal11integration21IntegrationJsonReader6schemaEv
libarrow.so.1700:_ZNK5arrow8internal13ChunkResolver15ResolveManyImplElPKhPhhS4_
libarrow.so.1700:_ZNK5arrow8internal13ChunkResolver15ResolveManyImplElPKjPjjS4_
libarrow.so.1700:_ZNK5arrow8internal13ChunkResolver15ResolveManyImplElPKmPmmS4_
libarrow.so.1700:_ZNK5arrow8internal13ChunkResolver15ResolveManyImplElPKtPttS4_
libarrow.so.1700:_ZNK5arrow8internal13SignalHandler6actionEv
libarrow.so.1700:_ZNK5arrow8internal13SignalHandler8callbackEv
libarrow.so.1700:_ZNK5arrow8internal16PlatformFilename4JoinERKS1_
libarrow.so.1700:_ZNK5arrow8internal16PlatformFilename4JoinESt17basic_string_viewIcSt11char_traitsIcEE
libarrow.so.1700:_ZNK5arrow8internal16PlatformFilename4RealEv
libarrow.so.1700:_ZNK5arrow8internal16PlatformFilename6ParentEv
libarrow.so.1700:_ZNK5arrow8internal16PlatformFilename8ToNativeB5cxx11Ev
libarrow.so.1700:_ZNK5arrow8internal16PlatformFilename8ToStringB5cxx11Ev
libarrow.so.1700:_ZNK5arrow8internal16PlatformFilenameeqERKS1_
libarrow.so.1700:_ZNK5arrow8internal16PlatformFilenameneERKS1_
libarrow.so.1700:_ZNK5arrow8internal19DictionaryMemoTable4sizeEv
libarrow.so.1700:_ZNK5arrow8internal4Trie4DumpEPKNS1_4NodeERKNSt7__cxx1112basic_stringIcSt11char_traitsIcESaIcEEE
libarrow.so.1700:_ZNK5arrow8internal4Trie4DumpEv
libarrow.so.1700:_ZNK5arrow8internal4Trie8ValidateEv
libarrow.so.1700:_ZNK5arrow8internal6Bitmap4DiffB5cxx11ERKS1_
libarrow.so.1700:_ZNK5arrow8internal6Bitmap6EqualsERKS1_
libarrow.so.1700:_ZNK5arrow8internal6Bitmap8ToStringB5cxx11Ev
libarrow.so.1700:_ZNK5arrow8internal7CpuInfo10IsDetectedEl
libarrow.so.1700:_ZNK5arrow8internal7CpuInfo10model_nameB5cxx11Ev
libarrow.so.1700:_ZNK5arrow8internal7CpuInfo11IsSupportedEl
libarrow.so.1700:_ZNK5arrow8internal7CpuInfo14hardware_flagsEv
libarrow.so.1700:_ZNK5arrow8internal7CpuInfo21VerifyCpuRequirementsEv
libarrow.so.1700:_ZNK5arrow8internal7CpuInfo6vendorEv
libarrow.so.1700:_ZNK5arrow8internal7CpuInfo9CacheSizeENS1_10CacheLevelE
libarrow.so.1700:_ZNK5arrow8internal7CpuInfo9num_coresEv
libarrow.so.1700:_ZNK5arrow8internal7TDigest10MergeInputEv
libarrow.so.1700:_ZNK5arrow8internal7TDigest4DumpEv
libarrow.so.1700:_ZNK5arrow8internal7TDigest4MeanEv
libarrow.so.1700:_ZNK5arrow8internal7TDigest8QuantileEd
libarrow.so.1700:_ZNK5arrow8internal7TDigest8ValidateEv
libarrow.so.1700:_ZNK5arrow8internal7TDigest8is_emptyEv
libarrow.so.1700:_ZNK5arrow9ArrayData11device_typeEv
libarrow.so.1700:_ZNK5arrow9ArrayData12GetNullCountEv
libarrow.so.1700:_ZNK5arrow9ArrayData12ViewOrCopyToERKSt10shared_ptrINS_13MemoryManagerEE
libarrow.so.1700:_ZNK5arrow9ArrayData23ComputeLogicalNullCountEv
libarrow.so.1700:_ZNK5arrow9ArrayData5SliceEll
libarrow.so.1700:_ZNK5arrow9ArrayData6CopyToERKSt10shared_ptrINS_13MemoryManagerEE
libarrow.so.1700:_ZNK5arrow9ArrayData9SliceSafeEll
libarrow.so.1700:_ZNK5arrow9ArraySpan11ToArrayDataEv
libarrow.so.1700:_ZNK5arrow9ArraySpan11num_buffersEv
libarrow.so.1700:_ZNK5arrow9ArraySpan12GetNullCountEv
libarrow.so.1700:_ZNK5arrow9ArraySpan16IsNullDenseUnionEl
libarrow.so.1700:_ZNK5arrow9ArraySpan17IsNullSparseUnionEl
libarrow.so.1700:_ZNK5arrow9ArraySpan18GetVariadicBuffersEv
libarrow.so.1700:_ZNK5arrow9ArraySpan18HasVariadicBuffersEv
libarrow.so.1700:_ZNK5arrow9ArraySpan19IsNullRunEndEncodedEl
libarrow.so.1700:_ZNK5arrow9ArraySpan23ComputeLogicalNullCountEv
libarrow.so.1700:_ZNK5arrow9ArraySpan24UnionMayHaveLogicalNullsEv
libarrow.so.1700:_ZNK5arrow9ArraySpan29DictionaryMayHaveLogicalNullsEv
libarrow.so.1700:_ZNK5arrow9ArraySpan32RunEndEncodedMayHaveLogicalNullsEv
libarrow.so.1700:_ZNK5arrow9ArraySpan7ToArrayEv
libarrow.so.1700:_ZNK5arrow9CPUDevice6EqualsERKNS_6DeviceE
libarrow.so.1700:_ZNK5arrow9CPUDevice8ToStringB5cxx11Ev
libarrow.so.1700:_ZNK5arrow9CPUDevice9type_nameEv
libarrow.so.1700:_ZNK5arrow9FieldPath12GetFlattenedERKNS_11RecordBatchEPNS_10MemoryPoolE
libarrow.so.1700:_ZNK5arrow9FieldPath12GetFlattenedERKNS_12ChunkedArrayEPNS_10MemoryPoolE
libarrow.so.1700:_ZNK5arrow9FieldPath12GetFlattenedERKNS_5ArrayEPNS_10MemoryPoolE
libarrow.so.1700:_ZNK5arrow9FieldPath12GetFlattenedERKNS_5TableEPNS_10MemoryPoolE
libarrow.so.1700:_ZNK5arrow9FieldPath12GetFlattenedERKNS_9ArrayDataEPNS_10MemoryPoolE
libarrow.so.1700:_ZNK5arrow9FieldPath3GetERKNS_11RecordBatchE
libarrow.so.1700:_ZNK5arrow9FieldPath3GetERKNS_12ChunkedArrayE
libarrow.so.1700:_ZNK5arrow9FieldPath3GetERKNS_5ArrayE
libarrow.so.1700:_ZNK5arrow9FieldPath3GetERKNS_5FieldE
libarrow.so.1700:_ZNK5arrow9FieldPath3GetERKNS_5TableE
libarrow.so.1700:_ZNK5arrow9FieldPath3GetERKNS_6SchemaE
libarrow.so.1700:_ZNK5arrow9FieldPath3GetERKNS_8DataTypeE
libarrow.so.1700:_ZNK5arrow9FieldPath3GetERKNS_9ArrayDataE
libarrow.so.1700:_ZNK5arrow9FieldPath3GetERKSt6vectorISt10shared_ptrINS_5FieldEESaIS4_EE
libarrow.so.1700:_ZNK5arrow9FieldPath4hashEv
libarrow.so.1700:_ZNK5arrow9FieldPath8ToStringB5cxx11Ev
libarrow.so.1700:_ZNK5arrow9FloatType18ComputeFingerprintB5cxx11Ev
libarrow.so.1700:_ZNK5arrow9FloatType9precisionEv
libarrow.so.1700:_ZNK5arrow9Int16Type18ComputeFingerprintB5cxx11Ev
libarrow.so.1700:_ZNK5arrow9Int32Type18ComputeFingerprintB5cxx11Ev
libarrow.so.1700:_ZNK5arrow9Int64Type18ComputeFingerprintB5cxx11Ev
libarrow.so.1700:_ZNK5arrow9ListArray7FlattenEPNS_10MemoryPoolE
libarrow.so.1700:_ZNK5arrow9ListArray7offsetsEv
libarrow.so.1700:_ZNK5arrow9StopToken15IsStopRequestedEv
libarrow.so.1700:_ZNK5arrow9StopToken4PollEv
libarrow.so.1700:_ZNK5arrow9UInt8Type18ComputeFingerprintB5cxx11Ev
libarrow.so.1700:_ZNK5arrow9UnionType13max_type_codeEv
libarrow.so.1700:_ZNK5arrow9UnionType18ComputeFingerprintB5cxx11Ev
libarrow.so.1700:_ZNK5arrow9UnionType4modeEv
libarrow.so.1700:_ZNK5arrow9UnionType6layoutEv
libarrow.so.1700:_ZNK5arrow9UnionType8ToStringB5cxx11Eb
libarrow.so.1700:_ZNK5arrow9extension20FixedShapeTensorType11DeserializeESt10shared_ptrINS_8DataTypeEERKNSt7__cxx1112basic_stringIcSt11char_traitsIcESaIcEEE
libarrow.so.1700:_ZNK5arrow9extension20FixedShapeTensorType15ExtensionEqualsERKNS_13ExtensionTypeE
libarrow.so.1700:_ZNK5arrow9extension20FixedShapeTensorType8ToStringB5cxx11Eb
libarrow.so.1700:_ZNK5arrow9extension20FixedShapeTensorType9MakeArrayESt10shared_ptrINS_9ArrayDataEE
libarrow.so.1700:_ZNK5arrow9extension20FixedShapeTensorType9SerializeB5cxx11Ev
libarrow.so.1700:_ZNK5arrow9extension21FixedShapeTensorArray8ToTensorEv
libarrow.so.1700:_ZNK5arrow9rapidjson11ParseResult7IsErrorEv
libarrow.so.1700:_ZNSt17_Function_handlerIFN5arrow6FutureISt10shared_ptrINS0_11RecordBatchEEEEvENS0_20CancellableGeneratorIS4_EEE10_M_managerERSt9_Any_dataRKSA_St18_Manager_operation
libarrow.so.1700:_ZNSt17_Function_handlerIFN5arrow6FutureISt10shared_ptrINS0_11RecordBatchEEEEvENS0_20CancellableGeneratorIS4_EEE9_M_invokeERKSt9_Any_data
libarrow.so.1700:_ZNSt17_Function_handlerIFN5arrow6FutureISt10shared_ptrINS0_11RecordBatchEEEEvENS0_3ipc32WholeIpcFileRecordBatchGeneratorEE10_M_managerERSt9_Any_dataRKSA_St18_Manager_operation
libarrow.so.1700:_ZNSt17_Function_handlerIFN5arrow6FutureISt10shared_ptrINS0_11RecordBatchEEEEvENS0_3ipc32WholeIpcFileRecordBatchGeneratorEE9_M_invokeERKSt9_Any_data
libarrow.so.1700:_ZNSt17_Function_handlerIFN5arrow6FutureISt10shared_ptrINS0_11RecordBatchEEEEvENS0_3ipc36SelectiveIpcFileRecordBatchGeneratorEE10_M_managerERSt9_Any_dataRKSA_St18_Manager_operation
libarrow.so.1700:_ZNSt17_Function_handlerIFN5arrow6FutureISt10shared_ptrINS0_11RecordBatchEEEEvENS0_3ipc36SelectiveIpcFileRecordBatchGeneratorEE9_M_invokeERKSt9_Any_data
libarrow.so.1700:_ZNSt17_Function_handlerIFN5arrow6FutureISt10shared_ptrINS0_11RecordBatchEEEEvEZNS0_18MakeEmptyGeneratorIS4_EESt8functionIFNS1_IT_EEvEEvEUlvE_E10_M_managerERSt9_Any_dataRKSF_St18_Manager_operation
libarrow.so.1700:_ZNSt17_Function_handlerIFN5arrow6FutureISt10shared_ptrINS0_11RecordBatchEEEEvEZNS0_18MakeEmptyGeneratorIS4_EESt8functionIFNS1_IT_EEvEEvEUlvE_E9_M_invokeERKSt9_Any_data
libarrow.so.1700:_ZNSt17_Function_handlerIFN5arrow6FutureISt10shared_ptrINS0_6BufferEEEEvENS0_19BackgroundGeneratorIS4_EEE10_M_managerERSt9_Any_dataRKSA_St18_Manager_operation
libarrow.so.1700:_ZNSt17_Function_handlerIFN5arrow6FutureISt10shared_ptrINS0_6BufferEEEEvENS0_19BackgroundGeneratorIS4_EEE9_M_invokeERKSt9_Any_data
libarrow.so.1700:_ZNSt17_Function_handlerIFN5arrow6FutureISt10shared_ptrINS0_6BufferEEEEvENS0_21TransferringGeneratorIS4_EEE10_M_managerERSt9_Any_dataRKSA_St18_Manager_operation
libarrow.so.1700:_ZNSt17_Function_handlerIFN5arrow6FutureISt10shared_ptrINS0_6BufferEEEEvENS0_21TransferringGeneratorIS4_EEE9_M_invokeERKSt9_Any_data
libarrow.so.1700:_ZNSt17_Function_handlerIFN5arrow6FutureISt10shared_ptrINS0_6BufferEEEEvENS0_21TransformingGeneratorIS4_S4_EEE10_M_managerERSt9_Any_dataRKSA_St18_Manager_operation
libarrow.so.1700:_ZNSt17_Function_handlerIFN5arrow6FutureISt10shared_ptrINS0_6BufferEEEEvENS0_21TransformingGeneratorIS4_S4_EEE9_M_invokeERKSt9_Any_data
libarrow.so.1700:_ZNSt17_Function_handlerIFN5arrow6FutureISt10shared_ptrINS0_6BufferEEEEvEZNS0_21MakeReadaheadIteratorIS4_EENS0_6ResultINS0_8IteratorIT_EEEESB_iEUlvE_E10_M_managerERSt9_Any_dataRKSF_St18_Manager_operation
libarrow.so.1700:_ZNSt17_Function_handlerIFN5arrow6FutureISt10shared_ptrINS0_6BufferEEEEvEZNS0_21MakeReadaheadIteratorIS4_EENS0_6ResultINS0_8IteratorIT_EEEESB_iEUlvE_E9_M_invokeERKSt9_Any_data
libarrow.so.1700:_ZNSt17_Function_handlerIFN5arrow6FutureISt6vectorINS0_2fs8FileInfoESaIS4_EEEERKS6_EZNS0_19MakeMappedGeneratorIS6_St8functionIFNS0_6ResultIS6_EES9_EESE_S6_EESC_IFNS1_IT2_EEvEESC_IFNS1_IT_EEvEET0_EUlS9_E_E10_M_managerERSt9_Any_dataRKSS_St18_Manager_operation
libarrow.so.1700:_ZNSt17_Function_handlerIFN5arrow6FutureISt6vectorINS0_2fs8FileInfoESaIS4_EEEERKS6_EZNS0_19MakeMappedGeneratorIS6_St8functionIFNS0_6ResultIS6_EES9_EESE_S6_EESC_IFNS1_IT2_EEvEESC_IFNS1_IT_EEvEET0_EUlS9_E_E9_M_invokeERKSt9_Any_dataS9_
libarrow.so.1700:_ZNSt17_Function_handlerIFN5arrow6FutureISt6vectorINS0_2fs8FileInfoESaIS4_EEEEvENS0_15MergedGeneratorIS6_EEE10_M_managerERSt9_Any_dataRKSC_St18_Manager_operation
libarrow.so.1700:_ZNSt17_Function_handlerIFN5arrow6FutureISt6vectorINS0_2fs8FileInfoESaIS4_EEEEvENS0_15MergedGeneratorIS6_EEE9_M_invokeERKSt9_Any_data
libarrow.so.1700:_ZNSt17_Function_handlerIFN5arrow6FutureISt6vectorINS0_2fs8FileInfoESaIS4_EEEEvENS0_16MappingGeneratorIS6_S6_EEE10_M_managerERSt9_Any_dataRKSC_St18_Manager_operation
libarrow.so.1700:_ZNSt17_Function_handlerIFN5arrow6FutureISt6vectorINS0_2fs8FileInfoESaIS4_EEEEvENS0_16MappingGeneratorIS6_S6_EEE9_M_invokeERKSt9_Any_data
libarrow.so.1700:_ZNSt17_Function_handlerIFN5arrow6FutureISt6vectorINS0_2fs8FileInfoESaIS4_EEEEvENS0_19BackgroundGeneratorIS6_EEE10_M_managerERSt9_Any_dataRKSC_St18_Manager_operation
libarrow.so.1700:_ZNSt17_Function_handlerIFN5arrow6FutureISt6vectorINS0_2fs8FileInfoESaIS4_EEEEvENS0_19BackgroundGeneratorIS6_EEE9_M_invokeERKSt9_Any_data
libarrow.so.1700:_ZNSt17_Function_handlerIFN5arrow6FutureISt6vectorINS0_2fs8FileInfoESaIS4_EEEEvENS0_21TransferringGeneratorIS6_EEE10_M_managerERSt9_Any_dataRKSC_St18_Manager_operation
libarrow.so.1700:_ZNSt17_Function_handlerIFN5arrow6FutureISt6vectorINS0_2fs8FileInfoESaIS4_EEEEvENS0_21TransferringGeneratorIS6_EEE9_M_invokeERKSt9_Any_data
libarrow.so.1700:_ZNSt17_Function_handlerIFN5arrow6FutureISt6vectorINS0_2fs8FileInfoESaIS4_EEEEvEZNS0_19MakeVectorGeneratorIS6_EESt8functionIFNS1_IT_EEvEES2_ISB_SaISB_EEEUlvE_E10_M_managerERSt9_Any_dataRKSJ_St18_Manager_operation
libarrow.so.1700:_ZNSt17_Function_handlerIFN5arrow6FutureISt6vectorINS0_2fs8FileInfoESaIS4_EEEEvEZNS0_19MakeVectorGeneratorIS6_EESt8functionIFNS1_IT_EEvEES2_ISB_SaISB_EEEUlvE_E9_M_invokeERKSt9_Any_data
libarrow.so.1700:_ZNSt17_Function_handlerIFN5arrow6FutureISt6vectorINS0_2fs8FileInfoESaIS4_EEEEvEZNS0_20MakeFailingGeneratorIS6_EESt8functionIFNS1_IT_EEvEENS0_6StatusEEUlvE_E10_M_managerERSt9_Any_dataRKSI_St18_Manager_operation
libarrow.so.1700:_ZNSt17_Function_handlerIFN5arrow6FutureISt6vectorINS0_2fs8FileInfoESaIS4_EEEEvEZNS0_20MakeFailingGeneratorIS6_EESt8functionIFNS1_IT_EEvEENS0_6StatusEEUlvE_E9_M_invokeERKSt9_Any_data
libarrow.so.1700:_ZNSt17_Function_handlerIFN5arrow6FutureISt6vectorINS0_2fs8FileInfoESaIS4_EEEEvEZNS0_25MakeAutoStartingGeneratorIS6_EESt8functionIFNS1_IT_EEvEESE_E18AutostartGeneratorE10_M_managerERSt9_Any_dataRKSH_St18_Manager_operation
libarrow.so.1700:_ZNSt17_Function_handlerIFN5arrow6FutureISt6vectorINS0_2fs8FileInfoESaIS4_EEEEvEZNS0_25MakeAutoStartingGeneratorIS6_EESt8functionIFNS1_IT_EEvEESE_E18AutostartGeneratorE9_M_invokeERKSt9_Any_data
libarrow.so.1700:_ZNSt17_Function_handlerIFN5arrow6FutureISt6vectorINS0_2fs8FileInfoESaIS4_EEEEvEZNS0_25MakeSingleFutureGeneratorIS6_EESt8functionIFNS1_IT_EEvEESC_EUlvE_E10_M_managerERSt9_Any_dataRKSH_St18_Manager_operation
libarrow.so.1700:_ZNSt17_Function_handlerIFN5arrow6FutureISt6vectorINS0_2fs8FileInfoESaIS4_EEEEvEZNS0_25MakeSingleFutureGeneratorIS6_EESt8functionIFNS1_IT_EEvEESC_EUlvE_E9_M_invokeERKSt9_Any_data
libarrow.so.1700:_ZNSt17_Function_handlerIFN5arrow6FutureISt8functionIFNS1_ISt6vectorINS0_2fs8FileInfoESaIS5_EEEEvEEEERKSA_EZNS0_19MakeMappedGeneratorISA_ZNS0_28MakeSequencedMergedGeneratorIS7_EENS0_6ResultIS2_IFNS1_IT_EEvEEEES2_IFNS1_ISL_EEvEEiEUlSD_E_SA_SA_EES2_IFNS1_IT2_EEvEESL_T0_EUlSD_E_E10_M_managerERSt9_Any_dataRKSY_St18_Manager_operation
libarrow.so.1700:_ZNSt17_Function_handlerIFN5arrow6FutureISt8functionIFNS1_ISt6vectorINS0_2fs8FileInfoESaIS5_EEEEvEEEERKSA_EZNS0_19MakeMappedGeneratorISA_ZNS0_28MakeSequencedMergedGeneratorIS7_EENS0_6ResultIS2_IFNS1_IT_EEvEEEES2_IFNS1_ISL_EEvEEiEUlSD_E_SA_SA_EES2_IFNS1_IT2_EEvEESL_T0_EUlSD_E_E9_M_invokeERKSt9_Any_dataSD_
libarrow.so.1700:_ZNSt17_Function_handlerIFN5arrow6FutureISt8functionIFNS1_ISt6vectorINS0_2fs8FileInfoESaIS5_EEEEvEEEEvENS0_13PushGeneratorISA_EEE10_M_managerERSt9_Any_dataRKSG_St18_Manager_operation
libarrow.so.1700:_ZNSt17_Function_handlerIFN5arrow6FutureISt8functionIFNS1_ISt6vectorINS0_2fs8FileInfoESaIS5_EEEEvEEEEvENS0_13PushGeneratorISA_EEE9_M_invokeERKSt9_Any_data
libarrow.so.1700:_ZNSt17_Function_handlerIFN5arrow6FutureISt8functionIFNS1_ISt6vectorINS0_2fs8FileInfoESaIS5_EEEEvEEEEvENS0_16MappingGeneratorISA_SA_EEE10_M_managerERSt9_Any_dataRKSG_St18_Manager_operation
libarrow.so.1700:_ZNSt17_Function_handlerIFN5arrow6FutureISt8functionIFNS1_ISt6vectorINS0_2fs8FileInfoESaIS5_EEEEvEEEEvENS0_16MappingGeneratorISA_SA_EEE9_M_invokeERKSt9_Any_data
libarrow.so.1700:_ZNSt17_Function_handlerIFN5arrow6FutureISt8functionIFNS1_ISt6vectorINS0_2fs8FileInfoESaIS5_EEEEvEEEEvENS0_24SerialReadaheadGeneratorISA_EEE10_M_managerERSt9_Any_dataRKSG_St18_Manager_operation
libarrow.so.1700:_ZNSt17_Function_handlerIFN5arrow6FutureISt8functionIFNS1_ISt6vectorINS0_2fs8FileInfoESaIS5_EEEEvEEEEvENS0_24SerialReadaheadGeneratorISA_EEE9_M_invokeERKSt9_Any_data
libarrow.so.1700:_ZNSt17_Function_handlerIFN5arrow6ResultINS0_10TypeHolderEEEPNS0_7compute13KernelContextERKSt6vectorIS2_SaIS2_EEEPSC_E10_M_managerERSt9_Any_dataRKSF_St18_Manager_operation
libarrow.so.1700:_ZNSt17_Function_handlerIFN5arrow6ResultINS0_10TypeHolderEEEPNS0_7compute13KernelContextERKSt6vectorIS2_SaIS2_EEEPSC_E9_M_invokeERKSt9_Any_dataOS6_SB_
libarrow.so.1700:_ZNSt17_Function_handlerIFN5arrow6ResultISt10shared_ptrINS0_13MemoryManagerEEEEilEPS6_E10_M_managerERSt9_Any_dataRKS9_St18_Manager_operation
libarrow.so.1700:_ZNSt17_Function_handlerIFN5arrow6ResultISt10shared_ptrINS0_13MemoryManagerEEEEilEPS6_E9_M_invokeERKSt9_Any_dataOiOl
libarrow.so.1700:_ZNSt17_Function_handlerIFN5arrow6ResultISt10shared_ptrINS0_13MemoryManagerEEEElEPS6_E10_M_managerERSt9_Any_dataRKS9_St18_Manager_operation
libarrow.so.1700:_ZNSt17_Function_handlerIFN5arrow6ResultISt10shared_ptrINS0_13MemoryManagerEEEElEPS6_E9_M_invokeERKSt9_Any_dataOl
libarrow.so.1700:_ZNSt17_Function_handlerIFN5arrow6ResultISt10shared_ptrINS0_2fs10FileSystemEEEERKNS0_4util3UriERKNS0_2io9IOContextEPNSt7__cxx1112basic_stringIcSt11char_traitsIcESaIcEEEEPSM_E10_M_managerERSt9_Any_dataRKSP_St18_Manager_operation
libarrow.so.1700:_ZNSt17_Function_handlerIFN5arrow6ResultISt10shared_ptrINS0_2fs10FileSystemEEEERKNS0_4util3UriERKNS0_2io9IOContextEPNSt7__cxx1112basic_stringIcSt11char_traitsIcESaIcEEEEPSM_E9_M_invokeERKSt9_Any_dataSA_SE_OSL_
libarrow.so.1700:_ZNSt17_Function_handlerIFN5arrow6ResultISt10unique_ptrINS0_7compute11KernelStateESt14default_deleteIS4_EEEEPNS3_13KernelContextERKNS3_14KernelInitArgsEEPSE_E10_M_managerERSt9_Any_dataRKSH_St18_Manager_operation
libarrow.so.1700:_ZNSt17_Function_handlerIFN5arrow6ResultISt10unique_ptrINS0_7compute11KernelStateESt14default_deleteIS4_EEEEPNS3_13KernelContextERKNS3_14KernelInitArgsEEPSE_E9_M_invokeERKSt9_Any_dataOSA_SD_
libarrow.so.1700:_ZNSt17_Function_handlerIFN5arrow6StatusENS0_4json10BuilderPtrEPSt10shared_ptrINS0_5ArrayEEEZNS2_13RawBuilderSet6FinishERKS6_S3_S7_EUlS3_S7_E_E10_M_managerERSt9_Any_dataRKSE_St18_Manager_operation
libarrow.so.1700:_ZNSt17_Function_handlerIFN5arrow6StatusENS0_4json10BuilderPtrEPSt10shared_ptrINS0_5ArrayEEEZNS2_13RawBuilderSet6FinishERKS6_S3_S7_EUlS3_S7_E_E9_M_invokeERKSt9_Any_dataOS3_OS7_
libarrow.so.1700:_ZNSt17_Function_handlerIFN5arrow6StatusEPKvPNS0_2io16RandomAccessFileEEZNS0_3ipc25RecordBatchFileReaderImpl33ReadRecordBatchWithCustomMetadataEiEUlS3_S6_E_E10_M_managerERSt9_Any_dataRKSC_St18_Manager_operation
libarrow.so.1700:_ZNSt17_Function_handlerIFN5arrow6StatusEPKvPNS0_2io16RandomAccessFileEEZNS0_3ipc25RecordBatchFileReaderImpl33ReadRecordBatchWithCustomMetadataEiEUlS3_S6_E_E9_M_invokeERKSt9_Any_dataOS3_OS6_
libarrow.so.1700:_ZNSt17_Function_handlerIFN5arrow6StatusEPNS0_12ArrayBuilderEEPS4_E10_M_managerERSt9_Any_dataRKS7_St18_Manager_operation
libarrow.so.1700:_ZNSt17_Function_handlerIFN5arrow6StatusEPNS0_12ArrayBuilderEEPS4_E9_M_invokeERKSt9_Any_dataOS3_
libarrow.so.1700:_ZNSt17_Function_handlerIFN5arrow6StatusEPNS0_7compute13KernelContextEPSt6vectorINS0_5DatumESaIS6_EEEPSA_E10_M_managerERSt9_Any_dataRKSD_St18_Manager_operation
libarrow.so.1700:_ZNSt17_Function_handlerIFN5arrow6StatusEPNS0_7compute13KernelContextEPSt6vectorINS0_5DatumESaIS6_EEEPSA_E9_M_invokeERKSt9_Any_dataOS4_OS9_
libarrow.so.1700:_ZNSt17_Function_handlerIFN5arrow6StatusERKNS0_5ArrayES4_S4_ENS0_20UnifiedDiffFormatterEE10_M_managerERSt9_Any_dataRKS8_St18_Manager_operation
libarrow.so.1700:_ZNSt17_Function_handlerIFN5arrow6StatusERKNS0_5ArrayES4_S4_ENS0_20UnifiedDiffFormatterEE9_M_invokeERKSt9_Any_dataS4_S4_S4_
libarrow.so.1700:_ZNSt17_Function_handlerIFN5arrow6StatusESt8optionalIlEEZNS0_28DiscardAllFromAsyncGeneratorIS3_EENS0_6FutureINS0_8internal5EmptyEEESt8functionIFNS6_IT_EEvEEEUlRKS3_E_E10_M_managerERSt9_Any_dataRKSJ_St18_Manager_operation
libarrow.so.1700:_ZNSt17_Function_handlerIFN5arrow6StatusESt8optionalIlEEZNS0_28DiscardAllFromAsyncGeneratorIS3_EENS0_6FutureINS0_8internal5EmptyEEESt8functionIFNS6_IT_EEvEEEUlRKS3_E_E9_M_invokeERKSt9_Any_dataOS3_
libarrow.so.1700:_ZNSt17_Function_handlerIFN5arrow6StatusEllllENS0_20UnifiedDiffFormatterEE10_M_managerERSt9_Any_dataRKS5_St18_Manager_operation
libarrow.so.1700:_ZNSt17_Function_handlerIFN5arrow6StatusEllllENS0_20UnifiedDiffFormatterEE9_M_invokeERKSt9_Any_dataOlS8_S8_S8_
libarrow.so.1700:_ZNSt17_Function_handlerIFN5arrow8internal6FnOnceIFvRKNS0_10FutureImplEEEEvEZNKS0_6FutureISt10shared_ptrINS0_6BufferEEE14TryAddCallbackIZNS1_8Executor10DoTransferISC_SD_NS0_6ResultISC_EEEENS9_IT_EESK_bEUlvE_ZNSG_ISC_SD_SI_EESK_SK_bEUlRKSI_E0_NSD_20WrapResultOnComplete8CallbackISO_EEEEbSJ_NS0_15CallbackOptionsEEUlvE_E10_M_managerERSt9_Any_dataRKSV_St18_Manager_operation
libarrow.so.1700:_ZNSt17_Function_handlerIFN5arrow8internal6FnOnceIFvRKNS0_10FutureImplEEEEvEZNKS0_6FutureISt10shared_ptrINS0_6BufferEEE14TryAddCallbackIZNS1_8Executor10DoTransferISC_SD_NS0_6ResultISC_EEEENS9_IT_EESK_bEUlvE_ZNSG_ISC_SD_SI_EESK_SK_bEUlRKSI_E0_NSD_20WrapResultOnComplete8CallbackISO_EEEEbSJ_NS0_15CallbackOptionsEEUlvE_E9_M_invokeERKSt9_Any_data
libarrow.so.1700:_ZNSt17_Function_handlerIFN5arrow8internal6FnOnceIFvRKNS0_10FutureImplEEEEvEZNKS0_6FutureISt6vectorINS0_2fs8FileInfoESaISC_EEE14TryAddCallbackIZNS0_15MergedGeneratorISE_E13InnerCallbackclERKNS0_6ResultISE_EEEUlvE_SJ_NSF_20WrapResultOnComplete8CallbackISJ_EEEEbT_NS0_15CallbackOptionsEEUlvE_E10_M_managerERSt9_Any_dataRKSW_St18_Manager_operation
libarrow.so.1700:_ZNSt17_Function_handlerIFN5arrow8internal6FnOnceIFvRKNS0_10FutureImplEEEEvEZNKS0_6FutureISt6vectorINS0_2fs8FileInfoESaISC_EEE14TryAddCallbackIZNS0_15MergedGeneratorISE_E13InnerCallbackclERKNS0_6ResultISE_EEEUlvE_SJ_NSF_20WrapResultOnComplete8CallbackISJ_EEEEbT_NS0_15CallbackOptionsEEUlvE_E9_M_invokeERKSt9_Any_data
libarrow.so.1700:_ZNSt17_Function_handlerIFN5arrow8internal6FnOnceIFvRKNS0_10FutureImplEEEEvEZNKS0_6FutureISt6vectorINS0_2fs8FileInfoESaISC_EEE14TryAddCallbackIZNS0_15MergedGeneratorISE_E13OuterCallbackclERKNS0_6ResultISt8functionIFSF_vEEEEEUlvE_NSI_13InnerCallbackENSF_20WrapResultOnComplete8CallbackISS_EEEEbT_NS0_15CallbackOptionsEEUlvE_E10_M_managerERSt9_Any_dataRKS10_St18_Manager_operation
libarrow.so.1700:_ZNSt17_Function_handlerIFN5arrow8internal6FnOnceIFvRKNS0_10FutureImplEEEEvEZNKS0_6FutureISt6vectorINS0_2fs8FileInfoESaISC_EEE14TryAddCallbackIZNS0_15MergedGeneratorISE_E13OuterCallbackclERKNS0_6ResultISt8functionIFSF_vEEEEEUlvE_NSI_13InnerCallbackENSF_20WrapResultOnComplete8CallbackISS_EEEEbT_NS0_15CallbackOptionsEEUlvE_E9_M_invokeERKSt9_Any_data
libarrow.so.1700:_ZNSt17_Function_handlerIFN5arrow8internal6FnOnceIFvRKNS0_10FutureImplEEEEvEZNKS0_6FutureISt6vectorINS0_2fs8FileInfoESaISC_EEE14TryAddCallbackIZNS1_8Executor10DoTransferISE_SF_NS0_6ResultISE_EEEENS9_IT_EESM_bEUlvE_ZNSI_ISE_SF_SK_EESM_SM_bEUlRKSK_E0_NSF_20WrapResultOnComplete8CallbackISQ_EEEEbSL_NS0_15CallbackOptionsEEUlvE_E10_M_managerERSt9_Any_dataRKSX_St18_Manager_operation
libarrow.so.1700:_ZNSt17_Function_handlerIFN5arrow8internal6FnOnceIFvRKNS0_10FutureImplEEEEvEZNKS0_6FutureISt6vectorINS0_2fs8FileInfoESaISC_EEE14TryAddCallbackIZNS1_8Executor10DoTransferISE_SF_NS0_6ResultISE_EEEENS9_IT_EESM_bEUlvE_ZNSI_ISE_SF_SK_EESM_SM_bEUlRKSK_E0_NSF_20WrapResultOnComplete8CallbackISQ_EEEEbSL_NS0_15CallbackOptionsEEUlvE_E9_M_invokeERKSt9_Any_data
libarrow.so.1700:_ZNSt17_Function_handlerIFN5arrow8internal6FnOnceIFvRKNS0_10FutureImplEEEEvEZNKS0_6FutureISt6vectorINS0_6ResultISt10shared_ptrINS0_3ipc7MessageEEEESaISG_EEE14TryAddCallbackIZNS1_8Executor10DoTransferISI_SJ_NSB_ISI_EEEENS9_IT_EESP_bEUlvE_ZNSM_ISI_SJ_SN_EESP_SP_bEUlRKSN_E0_NSJ_20WrapResultOnComplete8CallbackIST_EEEEbSO_NS0_15CallbackOptionsEEUlvE_E10_M_managerERSt9_Any_dataRKS10_St18_Manager_operation
libarrow.so.1700:_ZNSt17_Function_handlerIFN5arrow8internal6FnOnceIFvRKNS0_10FutureImplEEEEvEZNKS0_6FutureISt6vectorINS0_6ResultISt10shared_ptrINS0_3ipc7MessageEEEESaISG_EEE14TryAddCallbackIZNS1_8Executor10DoTransferISI_SJ_NSB_ISI_EEEENS9_IT_EESP_bEUlvE_ZNSM_ISI_SJ_SN_EESP_SP_bEUlRKSN_E0_NSJ_20WrapResultOnComplete8CallbackIST_EEEEbSO_NS0_15CallbackOptionsEEUlvE_E9_M_invokeERKSt9_Any_data
libarrow.so.1700:_ZNSt17_Function_handlerIFN5arrow8internal6FnOnceIFvRKNS0_10FutureImplEEEEvEZNKS0_6FutureISt8functionIFNS9_ISt6vectorINS0_2fs8FileInfoESaISD_EEEEvEEE14TryAddCallbackIZNS0_15MergedGeneratorISF_E13OuterCallbackclERKNS0_6ResultISI_EEEUlvE0_SN_NSJ_20WrapResultOnComplete8CallbackISN_EEEEbT_NS0_15CallbackOptionsEEUlvE_E10_M_managerERSt9_Any_dataRKS10_St18_Manager_operation
libarrow.so.1700:_ZNSt17_Function_handlerIFN5arrow8internal6FnOnceIFvRKNS0_10FutureImplEEEEvEZNKS0_6FutureISt8functionIFNS9_ISt6vectorINS0_2fs8FileInfoESaISD_EEEEvEEE14TryAddCallbackIZNS0_15MergedGeneratorISF_E13OuterCallbackclERKNS0_6ResultISI_EEEUlvE0_SN_NSJ_20WrapResultOnComplete8CallbackISN_EEEEbT_NS0_15CallbackOptionsEEUlvE_E9_M_invokeERKSt9_Any_data
libarrow.so.1700:_ZNSt17_Function_handlerIFvPhlRKN5arrow6StatusEEPS5_E10_M_managerERSt9_Any_dataRKS8_St18_Manager_operation
libarrow.so.1700:_ZNSt17_Function_handlerIFvPhlRKN5arrow6StatusEEPS5_E9_M_invokeERKSt9_Any_dataOS0_OlS4_
libarrow.so.1700:_ZNSt17_Function_handlerIFvRKN5arrow5ArrayElPSoEZNS0_17MakeFormatterImpl17MakeTimeFormatterINS0_10Time32TypeELb0EEESt8functionIS5_ERKNSt7__cxx1112basic_stringIcSt11char_traitsIcESaIcEEEEUlS3_lS4_E_E10_M_managerERSt9_Any_dataRKSL_St18_Manager_operation
libarrow.so.1700:_ZNSt17_Function_handlerIFvRKN5arrow5ArrayElPSoEZNS0_17MakeFormatterImpl17MakeTimeFormatterINS0_10Time32TypeELb0EEESt8functionIS5_ERKNSt7__cxx1112basic_stringIcSt11char_traitsIcESaIcEEEEUlS3_lS4_E_E9_M_invokeERKSt9_Any_dataS3_OlOS4_
libarrow.so.1700:_ZNSt17_Function_handlerIFvRKN5arrow5ArrayElPSoEZNS0_17MakeFormatterImpl17MakeTimeFormatterINS0_10Time64TypeELb0EEESt8functionIS5_ERKNSt7__cxx1112basic_stringIcSt11char_traitsIcESaIcEEEEUlS3_lS4_E_E10_M_managerERSt9_Any_dataRKSL_St18_Manager_operation
libarrow.so.1700:_ZNSt17_Function_handlerIFvRKN5arrow5ArrayElPSoEZNS0_17MakeFormatterImpl17MakeTimeFormatterINS0_10Time64TypeELb0EEESt8functionIS5_ERKNSt7__cxx1112basic_stringIcSt11char_traitsIcESaIcEEEEUlS3_lS4_E_E9_M_invokeERKSt9_Any_dataS3_OlOS4_
libarrow.so.1700:_ZNSt17_Function_handlerIFvRKN5arrow5ArrayElPSoEZNS0_17MakeFormatterImpl17MakeTimeFormatterINS0_13TimestampTypeELb1EEESt8functionIS5_ERKNSt7__cxx1112basic_stringIcSt11char_traitsIcESaIcEEEEUlS3_lS4_E_E10_M_managerERSt9_Any_dataRKSL_St18_Manager_operation
libarrow.so.1700:_ZNSt17_Function_handlerIFvRKN5arrow5ArrayElPSoEZNS0_17MakeFormatterImpl17MakeTimeFormatterINS0_13TimestampTypeELb1EEESt8functionIS5_ERKNSt7__cxx1112basic_stringIcSt11char_traitsIcESaIcEEEEUlS3_lS4_E_E9_M_invokeERKSt9_Any_dataS3_OlOS4_
libarrow.so.1700:_ZNSt17_Function_handlerIFvRKN5arrow5ArrayElPSoEZNS0_17MakeFormatterImpl5VisitERKNS0_10StructTypeEE10StructImplE10_M_managerERSt9_Any_dataRKSC_St18_Manager_operation
libarrow.so.1700:_ZNSt17_Function_handlerIFvRKN5arrow5ArrayElPSoEZNS0_17MakeFormatterImpl5VisitERKNS0_10StructTypeEE10StructImplE9_M_invokeERKSt9_Any_dataS3_OlOS4_
libarrow.so.1700:_ZNSt17_Function_handlerIFvRKN5arrow5ArrayElPSoEZNS0_17MakeFormatterImpl5VisitERKNS0_11BooleanTypeEEUlS3_lS4_E_E10_M_managerERSt9_Any_dataRKSC_St18_Manager_operation
libarrow.so.1700:_ZNSt17_Function_handlerIFvRKN5arrow5ArrayElPSoEZNS0_17MakeFormatterImpl5VisitERKNS0_11BooleanTypeEEUlS3_lS4_E_E9_M_invokeERKSt9_Any_dataS3_OlOS4_
libarrow.so.1700:_ZNSt17_Function_handlerIFvRKN5arrow5ArrayElPSoEZNS0_17MakeFormatterImpl5VisitERKNS0_19DayTimeIntervalTypeEEUlS3_lS4_E_E10_M_managerERSt9_Any_dataRKSC_St18_Manager_operation
libarrow.so.1700:_ZNSt17_Function_handlerIFvRKN5arrow5ArrayElPSoEZNS0_17MakeFormatterImpl5VisitERKNS0_19DayTimeIntervalTypeEEUlS3_lS4_E_E9_M_invokeERKSt9_Any_dataS3_OlOS4_
libarrow.so.1700:_ZNSt17_Function_handlerIFvRKN5arrow5ArrayElPSoEZNS0_17MakeFormatterImpl5VisitERKNS0_24MonthDayNanoIntervalTypeEEUlS3_lS4_E_E10_M_managerERSt9_Any_dataRKSC_St18_Manager_operation
libarrow.so.1700:_ZNSt17_Function_handlerIFvRKN5arrow5ArrayElPSoEZNS0_17MakeFormatterImpl5VisitERKNS0_24MonthDayNanoIntervalTypeEEUlS3_lS4_E_E9_M_invokeERKSt9_Any_dataS3_OlOS4_
libarrow.so.1700:_ZNSt17_Function_handlerIFvRKN5arrow5ArrayElPSoEZNS0_17MakeFormatterImpl5VisitERKNS0_9UnionTypeEE10SparseImplE10_M_managerERSt9_Any_dataRKSC_St18_Manager_operation
libarrow.so.1700:_ZNSt17_Function_handlerIFvRKN5arrow5ArrayElPSoEZNS0_17MakeFormatterImpl5VisitERKNS0_9UnionTypeEE10SparseImplE9_M_invokeERKSt9_Any_dataS3_OlOS4_
libarrow.so.1700:_ZNSt17_Function_handlerIFvRKN5arrow5ArrayElPSoEZNS0_17MakeFormatterImpl5VisitERKNS0_9UnionTypeEE9DenseImplE10_M_managerERSt9_Any_dataRKSC_St18_Manager_operation
libarrow.so.1700:_ZNSt17_Function_handlerIFvRKN5arrow5ArrayElPSoEZNS0_17MakeFormatterImpl5VisitERKNS0_9UnionTypeEE9DenseImplE9_M_invokeERKSt9_Any_dataS3_OlOS4_
libarrow.so.1700:_ZNSt17_Function_handlerIFvRKN5arrow5ArrayElPSoEZNS0_17MakeFormatterImpl5VisitINS0_10BinaryTypeEEENSt9enable_ifIXsrSt17integral_constantIbXoooooooooooosrSt7is_sameIS8_T_E5valuesrSB_INS0_14BinaryViewTypeESC_E5valuesrSB_INS0_15LargeBinaryTypeESC_E5valuesrSB_INS0_10StringTypeESC_E5valuesrSB_INS0_14StringViewTypeESC_E5valuesrSB_INS0_15LargeStringTypeESC_E5valuesrSB_INS0_19FixedSizeBinaryTypeESC_E5valueEE5valueENS0_6StatusEE4typeERKSC_EUlS3_lS4_E_E10_M_managerERSt9_Any_dataRKSY_St18_Manager_operation
libarrow.so.1700:_ZNSt17_Function_handlerIFvRKN5arrow5ArrayElPSoEZNS0_17MakeFormatterImpl5VisitINS0_10BinaryTypeEEENSt9enable_ifIXsrSt17integral_constantIbXoooooooooooosrSt7is_sameIS8_T_E5valuesrSB_INS0_14BinaryViewTypeESC_E5valuesrSB_INS0_15LargeBinaryTypeESC_E5valuesrSB_INS0_10StringTypeESC_E5valuesrSB_INS0_14StringViewTypeESC_E5valuesrSB_INS0_15LargeStringTypeESC_E5valuesrSB_INS0_19FixedSizeBinaryTypeESC_E5valueEE5valueENS0_6StatusEE4typeERKSC_EUlS3_lS4_E_E9_M_invokeERKSt9_Any_dataS3_OlOS4_
libarrow.so.1700:_ZNSt17_Function_handlerIFvRKN5arrow5ArrayElPSoEZNS0_17MakeFormatterImpl5VisitINS0_10Date32TypeEEENSt9enable_ifIXsrSt10is_base_ofINS0_8DateTypeET_E5valueENS0_6StatusEE4typeERKSC_EUlS3_lS4_E_E10_M_managerERSt9_Any_dataRKSL_St18_Manager_operation
libarrow.so.1700:_ZNSt17_Function_handlerIFvRKN5arrow5ArrayElPSoEZNS0_17MakeFormatterImpl5VisitINS0_10Date32TypeEEENSt9enable_ifIXsrSt10is_base_ofINS0_8DateTypeET_E5valueENS0_6StatusEE4typeERKSC_EUlS3_lS4_E_E9_M_invokeERKSt9_Any_dataS3_OlOS4_
libarrow.so.1700:_ZNSt17_Function_handlerIFvRKN5arrow5ArrayElPSoEZNS0_17MakeFormatterImpl5VisitINS0_10Date64TypeEEENSt9enable_ifIXsrSt10is_base_ofINS0_8DateTypeET_E5valueENS0_6StatusEE4typeERKSC_EUlS3_lS4_E_E10_M_managerERSt9_Any_dataRKSL_St18_Manager_operation
libarrow.so.1700:_ZNSt17_Function_handlerIFvRKN5arrow5ArrayElPSoEZNS0_17MakeFormatterImpl5VisitINS0_10Date64TypeEEENSt9enable_ifIXsrSt10is_base_ofINS0_8DateTypeET_E5valueENS0_6StatusEE4typeERKSC_EUlS3_lS4_E_E9_M_invokeERKSt9_Any_dataS3_OlOS4_
libarrow.so.1700:_ZNSt17_Function_handlerIFvRKN5arrow5ArrayElPSoEZNS0_17MakeFormatterImpl5VisitINS0_10DoubleTypeEEENSt9enable_ifIXsrSt10is_base_ofINS0_10NumberTypeET_E5valueENS0_6StatusEE4typeERKSC_EUlS3_lS4_E_E10_M_managerERSt9_Any_dataRKSL_St18_Manager_operation
libarrow.so.1700:_ZNSt17_Function_handlerIFvRKN5arrow5ArrayElPSoEZNS0_17MakeFormatterImpl5VisitINS0_10DoubleTypeEEENSt9enable_ifIXsrSt10is_base_ofINS0_10NumberTypeET_E5valueENS0_6StatusEE4typeERKSC_EUlS3_lS4_E_E9_M_invokeERKSt9_Any_dataS3_OlOS4_
libarrow.so.1700:_ZNSt17_Function_handlerIFvRKN5arrow5ArrayElPSoEZNS0_17MakeFormatterImpl5VisitINS0_10StringTypeEEENSt9enable_ifIXsrSt17integral_constantIbXoooooooooooosrSt7is_sameINS0_10BinaryTypeET_E5valuesrSB_INS0_14BinaryViewTypeESD_E5valuesrSB_INS0_15LargeBinaryTypeESD_E5valuesrSB_IS8_SD_E5valuesrSB_INS0_14StringViewTypeESD_E5valuesrSB_INS0_15LargeStringTypeESD_E5valuesrSB_INS0_19FixedSizeBinaryTypeESD_E5valueEE5valueENS0_6StatusEE4typeERKSD_EUlS3_lS4_E_E10_M_managerERSt9_Any_dataRKSY_St18_Manager_operation
libarrow.so.1700:_ZNSt17_Function_handlerIFvRKN5arrow5ArrayElPSoEZNS0_17MakeFormatterImpl5VisitINS0_10StringTypeEEENSt9enable_ifIXsrSt17integral_constantIbXoooooooooooosrSt7is_sameINS0_10BinaryTypeET_E5valuesrSB_INS0_14BinaryViewTypeESD_E5valuesrSB_INS0_15LargeBinaryTypeESD_E5valuesrSB_IS8_SD_E5valuesrSB_INS0_14StringViewTypeESD_E5valuesrSB_INS0_15LargeStringTypeESD_E5valuesrSB_INS0_19FixedSizeBinaryTypeESD_E5valueEE5valueENS0_6StatusEE4typeERKSD_EUlS3_lS4_E_E9_M_invokeERKSt9_Any_dataS3_OlOS4_
libarrow.so.1700:_ZNSt17_Function_handlerIFvRKN5arrow5ArrayElPSoEZNS0_17MakeFormatterImpl5VisitINS0_10UInt16TypeEEENSt9enable_ifIXsrSt10is_base_ofINS0_10NumberTypeET_E5valueENS0_6StatusEE4typeERKSC_EUlS3_lS4_E_E10_M_managerERSt9_Any_dataRKSL_St18_Manager_operation
libarrow.so.1700:_ZNSt17_Function_handlerIFvRKN5arrow5ArrayElPSoEZNS0_17MakeFormatterImpl5VisitINS0_10UInt16TypeEEENSt9enable_ifIXsrSt10is_base_ofINS0_10NumberTypeET_E5valueENS0_6StatusEE4typeERKSC_EUlS3_lS4_E_E9_M_invokeERKSt9_Any_dataS3_OlOS4_
libarrow.so.1700:_ZNSt17_Function_handlerIFvRKN5arrow5ArrayElPSoEZNS0_17MakeFormatterImpl5VisitINS0_10UInt32TypeEEENSt9enable_ifIXsrSt10is_base_ofINS0_10NumberTypeET_E5valueENS0_6StatusEE4typeERKSC_EUlS3_lS4_E_E10_M_managerERSt9_Any_dataRKSL_St18_Manager_operation
libarrow.so.1700:_ZNSt17_Function_handlerIFvRKN5arrow5ArrayElPSoEZNS0_17MakeFormatterImpl5VisitINS0_10UInt32TypeEEENSt9enable_ifIXsrSt10is_base_ofINS0_10NumberTypeET_E5valueENS0_6StatusEE4typeERKSC_EUlS3_lS4_E_E9_M_invokeERKSt9_Any_dataS3_OlOS4_
libarrow.so.1700:_ZNSt17_Function_handlerIFvRKN5arrow5ArrayElPSoEZNS0_17MakeFormatterImpl5VisitINS0_10UInt64TypeEEENSt9enable_ifIXsrSt10is_base_ofINS0_10NumberTypeET_E5valueENS0_6StatusEE4typeERKSC_EUlS3_lS4_E_E10_M_managerERSt9_Any_dataRKSL_St18_Manager_operation
libarrow.so.1700:_ZNSt17_Function_handlerIFvRKN5arrow5ArrayElPSoEZNS0_17MakeFormatterImpl5VisitINS0_10UInt64TypeEEENSt9enable_ifIXsrSt10is_base_ofINS0_10NumberTypeET_E5valueENS0_6StatusEE4typeERKSC_EUlS3_lS4_E_E9_M_invokeERKSt9_Any_dataS3_OlOS4_
libarrow.so.1700:_ZNSt17_Function_handlerIFvRKN5arrow5ArrayElPSoEZNS0_17MakeFormatterImpl5VisitINS0_13HalfFloatTypeEEENSt9enable_ifIXsrSt10is_base_ofINS0_10NumberTypeET_E5valueENS0_6StatusEE4typeERKSC_EUlS3_lS4_E_E10_M_managerERSt9_Any_dataRKSL_St18_Manager_operation
libarrow.so.1700:_ZNSt17_Function_handlerIFvRKN5arrow5ArrayElPSoEZNS0_17MakeFormatterImpl5VisitINS0_13HalfFloatTypeEEENSt9enable_ifIXsrSt10is_base_ofINS0_10NumberTypeET_E5valueENS0_6StatusEE4typeERKSC_EUlS3_lS4_E_E9_M_invokeERKSt9_Any_dataS3_OlOS4_
libarrow.so.1700:_ZNSt17_Function_handlerIFvRKN5arrow5ArrayElPSoEZNS0_17MakeFormatterImpl5VisitINS0_13LargeListTypeEEENSt9enable_ifIXsrSt17integral_constantIbXoosrSA_IbXoosrSt10is_base_ofIS8_T_E5valuesrSB_INS0_8ListTypeESC_E5valueEE5valuesrSt7is_sameINS0_17FixedSizeListTypeESC_E5valueEE5valueENS0_6StatusEE4typeERKSC_E8ListImplE10_M_managerERSt9_Any_dataRKSS_St18_Manager_operation
libarrow.so.1700:_ZNSt17_Function_handlerIFvRKN5arrow5ArrayElPSoEZNS0_17MakeFormatterImpl5VisitINS0_13LargeListTypeEEENSt9enable_ifIXsrSt17integral_constantIbXoosrSA_IbXoosrSt10is_base_ofIS8_T_E5valuesrSB_INS0_8ListTypeESC_E5valueEE5valuesrSt7is_sameINS0_17FixedSizeListTypeESC_E5valueEE5valueENS0_6StatusEE4typeERKSC_E8ListImplE9_M_invokeERKSt9_Any_dataS3_OlOS4_
libarrow.so.1700:_ZNSt17_Function_handlerIFvRKN5arrow5ArrayElPSoEZNS0_17MakeFormatterImpl5VisitINS0_14BinaryViewTypeEEENSt9enable_ifIXsrSt17integral_constantIbXoooooooooooosrSt7is_sameINS0_10BinaryTypeET_E5valuesrSB_IS8_SD_E5valuesrSB_INS0_15LargeBinaryTypeESD_E5valuesrSB_INS0_10StringTypeESD_E5valuesrSB_INS0_14StringViewTypeESD_E5valuesrSB_INS0_15LargeStringTypeESD_E5valuesrSB_INS0_19FixedSizeBinaryTypeESD_E5valueEE5valueENS0_6StatusEE4typeERKSD_EUlS3_lS4_E_E10_M_managerERSt9_Any_dataRKSY_St18_Manager_operation
libarrow.so.1700:_ZNSt17_Function_handlerIFvRKN5arrow5ArrayElPSoEZNS0_17MakeFormatterImpl5VisitINS0_14BinaryViewTypeEEENSt9enable_ifIXsrSt17integral_constantIbXoooooooooooosrSt7is_sameINS0_10BinaryTypeET_E5valuesrSB_IS8_SD_E5valuesrSB_INS0_15LargeBinaryTypeESD_E5valuesrSB_INS0_10StringTypeESD_E5valuesrSB_INS0_14StringViewTypeESD_E5valuesrSB_INS0_15LargeStringTypeESD_E5valuesrSB_INS0_19FixedSizeBinaryTypeESD_E5valueEE5valueENS0_6StatusEE4typeERKSD_EUlS3_lS4_E_E9_M_invokeERKSt9_Any_dataS3_OlOS4_
libarrow.so.1700:_ZNSt17_Function_handlerIFvRKN5arrow5ArrayElPSoEZNS0_17MakeFormatterImpl5VisitINS0_14Decimal128TypeEEENSt9enable_ifIXsrSt10is_base_ofINS0_11DecimalTypeET_E5valueENS0_6StatusEE4typeERKSC_EUlS3_lS4_E_E10_M_managerERSt9_Any_dataRKSL_St18_Manager_operation
libarrow.so.1700:_ZNSt17_Function_handlerIFvRKN5arrow5ArrayElPSoEZNS0_17MakeFormatterImpl5VisitINS0_14Decimal128TypeEEENSt9enable_ifIXsrSt10is_base_ofINS0_11DecimalTypeET_E5valueENS0_6StatusEE4typeERKSC_EUlS3_lS4_E_E9_M_invokeERKSt9_Any_dataS3_OlOS4_
libarrow.so.1700:_ZNSt17_Function_handlerIFvRKN5arrow5ArrayElPSoEZNS0_17MakeFormatterImpl5VisitINS0_14Decimal256TypeEEENSt9enable_ifIXsrSt10is_base_ofINS0_11DecimalTypeET_E5valueENS0_6StatusEE4typeERKSC_EUlS3_lS4_E_E10_M_managerERSt9_Any_dataRKSL_St18_Manager_operation
libarrow.so.1700:_ZNSt17_Function_handlerIFvRKN5arrow5ArrayElPSoEZNS0_17MakeFormatterImpl5VisitINS0_14Decimal256TypeEEENSt9enable_ifIXsrSt10is_base_ofINS0_11DecimalTypeET_E5valueENS0_6StatusEE4typeERKSC_EUlS3_lS4_E_E9_M_invokeERKSt9_Any_dataS3_OlOS4_
libarrow.so.1700:_ZNSt17_Function_handlerIFvRKN5arrow5ArrayElPSoEZNS0_17MakeFormatterImpl5VisitINS0_14StringViewTypeEEENSt9enable_ifIXsrSt17integral_constantIbXoooooooooooosrSt7is_sameINS0_10BinaryTypeET_E5valuesrSB_INS0_14BinaryViewTypeESD_E5valuesrSB_INS0_15LargeBinaryTypeESD_E5valuesrSB_INS0_10StringTypeESD_E5valuesrSB_IS8_SD_E5valuesrSB_INS0_15LargeStringTypeESD_E5valuesrSB_INS0_19FixedSizeBinaryTypeESD_E5valueEE5valueENS0_6StatusEE4typeERKSD_EUlS3_lS4_E_E10_M_managerERSt9_Any_dataRKSY_St18_Manager_operation
libarrow.so.1700:_ZNSt17_Function_handlerIFvRKN5arrow5ArrayElPSoEZNS0_17MakeFormatterImpl5VisitINS0_14StringViewTypeEEENSt9enable_ifIXsrSt17integral_constantIbXoooooooooooosrSt7is_sameINS0_10BinaryTypeET_E5valuesrSB_INS0_14BinaryViewTypeESD_E5valuesrSB_INS0_15LargeBinaryTypeESD_E5valuesrSB_INS0_10StringTypeESD_E5valuesrSB_IS8_SD_E5valuesrSB_INS0_15LargeStringTypeESD_E5valuesrSB_INS0_19FixedSizeBinaryTypeESD_E5valueEE5valueENS0_6StatusEE4typeERKSD_EUlS3_lS4_E_E9_M_invokeERKSt9_Any_dataS3_OlOS4_
libarrow.so.1700:_ZNSt17_Function_handlerIFvRKN5arrow5ArrayElPSoEZNS0_17MakeFormatterImpl5VisitINS0_15LargeBinaryTypeEEENSt9enable_ifIXsrSt17integral_constantIbXoooooooooooosrSt7is_sameINS0_10BinaryTypeET_E5valuesrSB_INS0_14BinaryViewTypeESD_E5valuesrSB_IS8_SD_E5valuesrSB_INS0_10StringTypeESD_E5valuesrSB_INS0_14StringViewTypeESD_E5valuesrSB_INS0_15LargeStringTypeESD_E5valuesrSB_INS0_19FixedSizeBinaryTypeESD_E5valueEE5valueENS0_6StatusEE4typeERKSD_EUlS3_lS4_E_E10_M_managerERSt9_Any_dataRKSY_St18_Manager_operation
libarrow.so.1700:_ZNSt17_Function_handlerIFvRKN5arrow5ArrayElPSoEZNS0_17MakeFormatterImpl5VisitINS0_15LargeBinaryTypeEEENSt9enable_ifIXsrSt17integral_constantIbXoooooooooooosrSt7is_sameINS0_10BinaryTypeET_E5valuesrSB_INS0_14BinaryViewTypeESD_E5valuesrSB_IS8_SD_E5valuesrSB_INS0_10StringTypeESD_E5valuesrSB_INS0_14StringViewTypeESD_E5valuesrSB_INS0_15LargeStringTypeESD_E5valuesrSB_INS0_19FixedSizeBinaryTypeESD_E5valueEE5valueENS0_6StatusEE4typeERKSD_EUlS3_lS4_E_E9_M_invokeERKSt9_Any_dataS3_OlOS4_
libarrow.so.1700:_ZNSt17_Function_handlerIFvRKN5arrow5ArrayElPSoEZNS0_17MakeFormatterImpl5VisitINS0_15LargeStringTypeEEENSt9enable_ifIXsrSt17integral_constantIbXoooooooooooosrSt7is_sameINS0_10BinaryTypeET_E5valuesrSB_INS0_14BinaryViewTypeESD_E5valuesrSB_INS0_15LargeBinaryTypeESD_E5valuesrSB_INS0_10StringTypeESD_E5valuesrSB_INS0_14StringViewTypeESD_E5valuesrSB_IS8_SD_E5valuesrSB_INS0_19FixedSizeBinaryTypeESD_E5valueEE5valueENS0_6StatusEE4typeERKSD_EUlS3_lS4_E_E10_M_managerERSt9_Any_dataRKSY_St18_Manager_operation
libarrow.so.1700:_ZNSt17_Function_handlerIFvRKN5arrow5ArrayElPSoEZNS0_17MakeFormatterImpl5VisitINS0_15LargeStringTypeEEENSt9enable_ifIXsrSt17integral_constantIbXoooooooooooosrSt7is_sameINS0_10BinaryTypeET_E5valuesrSB_INS0_14BinaryViewTypeESD_E5valuesrSB_INS0_15LargeBinaryTypeESD_E5valuesrSB_INS0_10StringTypeESD_E5valuesrSB_INS0_14StringViewTypeESD_E5valuesrSB_IS8_SD_E5valuesrSB_INS0_19FixedSizeBinaryTypeESD_E5valueEE5valueENS0_6StatusEE4typeERKSD_EUlS3_lS4_E_E9_M_invokeERKSt9_Any_dataS3_OlOS4_
libarrow.so.1700:_ZNSt17_Function_handlerIFvRKN5arrow5ArrayElPSoEZNS0_17MakeFormatterImpl5VisitINS0_17FixedSizeListTypeEEENSt9enable_ifIXsrSt17integral_constantIbXoosrSA_IbXoosrSt10is_base_ofINS0_13LargeListTypeET_E5valuesrSB_INS0_8ListTypeESD_E5valueEE5valuesrSt7is_sameIS8_SD_E5valueEE5valueENS0_6StatusEE4typeERKSD_E8ListImplE10_M_managerERSt9_Any_dataRKSS_St18_Manager_operation
libarrow.so.1700:_ZNSt17_Function_handlerIFvRKN5arrow5ArrayElPSoEZNS0_17MakeFormatterImpl5VisitINS0_17FixedSizeListTypeEEENSt9enable_ifIXsrSt17integral_constantIbXoosrSA_IbXoosrSt10is_base_ofINS0_13LargeListTypeET_E5valuesrSB_INS0_8ListTypeESD_E5valueEE5valuesrSt7is_sameIS8_SD_E5valueEE5valueENS0_6StatusEE4typeERKSD_E8ListImplE9_M_invokeERKSt9_Any_dataS3_OlOS4_
libarrow.so.1700:_ZNSt17_Function_handlerIFvRKN5arrow5ArrayElPSoEZNS0_17MakeFormatterImpl5VisitINS0_19FixedSizeBinaryTypeEEENSt9enable_ifIXsrSt17integral_constantIbXoooooooooooosrSt7is_sameINS0_10BinaryTypeET_E5valuesrSB_INS0_14BinaryViewTypeESD_E5valuesrSB_INS0_15LargeBinaryTypeESD_E5valuesrSB_INS0_10StringTypeESD_E5valuesrSB_INS0_14StringViewTypeESD_E5valuesrSB_INS0_15LargeStringTypeESD_E5valuesrSB_IS8_SD_E5valueEE5valueENS0_6StatusEE4typeERKSD_EUlS3_lS4_E_E10_M_managerERSt9_Any_dataRKSY_St18_Manager_operation
libarrow.so.1700:_ZNSt17_Function_handlerIFvRKN5arrow5ArrayElPSoEZNS0_17MakeFormatterImpl5VisitINS0_19FixedSizeBinaryTypeEEENSt9enable_ifIXsrSt17integral_constantIbXoooooooooooosrSt7is_sameINS0_10BinaryTypeET_E5valuesrSB_INS0_14BinaryViewTypeESD_E5valuesrSB_INS0_15LargeBinaryTypeESD_E5valuesrSB_INS0_10StringTypeESD_E5valuesrSB_INS0_14StringViewTypeESD_E5valuesrSB_INS0_15LargeStringTypeESD_E5valuesrSB_IS8_SD_E5valueEE5valueENS0_6StatusEE4typeERKSD_EUlS3_lS4_E_E9_M_invokeERKSt9_Any_dataS3_OlOS4_
libarrow.so.1700:_ZNSt17_Function_handlerIFvRKN5arrow5ArrayElPSoEZNS0_17MakeFormatterImpl5VisitINS0_7MapTypeEEENSt9enable_ifIXsrSt17integral_constantIbXoosrSA_IbXoosrSt10is_base_ofINS0_13LargeListTypeET_E5valuesrSB_INS0_8ListTypeESD_E5valueEE5valuesrSt7is_sameINS0_17FixedSizeListTypeESD_E5valueEE5valueENS0_6StatusEE4typeERKSD_E8ListImplE10_M_managerERSt9_Any_dataRKST_St18_Manager_operation
libarrow.so.1700:_ZNSt17_Function_handlerIFvRKN5arrow5ArrayElPSoEZNS0_17MakeFormatterImpl5VisitINS0_7MapTypeEEENSt9enable_ifIXsrSt17integral_constantIbXoosrSA_IbXoosrSt10is_base_ofINS0_13LargeListTypeET_E5valuesrSB_INS0_8ListTypeESD_E5valueEE5valuesrSt7is_sameINS0_17FixedSizeListTypeESD_E5valueEE5valueENS0_6StatusEE4typeERKSD_E8ListImplE9_M_invokeERKSt9_Any_dataS3_OlOS4_
libarrow.so.1700:_ZNSt17_Function_handlerIFvRKN5arrow5ArrayElPSoEZNS0_17MakeFormatterImpl5VisitINS0_8Int8TypeEEENSt9enable_ifIXsrSt10is_base_ofINS0_10NumberTypeET_E5valueENS0_6StatusEE4typeERKSC_EUlS3_lS4_E_E10_M_managerERSt9_Any_dataRKSL_St18_Manager_operation
libarrow.so.1700:_ZNSt17_Function_handlerIFvRKN5arrow5ArrayElPSoEZNS0_17MakeFormatterImpl5VisitINS0_8Int8TypeEEENSt9enable_ifIXsrSt10is_base_ofINS0_10NumberTypeET_E5valueENS0_6StatusEE4typeERKSC_EUlS3_lS4_E_E9_M_invokeERKSt9_Any_dataS3_OlOS4_
libarrow.so.1700:_ZNSt17_Function_handlerIFvRKN5arrow5ArrayElPSoEZNS0_17MakeFormatterImpl5VisitINS0_8ListTypeEEENSt9enable_ifIXsrSt17integral_constantIbXoosrSA_IbXoosrSt10is_base_ofINS0_13LargeListTypeET_E5valuesrSB_IS8_SD_E5valueEE5valuesrSt7is_sameINS0_17FixedSizeListTypeESD_E5valueEE5valueENS0_6StatusEE4typeERKSD_E8ListImplE10_M_managerERSt9_Any_dataRKSS_St18_Manager_operation
libarrow.so.1700:_ZNSt17_Function_handlerIFvRKN5arrow5ArrayElPSoEZNS0_17MakeFormatterImpl5VisitINS0_8ListTypeEEENSt9enable_ifIXsrSt17integral_constantIbXoosrSA_IbXoosrSt10is_base_ofINS0_13LargeListTypeET_E5valuesrSB_IS8_SD_E5valueEE5valuesrSt7is_sameINS0_17FixedSizeListTypeESD_E5valueEE5valueENS0_6StatusEE4typeERKSD_E8ListImplE9_M_invokeERKSt9_Any_dataS3_OlOS4_
libarrow.so.1700:_ZNSt17_Function_handlerIFvRKN5arrow5ArrayElPSoEZNS0_17MakeFormatterImpl5VisitINS0_9FloatTypeEEENSt9enable_ifIXsrSt10is_base_ofINS0_10NumberTypeET_E5valueENS0_6StatusEE4typeERKSC_EUlS3_lS4_E_E10_M_managerERSt9_Any_dataRKSL_St18_Manager_operation
libarrow.so.1700:_ZNSt17_Function_handlerIFvRKN5arrow5ArrayElPSoEZNS0_17MakeFormatterImpl5VisitINS0_9FloatTypeEEENSt9enable_ifIXsrSt10is_base_ofINS0_10NumberTypeET_E5valueENS0_6StatusEE4typeERKSC_EUlS3_lS4_E_E9_M_invokeERKSt9_Any_dataS3_OlOS4_
libarrow.so.1700:_ZNSt17_Function_handlerIFvRKN5arrow5ArrayElPSoEZNS0_17MakeFormatterImpl5VisitINS0_9Int16TypeEEENSt9enable_ifIXsrSt10is_base_ofINS0_10NumberTypeET_E5valueENS0_6StatusEE4typeERKSC_EUlS3_lS4_E_E10_M_managerERSt9_Any_dataRKSL_St18_Manager_operation
libarrow.so.1700:_ZNSt17_Function_handlerIFvRKN5arrow5ArrayElPSoEZNS0_17MakeFormatterImpl5VisitINS0_9Int16TypeEEENSt9enable_ifIXsrSt10is_base_ofINS0_10NumberTypeET_E5valueENS0_6StatusEE4typeERKSC_EUlS3_lS4_E_E9_M_invokeERKSt9_Any_dataS3_OlOS4_
libarrow.so.1700:_ZNSt17_Function_handlerIFvRKN5arrow5ArrayElPSoEZNS0_17MakeFormatterImpl5VisitINS0_9Int32TypeEEENSt9enable_ifIXsrSt10is_base_ofINS0_10NumberTypeET_E5valueENS0_6StatusEE4typeERKSC_EUlS3_lS4_E_E10_M_managerERSt9_Any_dataRKSL_St18_Manager_operation
libarrow.so.1700:_ZNSt17_Function_handlerIFvRKN5arrow5ArrayElPSoEZNS0_17MakeFormatterImpl5VisitINS0_9Int32TypeEEENSt9enable_ifIXsrSt10is_base_ofINS0_10NumberTypeET_E5valueENS0_6StatusEE4typeERKSC_EUlS3_lS4_E_E9_M_invokeERKSt9_Any_dataS3_OlOS4_
libarrow.so.1700:_ZNSt17_Function_handlerIFvRKN5arrow5ArrayElPSoEZNS0_17MakeFormatterImpl5VisitINS0_9Int64TypeEEENSt9enable_ifIXsrSt10is_base_ofINS0_10NumberTypeET_E5valueENS0_6StatusEE4typeERKSC_EUlS3_lS4_E_E10_M_managerERSt9_Any_dataRKSL_St18_Manager_operation
libarrow.so.1700:_ZNSt17_Function_handlerIFvRKN5arrow5ArrayElPSoEZNS0_17MakeFormatterImpl5VisitINS0_9Int64TypeEEENSt9enable_ifIXsrSt10is_base_ofINS0_10NumberTypeET_E5valueENS0_6StatusEE4typeERKSC_EUlS3_lS4_E_E9_M_invokeERKSt9_Any_dataS3_OlOS4_
libarrow.so.1700:_ZNSt17_Function_handlerIFvRKN5arrow5ArrayElPSoEZNS0_17MakeFormatterImpl5VisitINS0_9UInt8TypeEEENSt9enable_ifIXsrSt10is_base_ofINS0_10NumberTypeET_E5valueENS0_6StatusEE4typeERKSC_EUlS3_lS4_E_E10_M_managerERSt9_Any_dataRKSL_St18_Manager_operation
libarrow.so.1700:_ZNSt17_Function_handlerIFvRKN5arrow5ArrayElPSoEZNS0_17MakeFormatterImpl5VisitINS0_9UInt8TypeEEENSt9enable_ifIXsrSt10is_base_ofINS0_10NumberTypeET_E5valueENS0_6StatusEE4typeERKSC_EUlS3_lS4_E_E9_M_invokeERKSt9_Any_dataS3_OlOS4_
libarrow.so.1700:_ZNSt3any17_Manager_externalISt10shared_ptrIN5arrow8internal10ThreadPool5StateEEE9_S_manageENS_3_OpEPKS_PNS_4_ArgE
libarrow.so.1700:_ZThn24_N5arrow2io16MemoryMappedFile5WriteEPKvl
libarrow.so.1700:_ZThn24_N5arrow2io16MemoryMappedFile7WriteAtElPKvl
libarrow.so.1700:_ZThn24_N5arrow2io16MemoryMappedFileD0Ev
libarrow.so.1700:_ZThn24_N5arrow2io16MemoryMappedFileD1Ev
libarrow.so.1700:_ZThn32_N5arrow2io16MemoryMappedFile4SeekEl
libarrow.so.1700:_ZThn32_N5arrow2io16MemoryMappedFileD0Ev
libarrow.so.1700:_ZThn32_N5arrow2io16MemoryMappedFileD1Ev
libarrow.so.1700:_ZThn8_N5arrow2io12ReadableFileD0Ev
libarrow.so.1700:_ZThn8_N5arrow2io12ReadableFileD1Ev
libarrow.so.1700:_ZThn8_N5arrow2io16HdfsReadableFile4SeekEl
libarrow.so.1700:_ZThn8_N5arrow2io16HdfsReadableFileD0Ev
libarrow.so.1700:_ZThn8_N5arrow2io16HdfsReadableFileD1Ev
libarrow.so.1700:_ZThn8_N5arrow2io16MemoryMappedFile4SeekEl
libarrow.so.1700:_ZThn8_N5arrow2io16MemoryMappedFileD0Ev
libarrow.so.1700:_ZThn8_N5arrow2io16MemoryMappedFileD1Ev
libarrow.so.1700:_ZThn8_N5arrow2io16RandomAccessFileD0Ev
libarrow.so.1700:_ZThn8_N5arrow2io16RandomAccessFileD1Ev
libarrow.so.1700:_ZThn8_N5arrow2io20SlowRandomAccessFile4SeekEl
libarrow.so.1700:_ZThn8_N5arrow2io20SlowRandomAccessFileD0Ev
libarrow.so.1700:_ZThn8_N5arrow2io20SlowRandomAccessFileD1Ev
libarrow.so.1700:_ZThn8_N5arrow2io21FixedSizeBufferWriter4SeekEl
libarrow.so.1700:_ZThn8_N5arrow2io21FixedSizeBufferWriterD0Ev
libarrow.so.1700:_ZThn8_N5arrow2io21FixedSizeBufferWriterD1Ev
libarrow.so.1700:_ZThn8_N5arrow3ipc8internal26IoRecordedRandomAccessFile4SeekEl
libarrow.so.1700:_ZTv0_n24_N5arrow2io12ReadableFileD0Ev
libarrow.so.1700:_ZTv0_n24_N5arrow2io12ReadableFileD1Ev
libarrow.so.1700:_ZTv0_n24_N5arrow2io15SlowInputStreamD0Ev
libarrow.so.1700:_ZTv0_n24_N5arrow2io15SlowInputStreamD1Ev
libarrow.so.1700:_ZTv0_n24_N5arrow2io16FileOutputStreamD0Ev
libarrow.so.1700:_ZTv0_n24_N5arrow2io16FileOutputStreamD1Ev
libarrow.so.1700:_ZTv0_n24_N5arrow2io16HdfsOutputStreamD0Ev
libarrow.so.1700:_ZTv0_n24_N5arrow2io16HdfsOutputStreamD1Ev
libarrow.so.1700:_ZTv0_n24_N5arrow2io16HdfsReadableFileD0Ev
libarrow.so.1700:_ZTv0_n24_N5arrow2io16HdfsReadableFileD1Ev
libarrow.so.1700:_ZTv0_n24_N5arrow2io16MemoryMappedFileD0Ev
libarrow.so.1700:_ZTv0_n24_N5arrow2io16MemoryMappedFileD1Ev
libarrow.so.1700:_ZTv0_n24_N5arrow2io16RandomAccessFileD0Ev
libarrow.so.1700:_ZTv0_n24_N5arrow2io16RandomAccessFileD1Ev
libarrow.so.1700:_ZTv0_n24_N5arrow2io18BufferOutputStreamD0Ev
libarrow.so.1700:_ZTv0_n24_N5arrow2io18BufferOutputStreamD1Ev
libarrow.so.1700:_ZTv0_n24_N5arrow2io19BufferedInputStreamD0Ev
libarrow.so.1700:_ZTv0_n24_N5arrow2io19BufferedInputStreamD1Ev
libarrow.so.1700:_ZTv0_n24_N5arrow2io20BufferedOutputStreamD0Ev
libarrow.so.1700:_ZTv0_n24_N5arrow2io20BufferedOutputStreamD1Ev
libarrow.so.1700:_ZTv0_n24_N5arrow2io20SlowRandomAccessFileD0Ev
libarrow.so.1700:_ZTv0_n24_N5arrow2io20SlowRandomAccessFileD1Ev
libarrow.so.1700:_ZTv0_n24_N5arrow2io20TransformInputStreamD0Ev
libarrow.so.1700:_ZTv0_n24_N5arrow2io20TransformInputStreamD1Ev
libarrow.so.1700:_ZTv0_n24_N5arrow2io21CompressedInputStreamD0Ev
libarrow.so.1700:_ZTv0_n24_N5arrow2io21CompressedInputStreamD1Ev
libarrow.so.1700:_ZTv0_n24_N5arrow2io21FixedSizeBufferWriterD0Ev
libarrow.so.1700:_ZTv0_n24_N5arrow2io21FixedSizeBufferWriterD1Ev
libarrow.so.1700:_ZTv0_n24_N5arrow2io22CompressedOutputStreamD0Ev
libarrow.so.1700:_ZTv0_n24_N5arrow2io22CompressedOutputStreamD1Ev
libarrow.so.1700:_ZTv0_n32_N5arrow2io11StdinStream4ReadElPv
libarrow.so.1700:_ZTv0_n32_N5arrow2io11StdinStream5CloseEv
libarrow.so.1700:_ZTv0_n32_N5arrow2io12StderrStream5CloseEv
libarrow.so.1700:_ZTv0_n32_N5arrow2io12StdoutStream5CloseEv
libarrow.so.1700:_ZTv0_n32_N5arrow2io15SlowInputStream4ReadElPv
libarrow.so.1700:_ZTv0_n32_N5arrow2io15SlowInputStream5CloseEv
libarrow.so.1700:_ZTv0_n32_N5arrow2io16FileOutputStream5CloseEv
libarrow.so.1700:_ZTv0_n32_N5arrow2io16HdfsOutputStream5CloseEv
libarrow.so.1700:_ZTv0_n32_N5arrow2io16HdfsReadableFile4ReadElPv
libarrow.so.1700:_ZTv0_n32_N5arrow2io16HdfsReadableFile5CloseEv
libarrow.so.1700:_ZTv0_n32_N5arrow2io16MemoryMappedFile4ReadElPv
libarrow.so.1700:_ZTv0_n32_N5arrow2io16MemoryMappedFile5CloseEv
libarrow.so.1700:_ZTv0_n32_N5arrow2io16MockOutputStream5CloseEv
libarrow.so.1700:_ZTv0_n32_N5arrow2io18BufferOutputStream5CloseEv
libarrow.so.1700:_ZTv0_n32_N5arrow2io20BufferedOutputStream5CloseEv
libarrow.so.1700:_ZTv0_n32_N5arrow2io20SlowRandomAccessFile4ReadElPv
libarrow.so.1700:_ZTv0_n32_N5arrow2io20SlowRandomAccessFile5CloseEv
libarrow.so.1700:_ZTv0_n32_N5arrow2io20TransformInputStream4ReadElPv
libarrow.so.1700:_ZTv0_n32_N5arrow2io20TransformInputStream5CloseEv
libarrow.so.1700:_ZTv0_n32_N5arrow2io21FixedSizeBufferWriter5CloseEv
libarrow.so.1700:_ZTv0_n32_N5arrow2io22CompressedOutputStream5CloseEv
libarrow.so.1700:_ZTv0_n32_N5arrow3ipc8internal26IoRecordedRandomAccessFile4ReadElPv
libarrow.so.1700:_ZTv0_n32_N5arrow3ipc8internal26IoRecordedRandomAccessFile5CloseEv
libarrow.so.1700:_ZTv0_n40_N5arrow2io11StdinStream4ReadEl
libarrow.so.1700:_ZTv0_n40_N5arrow2io15SlowInputStream4ReadEl
libarrow.so.1700:_ZTv0_n40_N5arrow2io16HdfsReadableFile4ReadEl
libarrow.so.1700:_ZTv0_n40_N5arrow2io16MemoryMappedFile4ReadEl
libarrow.so.1700:_ZTv0_n40_N5arrow2io20SlowRandomAccessFile4ReadEl
libarrow.so.1700:_ZTv0_n40_N5arrow2io20TransformInputStream4ReadEl
libarrow.so.1700:_ZTv0_n40_N5arrow3ipc8internal26IoRecordedRandomAccessFile4ReadEl
libarrow.so.1700:_ZTv0_n48_N5arrow2io15SlowInputStream5AbortEv
libarrow.so.1700:_ZTv0_n48_N5arrow2io20BufferedOutputStream5AbortEv
libarrow.so.1700:_ZTv0_n48_N5arrow2io20SlowRandomAccessFile5AbortEv
libarrow.so.1700:_ZTv0_n48_N5arrow2io20TransformInputStream5AbortEv
libarrow.so.1700:_ZTv0_n48_N5arrow2io22CompressedOutputStream5AbortEv
libarrow.so.1700:_ZTv0_n48_N5arrow3ipc8internal26IoRecordedRandomAccessFile5AbortEv
libarrow.so.1700:_ZTv0_n48_NK5arrow3ipc8internal26IoRecordedRandomAccessFile10io_contextEv
libarrow.so.1700:_ZTv0_n56_NK5arrow2io11StdinStream4TellEv
libarrow.so.1700:_ZTv0_n56_NK5arrow2io12StderrStream4TellEv
libarrow.so.1700:_ZTv0_n56_NK5arrow2io12StdoutStream4TellEv
libarrow.so.1700:_ZTv0_n56_NK5arrow2io15SlowInputStream4TellEv
libarrow.so.1700:_ZTv0_n56_NK5arrow2io16FileOutputStream4TellEv
libarrow.so.1700:_ZTv0_n56_NK5arrow2io16HdfsOutputStream4TellEv
libarrow.so.1700:_ZTv0_n56_NK5arrow2io16HdfsReadableFile4TellEv
libarrow.so.1700:_ZTv0_n56_NK5arrow2io16MemoryMappedFile4TellEv
libarrow.so.1700:_ZTv0_n56_NK5arrow2io16MockOutputStream4TellEv
libarrow.so.1700:_ZTv0_n56_NK5arrow2io18BufferOutputStream4TellEv
libarrow.so.1700:_ZTv0_n56_NK5arrow2io20BufferedOutputStream4TellEv
libarrow.so.1700:_ZTv0_n56_NK5arrow2io20SlowRandomAccessFile4TellEv
libarrow.so.1700:_ZTv0_n56_NK5arrow2io20TransformInputStream4TellEv
libarrow.so.1700:_ZTv0_n56_NK5arrow2io21FixedSizeBufferWriter4TellEv
libarrow.so.1700:_ZTv0_n56_NK5arrow2io22CompressedOutputStream4TellEv
libarrow.so.1700:_ZTv0_n56_NK5arrow3ipc8internal26IoRecordedRandomAccessFile4TellEv
libarrow.so.1700:_ZTv0_n64_NK5arrow2io11StdinStream6closedEv
libarrow.so.1700:_ZTv0_n64_NK5arrow2io12BufferReader6closedEv
libarrow.so.1700:_ZTv0_n64_NK5arrow2io12ReadableFile6closedEv
libarrow.so.1700:_ZTv0_n64_NK5arrow2io12StderrStream6closedEv
libarrow.so.1700:_ZTv0_n64_NK5arrow2io12StdoutStream6closedEv
libarrow.so.1700:_ZTv0_n64_NK5arrow2io15SlowInputStream6closedEv
libarrow.so.1700:_ZTv0_n64_NK5arrow2io16FileOutputStream6closedEv
libarrow.so.1700:_ZTv0_n64_NK5arrow2io16HdfsOutputStream6closedEv
libarrow.so.1700:_ZTv0_n64_NK5arrow2io16HdfsReadableFile6closedEv
libarrow.so.1700:_ZTv0_n64_NK5arrow2io16MemoryMappedFile6closedEv
libarrow.so.1700:_ZTv0_n64_NK5arrow2io16MockOutputStream6closedEv
libarrow.so.1700:_ZTv0_n64_NK5arrow2io18BufferOutputStream6closedEv
libarrow.so.1700:_ZTv0_n64_NK5arrow2io19BufferedInputStream6closedEv
libarrow.so.1700:_ZTv0_n64_NK5arrow2io20BufferedOutputStream6closedEv
libarrow.so.1700:_ZTv0_n64_NK5arrow2io20SlowRandomAccessFile6closedEv
libarrow.so.1700:_ZTv0_n64_NK5arrow2io20TransformInputStream6closedEv
libarrow.so.1700:_ZTv0_n64_NK5arrow2io21CompressedInputStream6closedEv
libarrow.so.1700:_ZTv0_n64_NK5arrow2io21FixedSizeBufferWriter6closedEv
libarrow.so.1700:_ZTv0_n64_NK5arrow2io22CompressedOutputStream6closedEv
libarrow.so.1700:_ZTv0_n64_NK5arrow3ipc8internal26IoRecordedRandomAccessFile6closedEv
libarrow.so.1700:_ZZN5arrow4util5Mutex5GuardC4EvENUlPS1_E_4_FUNES3_
libarrow.so.1700:_ZZN5arrow6FutureINS_8internal5EmptyEE9SetResultENS_6ResultIS2_EEENUlPvE_4_FUNES6_
libarrow.so.1700:_ZZN5arrow6FutureIPvE9SetResultENS_6ResultIS1_EEENUlS1_E_4_FUNES1_
libarrow.so.1700:_ZZN5arrow6FutureISt10shared_ptrIKNS_16KeyValueMetadataEEE9SetResultENS_6ResultIS4_EEENUlPvE_4_FUNES8_
libarrow.so.1700:_ZZN5arrow6FutureISt10shared_ptrINS_11RecordBatchEEE9SetResultENS_6ResultIS3_EEENUlPvE_4_FUNES7_
libarrow.so.1700:_ZZN5arrow6FutureISt10shared_ptrINS_2io11InputStreamEEE9SetResultENS_6ResultIS4_EEENUlPvE_4_FUNES8_
libarrow.so.1700:_ZZN5arrow6FutureISt10shared_ptrINS_2io16RandomAccessFileEEE9SetResultENS_6ResultIS4_EEENUlPvE_4_FUNES8_
libarrow.so.1700:_ZZN5arrow6FutureISt10shared_ptrINS_3csv15StreamingReaderEEE9SetResultENS_6ResultIS4_EEENUlPvE_4_FUNES8_
libarrow.so.1700:_ZZN5arrow6FutureISt10shared_ptrINS_3ipc21RecordBatchFileReaderEEE9SetResultENS_6ResultIS4_EEENUlPvE_4_FUNES8_
libarrow.so.1700:_ZZN5arrow6FutureISt10shared_ptrINS_3ipc7MessageEEE9SetResultENS_6ResultIS4_EEENUlPvE_4_FUNES8_
libarrow.so.1700:_ZZN5arrow6FutureISt10shared_ptrINS_4json15StreamingReaderEEE9SetResultENS_6ResultIS4_EEENUlPvE_4_FUNES8_
libarrow.so.1700:_ZZN5arrow6FutureISt10shared_ptrINS_5ArrayEEE9SetResultENS_6ResultIS3_EEENUlPvE_4_FUNES7_
libarrow.so.1700:_ZZN5arrow6FutureISt10shared_ptrINS_5TableEEE9SetResultENS_6ResultIS3_EEENUlPvE_4_FUNES7_
libarrow.so.1700:_ZZN5arrow6FutureISt10shared_ptrINS_6BufferEEE9SetResultENS_6ResultIS3_EEENUlPvE_4_FUNES7_
libarrow.so.1700:_ZZN5arrow6FutureISt6vectorINS_2fs8FileInfoESaIS3_EEE9SetResultENS_6ResultIS5_EEENUlPvE_4_FUNES9_
libarrow.so.1700:_ZZN5arrow6FutureISt6vectorINS_6ResultINS_8internal5EmptyEEESaIS5_EEE9SetResultENS2_IS7_EEENUlPvE_4_FUNESA_
libarrow.so.1700:_ZZN5arrow6FutureISt6vectorINS_6ResultISt10shared_ptrINS_3ipc7MessageEEEESaIS7_EEE9SetResultENS2_IS9_EEENUlPvE_4_FUNESC_
libarrow.so.1700:_ZZN5arrow6FutureISt6vectorINS_6ResultISt10shared_ptrINS_5ArrayEEEESaIS6_EEE9SetResultENS2_IS8_EEENUlPvE_4_FUNESB_
libarrow.so.1700:_ZZN5arrow6FutureISt8functionIFNS0_ISt6vectorINS_2fs8FileInfoESaIS4_EEEEvEEE9SetResultENS_6ResultIS9_EEENUlPvE_4_FUNESD_
libarrow.so.1700:_ZZN5arrow6FutureISt8optionalINS_8internal5EmptyEEE9SetResultENS_6ResultIS4_EEENUlPvE_4_FUNES8_
libarrow.so.1700:_ZZN5arrow6FutureISt8optionalIlEE9SetResultENS_6ResultIS2_EEENUlPvE_4_FUNES6_
libarrow.so.1700:_ZZN5arrow6FutureIlE9SetResultENS_6ResultIlEEENUlPvE_4_FUNES4_
libarrow.so.1700:_ZZN5arrow8IteratorISt10shared_ptrINS_6BufferEEEC4EvENUlPvE_4_FUNES5_
libarrow.so.1700:arrow_strptime
libarrow_acero.so.1700:_ZN5arrow5acero11Declaration8SequenceESt6vectorIS1_SaIS1_EE
libarrow_acero.so.1700:_ZN5arrow5acero11OrderByImpl11MakeSelectKEPNS_7compute11ExecContextERKSt10shared_ptrINS_6SchemaEERKNS2_14SelectKOptionsE
libarrow_acero.so.1700:_ZN5arrow5acero11OrderByImpl8MakeSortEPNS_7compute11ExecContextERKSt10shared_ptrINS_6SchemaEERKNS2_11SortOptionsE
libarrow_acero.so.1700:_ZN5arrow5acero12AsofJoinNode20ProcessThreadWrapperEPS1_
libarrow_acero.so.1700:_ZN5arrow5acero12AsofJoinNode4MakeEPNS0_8ExecPlanESt6vectorIPNS0_8ExecNodeESaIS6_EERKNS0_15ExecNodeOptionsE
libarrow_acero.so.1700:_ZN5arrow5acero12AsofJoinNodeC1EPNS0_8ExecPlanESt6vectorIPNS0_8ExecNodeESaIS6_EES4_INSt7__cxx1112basic_stringIcSt11char_traitsIcESaIcEEESaISE_EERKS4_IiSaIiEERKS4_ISI_SaISI_EENS0_19AsofJoinNodeOptionsESt10shared_ptrINS_6SchemaEES4_ISt10unique_ptrINS0_9KeyHasherESt14default_deleteISU_EESaISX_EEbb
libarrow_acero.so.1700:_ZN5arrow5acero12AsofJoinNodeC2EPNS0_8ExecPlanESt6vectorIPNS0_8ExecNodeESaIS6_EES4_INSt7__cxx1112basic_stringIcSt11char_traitsIcESaIcEEESaISE_EERKS4_IiSaIiEERKS4_ISI_SaISI_EENS0_19AsofJoinNodeOptionsESt10shared_ptrINS_6SchemaEES4_ISt10unique_ptrINS0_9KeyHasherESt14default_deleteISU_EESaISX_EEbb
libarrow_acero.so.1700:_ZN5arrow5acero12HashJoinImpl9MakeBasicEv
libarrow_acero.so.1700:_ZN5arrow5acero12HashJoinImpl9MakeSwissEv
libarrow_acero.so.1700:_ZN5arrow5acero12HashJoinNode4MakeEPNS0_8ExecPlanESt6vectorIPNS0_8ExecNodeESaIS6_EERKNS0_15ExecNodeOptionsE
libarrow_acero.so.1700:_ZN5arrow5acero12QueryContext12ScheduleTaskESt8functionIFNS_6StatusEmEESt17basic_string_viewIcSt11char_traitsIcEE
libarrow_acero.so.1700:_ZN5arrow5acero12QueryContext12ScheduleTaskESt8functionIFNS_6StatusEvEESt17basic_string_viewIcSt11char_traitsIcEE
libarrow_acero.so.1700:_ZN5arrow5acero12QueryContext14GetThreadIndexEv
libarrow_acero.so.1700:_ZN5arrow5acero12QueryContext14ScheduleIOTaskESt8functionIFNS_6StatusEvEESt17basic_string_viewIcSt11char_traitsIcEE
libarrow_acero.so.1700:_ZN5arrow5acero12QueryContext14StartTaskGroupEil
libarrow_acero.so.1700:_ZN5arrow5acero12QueryContext17BeginExternalTaskESt17basic_string_viewIcSt11char_traitsIcEE
libarrow_acero.so.1700:_ZN5arrow5acero12QueryContext17RegisterTaskGroupESt8functionIFNS_6StatusEmlEES2_IFS3_mEE
libarrow_acero.so.1700:_ZN5arrow5acero12QueryContext4InitEPNS_4util18AsyncTaskSchedulerE
libarrow_acero.so.1700:_ZN5arrow5acero12QueryContextC1ENS0_12QueryOptionsENS_7compute11ExecContextE
libarrow_acero.so.1700:_ZN5arrow5acero12QueryContextC2ENS0_12QueryOptionsENS_7compute11ExecContextE
libarrow_acero.so.1700:_ZN5arrow5acero13RowArrayMerge11MergeSingleEPNS0_8RowArrayERKS2_lPKl
libarrow_acero.so.1700:_ZN5arrow5acero13RowArrayMerge15CopyFixedLengthEPNS_7compute12RowTableImplERKS3_lPKl
libarrow_acero.so.1700:_ZN5arrow5acero13RowArrayMerge15PrepareForMergeEPNS0_8RowArrayERKSt6vectorIS3_SaIS3_EEPS4_IlSaIlEEPNS_10MemoryPoolE
libarrow_acero.so.1700:_ZN5arrow5acero13RowArrayMerge17CopyVaryingLengthEPNS_7compute12RowTableImplERKS3_llPKl
libarrow_acero.so.1700:_ZN5arrow5acero13RowArrayMerge9CopyNullsEPNS_7compute12RowTableImplERKS3_lPKl
libarrow_acero.so.1700:_ZN5arrow5acero13TaskScheduler4MakeEv
libarrow_acero.so.1700:_ZN5arrow5acero13ThreadIndexer5CheckEm
libarrow_acero.so.1700:_ZN5arrow5acero13ThreadIndexer8CapacityEv
libarrow_acero.so.1700:_ZN5arrow5acero13ThreadIndexerclEv
libarrow_acero.so.1700:_ZN5arrow5acero14HashJoinSchema10BindFilterENS_7compute10ExpressionERKNS_6SchemaES6_PNS2_11ExecContextE
libarrow_acero.so.1700:_ZN5arrow5acero14HashJoinSchema14ComputePayloadERKNS_6SchemaERKSt6vectorINS_8FieldRefESaIS6_EESA_SA_
libarrow_acero.so.1700:_ZN5arrow5acero14HashJoinSchema15IsTypeSupportedERKNS_8DataTypeE
libarrow_acero.so.1700:_ZN5arrow5acero14HashJoinSchema15ValidateSchemasENS0_8JoinTypeERKNS_6SchemaERKSt6vectorINS_8FieldRefESaIS7_EESB_S5_SB_SB_RKNSt7__cxx1112basic_stringIcSt11char_traitsIcESaIcEEESJ_
libarrow_acero.so.1700:_ZN5arrow5acero14HashJoinSchema16MakeOutputSchemaERKNSt7__cxx1112basic_stringIcSt11char_traitsIcESaIcEEES9_
libarrow_acero.so.1700:_ZN5arrow5acero14HashJoinSchema20CollectFilterColumnsERSt6vectorINS_8FieldRefESaIS3_EES6_RKNS_7compute10ExpressionERKNS_6SchemaESD_
libarrow_acero.so.1700:_ZN5arrow5acero14HashJoinSchema30RewriteFilterToUseFilterSchemaEiRKNS0_19SchemaProjectionMapES4_RKNS_7compute10ExpressionE
libarrow_acero.so.1700:_ZN5arrow5acero14HashJoinSchema4InitENS0_8JoinTypeERKNS_6SchemaERKSt6vectorINS_8FieldRefESaIS7_EES5_SB_RKNS_7compute10ExpressionERKNSt7__cxx1112basic_stringIcSt11char_traitsIcESaIcEEESN_
libarrow_acero.so.1700:_ZN5arrow5acero14HashJoinSchema4InitENS0_8JoinTypeERKNS_6SchemaERKSt6vectorINS_8FieldRefESaIS7_EESB_S5_SB_SB_RKNS_7compute10ExpressionERKNSt7__cxx1112basic_stringIcSt11char_traitsIcESaIcEEESN_
libarrow_acero.so.1700:_ZN5arrow5acero14JoinNullFilter6FilterERKNS_7compute9ExecBatchEiiRKSt6vectorINS0_10JoinKeyCmpESaIS7_EEPbbPh
libarrow_acero.so.1700:_ZN5arrow5acero14PartitionLocks10random_intEmi
libarrow_acero.so.1700:_ZN5arrow5acero14PartitionLocks20AcquirePartitionLockEmiPKibiPiS4_
libarrow_acero.so.1700:_ZN5arrow5acero14PartitionLocks20ReleasePartitionLockEi
libarrow_acero.so.1700:_ZN5arrow5acero14PartitionLocks4InitEmi
libarrow_acero.so.1700:_ZN5arrow5acero14PartitionLocks7CleanUpEv
libarrow_acero.so.1700:_ZN5arrow5acero14PartitionLocks8lock_ptrEi
libarrow_acero.so.1700:_ZN5arrow5acero14PartitionLocksC1Ev
libarrow_acero.so.1700:_ZN5arrow5acero14PartitionLocksC2Ev
libarrow_acero.so.1700:_ZN5arrow5acero14PartitionLocksD1Ev
libarrow_acero.so.1700:_ZN5arrow5acero14PartitionLocksD2Ev
libarrow_acero.so.1700:_ZN5arrow5acero15SwissTableMerge14MergePartitionEPNS_7compute10SwissTableEPKS3_jijPSt6vectorIjSaIjEESA_
libarrow_acero.so.1700:_ZN5arrow5acero15SwissTableMerge15InsertNewGroupsEPNS_7compute10SwissTableERKSt6vectorIjSaIjEES9_
libarrow_acero.so.1700:_ZN5arrow5acero15SwissTableMerge15PrepareForMergeEPNS_7compute10SwissTableERKSt6vectorIS4_SaIS4_EEPS5_IjSaIjEEPNS_10MemoryPoolE
libarrow_acero.so.1700:_ZN5arrow5acero16BloomFilterMasksC1Ev
libarrow_acero.so.1700:_ZN5arrow5acero16BloomFilterMasksC2Ev
libarrow_acero.so.1700:_ZN5arrow5acero16HashJoinDictUtil14ConvertToInt32ERKSt10shared_ptrINS_8DataTypeEERKNS_5DatumElPNS_7compute11ExecContextE
libarrow_acero.so.1700:_ZN5arrow5acero16HashJoinDictUtil16ConvertFromInt32ERKSt10shared_ptrINS_8DataTypeEERKNS_5DatumElPNS_7compute11ExecContextE
libarrow_acero.so.1700:_ZN5arrow5acero16HashJoinDictUtil17ExtractDictionaryERKNS_5DatumE
libarrow_acero.so.1700:_ZN5arrow5acero16HashJoinDictUtil17KeyDataTypesValidERKSt10shared_ptrINS_8DataTypeEES6_
libarrow_acero.so.1700:_ZN5arrow5acero16HashJoinDictUtil18IndexRemapUsingLUTEPNS_7compute11ExecContextERKNS_5DatumElRKSt10shared_ptrINS_9ArrayDataEERKS8_INS_8DataTypeEE
libarrow_acero.so.1700:_ZN5arrow5acero16RowArrayAccessor13NumRowsToSkipERKNS_7compute12RowTableImplEiiPKji
libarrow_acero.so.1700:_ZN5arrow5acero16RowArrayAccessor17VarbinaryColumnIdERKNS_7compute16RowTableMetadataEi
libarrow_acero.so.1700:_ZN5arrow5acero17HashJoinDictBuild4InitEPNS_7compute11ExecContextESt10shared_ptrINS_5ArrayEES5_INS_8DataTypeEES9_
libarrow_acero.so.1700:_ZN5arrow5acero17HashJoinDictBuild7CleanUpEv
libarrow_acero.so.1700:_ZN5arrow5acero17HashJoinDictProbe10RemapInputEPKNS0_17HashJoinDictBuildERKNS_5DatumElRKSt10shared_ptrINS_8DataTypeEESC_PNS_7compute11ExecContextE
libarrow_acero.so.1700:_ZN5arrow5acero17HashJoinDictProbe18KeyNeedsProcessingERKSt10shared_ptrINS_8DataTypeEES6_
libarrow_acero.so.1700:_ZN5arrow5acero17HashJoinDictProbe22DataTypeAfterRemappingERKSt10shared_ptrINS_8DataTypeEE
libarrow_acero.so.1700:_ZN5arrow5acero17HashJoinDictProbe7CleanUpEv
libarrow_acero.so.1700:_ZN5arrow5acero17JoinMatchIterator12GetNextBatchEiPiPtPjS4_i
libarrow_acero.so.1700:_ZN5arrow5acero17JoinMatchIterator15SetLookupResultEiiPKhPKjbS5_
libarrow_acero.so.1700:_ZN5arrow5acero17SwissTableForJoin13MergeHasMatchEv
libarrow_acero.so.1700:_ZN5arrow5acero17SwissTableForJoin15local_has_matchEl
libarrow_acero.so.1700:_ZN5arrow5acero17SwissTableForJoin21UpdateHasMatchForKeysEliPKj
libarrow_acero.so.1700:_ZN5arrow5acero17SwissTableForJoin25UpdateHasMatchForPayloadsEliPKj
libarrow_acero.so.1700:_ZN5arrow5acero17TaskSchedulerImpl11ExecuteMoreEmib
libarrow_acero.so.1700:_ZN5arrow5acero17TaskSchedulerImpl11ExecuteTaskEmilPb
libarrow_acero.so.1700:_ZN5arrow5acero17TaskSchedulerImpl11RegisterEndEv
libarrow_acero.so.1700:_ZN5arrow5acero17TaskSchedulerImpl12ScheduleMoreEmi
libarrow_acero.so.1700:_ZN5arrow5acero17TaskSchedulerImpl14StartTaskGroupEmil
libarrow_acero.so.1700:_ZN5arrow5acero17TaskSchedulerImpl15PostExecuteTaskEmi
libarrow_acero.so.1700:_ZN5arrow5acero17TaskSchedulerImpl15StartSchedulingEmSt8functionIFNS_6StatusES2_IFS3_mEEEEib
libarrow_acero.so.1700:_ZN5arrow5acero17TaskSchedulerImpl17RegisterTaskGroupESt8functionIFNS_6StatusEmlEES2_IFS3_mEE
libarrow_acero.so.1700:_ZN5arrow5acero17TaskSchedulerImpl19OnTaskGroupFinishedEmiPb
libarrow_acero.so.1700:_ZN5arrow5acero17TaskSchedulerImpl5AbortESt8functionIFvvEE
libarrow_acero.so.1700:_ZN5arrow5acero17TaskSchedulerImpl9PickTasksEii
libarrow_acero.so.1700:_ZN5arrow5acero17TaskSchedulerImplC1Ev
libarrow_acero.so.1700:_ZN5arrow5acero17TaskSchedulerImplC2Ev
libarrow_acero.so.1700:_ZN5arrow5acero18BlockedBloomFilter10SingleFoldEi
libarrow_acero.so.1700:_ZN5arrow5acero18BlockedBloomFilter11CreateEmptyElPNS_10MemoryPoolE
libarrow_acero.so.1700:_ZN5arrow5acero18BlockedBloomFilter11Insert_avx2ElPKj
libarrow_acero.so.1700:_ZN5arrow5acero18BlockedBloomFilter11Insert_avx2ElPKm
libarrow_acero.so.1700:_ZN5arrow5acero18BlockedBloomFilter4FoldEv
libarrow_acero.so.1700:_ZN5arrow5acero18BlockedBloomFilter6InsertEllPKj
libarrow_acero.so.1700:_ZN5arrow5acero18BlockedBloomFilter6InsertEllPKm
libarrow_acero.so.1700:_ZN5arrow5acero18BloomFilterBuilder4MakeENS0_24BloomFilterBuildStrategyE
libarrow_acero.so.1700:_ZN5arrow5acero18DeclarationToTableENS0_11DeclarationENS0_12QueryOptionsE
libarrow_acero.so.1700:_ZN5arrow5acero18DeclarationToTableENS0_11DeclarationEbPNS_10MemoryPoolEPNS_7compute16FunctionRegistryE
libarrow_acero.so.1700:_ZN5arrow5acero18JoinProbeProcessor10OnFinishedEv
libarrow_acero.so.1700:_ZN5arrow5acero18JoinProbeProcessor11OnNextBatchElRKNS_7compute9ExecBatchEPNS_4util15TempVectorStackEPSt6vectorINS2_14KeyColumnArrayESaISA_EE
libarrow_acero.so.1700:_ZN5arrow5acero18JoinProbeProcessor4InitEiNS0_8JoinTypeEPNS0_17SwissTableForJoinEPNS0_18JoinResidualFilterESt6vectorIPNS0_21JoinResultMaterializeESaIS9_EEPKS7_INS0_10JoinKeyCmpESaISC_EESt8functionIFNS_6StatusElNS_7compute9ExecBatchEEE
libarrow_acero.so.1700:_ZN5arrow5acero18JoinResidualFilter15OnBuildFinishedEv
libarrow_acero.so.1700:_ZN5arrow5acero18JoinResidualFilter19InitFilterBitVectorEiPh
libarrow_acero.so.1700:_ZN5arrow5acero18JoinResidualFilter21UpdateFilterBitVectorEiiPKtPh
libarrow_acero.so.1700:_ZN5arrow5acero18JoinResidualFilter4InitENS_7compute10ExpressionEPNS0_12QueryContextEPNS_10MemoryPoolElPKNS0_20SchemaProjectionMapsINS0_18HashJoinProjectionEEESC_PNS0_17SwissTableForJoinE
libarrow_acero.so.1700:_ZN5arrow5acero18SwissTableWithKeys11MapReadOnlyEPNS1_5InputEPKjPhPj
libarrow_acero.so.1700:_ZN5arrow5acero18SwissTableWithKeys13EqualCallbackEiPKtPKjPjPtPv
libarrow_acero.so.1700:_ZN5arrow5acero18SwissTableWithKeys13InitCallbacksEv
libarrow_acero.so.1700:_ZN5arrow5acero18SwissTableWithKeys14AppendCallbackEiPKtPv
libarrow_acero.so.1700:_ZN5arrow5acero18SwissTableWithKeys14MapWithInsertsEPNS1_5InputEPKjPj
libarrow_acero.so.1700:_ZN5arrow5acero18SwissTableWithKeys3MapEPNS1_5InputEbPKjPhPj
libarrow_acero.so.1700:_ZN5arrow5acero18SwissTableWithKeys4HashEPNS1_5InputEPjl
libarrow_acero.so.1700:_ZN5arrow5acero18SwissTableWithKeys4InitElPNS_10MemoryPoolE
libarrow_acero.so.1700:_ZN5arrow5acero18SwissTableWithKeys5InputC1EPKNS_7compute9ExecBatchEPNS_4util15TempVectorStackEPSt6vectorINS3_14KeyColumnArrayESaISB_EE
libarrow_acero.so.1700:_ZN5arrow5acero18SwissTableWithKeys5InputC1EPKNS_7compute9ExecBatchEiPKtPNS_4util15TempVectorStackEPSt6vectorINS3_14KeyColumnArrayESaISD_EEPSC_IjSaIjEE
libarrow_acero.so.1700:_ZN5arrow5acero18SwissTableWithKeys5InputC1EPKNS_7compute9ExecBatchEiiPNS_4util15TempVectorStackEPSt6vectorINS3_14KeyColumnArrayESaISB_EE
libarrow_acero.so.1700:_ZN5arrow5acero18SwissTableWithKeys5InputC1ERKS2_ii
libarrow_acero.so.1700:_ZN5arrow5acero18SwissTableWithKeys5InputC2EPKNS_7compute9ExecBatchEPNS_4util15TempVectorStackEPSt6vectorINS3_14KeyColumnArrayESaISB_EE
libarrow_acero.so.1700:_ZN5arrow5acero18SwissTableWithKeys5InputC2EPKNS_7compute9ExecBatchEiPKtPNS_4util15TempVectorStackEPSt6vectorINS3_14KeyColumnArrayESaISD_EEPSC_IjSaIjEE
libarrow_acero.so.1700:_ZN5arrow5acero18SwissTableWithKeys5InputC2EPKNS_7compute9ExecBatchEiiPNS_4util15TempVectorStackEPSt6vectorINS3_14KeyColumnArrayESaISB_EE
libarrow_acero.so.1700:_ZN5arrow5acero18SwissTableWithKeys5InputC2ERKS2_ii
libarrow_acero.so.1700:_ZN5arrow5acero19DeclarationToReaderENS0_11DeclarationENS0_12QueryOptionsE
libarrow_acero.so.1700:_ZN5arrow5acero19DeclarationToReaderENS0_11DeclarationEbPNS_10MemoryPoolEPNS_7compute16FunctionRegistryE
libarrow_acero.so.1700:_ZN5arrow5acero19DeclarationToSchemaERKNS0_11DeclarationEPNS_7compute16FunctionRegistryE
libarrow_acero.so.1700:_ZN5arrow5acero19DeclarationToStatusENS0_11DeclarationENS0_12QueryOptionsE
libarrow_acero.so.1700:_ZN5arrow5acero19DeclarationToStatusENS0_11DeclarationEbPNS_10MemoryPoolEPNS_7compute16FunctionRegistryE
libarrow_acero.so.1700:_ZN5arrow5acero19DeclarationToStringB5cxx11ERKNS0_11DeclarationEPNS_7compute16FunctionRegistryE
libarrow_acero.so.1700:_ZN5arrow5acero19MakeGeneratorReaderESt10shared_ptrINS_6SchemaEESt8functionIFNS_6FutureISt8optionalINS_7compute9ExecBatchEEEEvEEPNS_10MemoryPoolE
libarrow_acero.so.1700:_ZN5arrow5acero19MakeReaderGeneratorESt10shared_ptrINS_17RecordBatchReaderEEPNS_8internal8ExecutorEii
libarrow_acero.so.1700:_ZN5arrow5acero20DeclarationToBatchesENS0_11DeclarationENS0_12QueryOptionsE
libarrow_acero.so.1700:_ZN5arrow5acero20DeclarationToBatchesENS0_11DeclarationEbPNS_10MemoryPoolEPNS_7compute16FunctionRegistryE
libarrow_acero.so.1700:_ZN5arrow5acero20TableFromExecBatchesERKSt10shared_ptrINS_6SchemaEERKSt6vectorINS_7compute9ExecBatchESaIS8_EE
libarrow_acero.so.1700:_ZN5arrow5acero21JoinResultMaterialize12SetBuildSideEPKNS0_8RowArrayES4_b
libarrow_acero.so.1700:_ZN5arrow5acero21JoinResultMaterialize15AppendBuildOnlyEiPKjS3_Pi
libarrow_acero.so.1700:_ZN5arrow5acero21JoinResultMaterialize15AppendProbeOnlyERKNS_7compute9ExecBatchEiPKtPi
libarrow_acero.so.1700:_ZN5arrow5acero21JoinResultMaterialize16FlushBuildColumnERKSt10shared_ptrINS_8DataTypeEEPKNS0_8RowArrayEiPj
libarrow_acero.so.1700:_ZN5arrow5acero21JoinResultMaterialize4InitEPNS_10MemoryPoolEPKNS0_20SchemaProjectionMapsINS0_18HashJoinProjectionEEES8_
libarrow_acero.so.1700:_ZN5arrow5acero21JoinResultMaterialize5FlushEPNS_7compute9ExecBatchE
libarrow_acero.so.1700:_ZN5arrow5acero21JoinResultMaterialize6AppendERKNS_7compute9ExecBatchEiPKtPKjS9_Pi
libarrow_acero.so.1700:_ZN5arrow5acero21TableSinkNodeConsumer4InitERKSt10shared_ptrINS_6SchemaEEPNS0_19BackpressureControlEPNS0_8ExecPlanE
libarrow_acero.so.1700:_ZN5arrow5acero21TableSinkNodeConsumer6FinishEv
libarrow_acero.so.1700:_ZN5arrow5acero21TableSinkNodeConsumer7ConsumeENS_7compute9ExecBatchE
libarrow_acero.so.1700:_ZN5arrow5acero22HashJoinDictBuildMulti10PostDecodeERKNS0_20SchemaProjectionMapsINS0_18HashJoinProjectionEEEPNS_7compute9ExecBatchEPNS7_11ExecContextE
libarrow_acero.so.1700:_ZN5arrow5acero22HashJoinDictBuildMulti11InitEncoderERKNS0_20SchemaProjectionMapsINS0_18HashJoinProjectionEEEPNS_7compute8internal10RowEncoderEPNS7_11ExecContextE
libarrow_acero.so.1700:_ZN5arrow5acero22HashJoinDictBuildMulti4InitERKNS0_20SchemaProjectionMapsINS0_18HashJoinProjectionEEEPKNS_7compute9ExecBatchEPNS7_11ExecContextE
libarrow_acero.so.1700:_ZN5arrow5acero22HashJoinDictProbeMulti11EncodeBatchEmRKNS0_20SchemaProjectionMapsINS0_18HashJoinProjectionEEES6_RKNS0_22HashJoinDictBuildMultiERKNS_7compute9ExecBatchEPPNSA_8internal10RowEncoderEPSB_PNSA_11ExecContextE
libarrow_acero.so.1700:_ZN5arrow5acero22HashJoinDictProbeMulti11InitEncoderERKNS0_20SchemaProjectionMapsINS0_18HashJoinProjectionEEES6_PNS_7compute8internal10RowEncoderEPNS7_11ExecContextE
libarrow_acero.so.1700:_ZN5arrow5acero22HashJoinDictProbeMulti16BatchRemapNeededEmRKNS0_20SchemaProjectionMapsINS0_18HashJoinProjectionEEES6_PNS_7compute11ExecContextE
libarrow_acero.so.1700:_ZN5arrow5acero22HashJoinDictProbeMulti22InitLocalStateIfNeededEmRKNS0_20SchemaProjectionMapsINS0_18HashJoinProjectionEEES6_PNS_7compute11ExecContextE
libarrow_acero.so.1700:_ZN5arrow5acero22HashJoinDictProbeMulti4InitEm
libarrow_acero.so.1700:_ZN5arrow5acero22SwissTableForJoinBuild13PushNextBatchElRKNS_7compute9ExecBatchEPS4_PNS_4util15TempVectorStackE
libarrow_acero.so.1700:_ZN5arrow5acero22SwissTableForJoinBuild15FinishPrtnMergeEPNS_4util15TempVectorStackE
libarrow_acero.so.1700:_ZN5arrow5acero22SwissTableForJoinBuild16PreparePrtnMergeEv
libarrow_acero.so.1700:_ZN5arrow5acero22SwissTableForJoinBuild16ProcessPartitionElRKNS_7compute9ExecBatchEPS4_PNS_4util15TempVectorStackEi
libarrow_acero.so.1700:_ZN5arrow5acero22SwissTableForJoinBuild4InitEPNS0_17SwissTableForJoinEilbbRKSt6vectorINS_7compute17KeyColumnMetadataESaIS6_EESA_PNS_10MemoryPoolEl
libarrow_acero.so.1700:_ZN5arrow5acero22SwissTableForJoinBuild9PrtnMergeEi
libarrow_acero.so.1700:_ZN5arrow5acero22ValidateExecNodeInputsEPNS0_8ExecPlanERKSt6vectorIPNS0_8ExecNodeESaIS5_EEiPKc
libarrow_acero.so.1700:_ZN5arrow5acero23DeclarationToTableAsyncENS0_11DeclarationENS_7compute11ExecContextE
libarrow_acero.so.1700:_ZN5arrow5acero23DeclarationToTableAsyncENS0_11DeclarationEbPNS_10MemoryPoolEPNS_7compute16FunctionRegistryE
libarrow_acero.so.1700:_ZN5arrow5acero24DeclarationToExecBatchesENS0_11DeclarationENS0_12QueryOptionsE
libarrow_acero.so.1700:_ZN5arrow5acero24DeclarationToExecBatchesENS0_11DeclarationEbPNS_10MemoryPoolEPNS_7compute16FunctionRegistryE
libarrow_acero.so.1700:_ZN5arrow5acero24DeclarationToStatusAsyncENS0_11DeclarationENS_7compute11ExecContextE
libarrow_acero.so.1700:_ZN5arrow5acero24DeclarationToStatusAsyncENS0_11DeclarationEbPNS_10MemoryPoolEPNS_7compute16FunctionRegistryE
libarrow_acero.so.1700:_ZN5arrow5acero25DeclarationToBatchesAsyncENS0_11DeclarationENS_7compute11ExecContextE
libarrow_acero.so.1700:_ZN5arrow5acero25DeclarationToBatchesAsyncENS0_11DeclarationEbPNS_10MemoryPoolEPNS_7compute16FunctionRegistryE
libarrow_acero.so.1700:_ZN5arrow5acero26BloomFilterPushdownContext14StartProducingEm
libarrow_acero.so.1700:_ZN5arrow5acero26BloomFilterPushdownContext15PushBloomFilterEm
libarrow_acero.so.1700:_ZN5arrow5acero26BloomFilterPushdownContext16BuildBloomFilterEmNS0_4util17AccumulationQueueESt8functionIFNS_6StatusEmS3_EE
libarrow_acero.so.1700:_ZN5arrow5acero26BloomFilterPushdownContext17GetPushdownTargetEPNS0_12HashJoinNodeE
libarrow_acero.so.1700:_ZN5arrow5acero26BloomFilterPushdownContext26BuildBloomFilter_exec_taskEml
libarrow_acero.so.1700:_ZN5arrow5acero26BloomFilterPushdownContext4InitEPNS0_12HashJoinNodeEmSt8functionIFiS4_IFNS_6StatusEmlEES4_IFS5_mEEEES4_IFS5_ilEES9_bb
libarrow_acero.so.1700:_ZN5arrow5acero26ExecBatchSourceNodeOptionsC1ESt10shared_ptrINS_6SchemaEESt6vectorINS_7compute9ExecBatchESaIS7_EEPNS_8internal8ExecutorE
libarrow_acero.so.1700:_ZN5arrow5acero26ExecBatchSourceNodeOptionsC1ESt10shared_ptrINS_6SchemaEESt6vectorINS_7compute9ExecBatchESaIS7_EEb
libarrow_acero.so.1700:_ZN5arrow5acero26ExecBatchSourceNodeOptionsC2ESt10shared_ptrINS_6SchemaEESt6vectorINS_7compute9ExecBatchESaIS7_EEPNS_8internal8ExecutorE
libarrow_acero.so.1700:_ZN5arrow5acero26ExecBatchSourceNodeOptionsC2ESt10shared_ptrINS_6SchemaEESt6vectorINS_7compute9ExecBatchESaIS7_EEb
libarrow_acero.so.1700:_ZN5arrow5acero27BloomFilterBuilder_Parallel13PushNextBatchEmlPKj
libarrow_acero.so.1700:_ZN5arrow5acero27BloomFilterBuilder_Parallel13PushNextBatchEmlPKm
libarrow_acero.so.1700:_ZN5arrow5acero27BloomFilterBuilder_Parallel5BeginEmlPNS_10MemoryPoolEllPNS0_18BlockedBloomFilterE
libarrow_acero.so.1700:_ZN5arrow5acero27BloomFilterBuilder_Parallel7CleanUpEv
libarrow_acero.so.1700:_ZN5arrow5acero27ValidateHashJoinNodeOptionsERKNS0_19HashJoinNodeOptionsE
libarrow_acero.so.1700:_ZN5arrow5acero29DeclarationToExecBatchesAsyncENS0_11DeclarationENS_7compute11ExecContextE
libarrow_acero.so.1700:_ZN5arrow5acero29DeclarationToExecBatchesAsyncENS0_11DeclarationEbPNS_10MemoryPoolEPNS_7compute16FunctionRegistryE
libarrow_acero.so.1700:_ZN5arrow5acero29default_exec_factory_registryEv
libarrow_acero.so.1700:_ZN5arrow5acero33BloomFilterBuilder_SingleThreaded13PushNextBatchEmlPKj
libarrow_acero.so.1700:_ZN5arrow5acero33BloomFilterBuilder_SingleThreaded13PushNextBatchEmlPKm
libarrow_acero.so.1700:_ZN5arrow5acero33BloomFilterBuilder_SingleThreaded5BeginEmlPNS_10MemoryPoolEllPNS0_18BlockedBloomFilterE
libarrow_acero.so.1700:_ZN5arrow5acero33GetDefaultUnalignedBufferHandlingEv
libarrow_acero.so.1700:_ZN5arrow5acero4util15SequencingQueue4MakeEPNS2_9ProcessorE
libarrow_acero.so.1700:_ZN5arrow5acero4util17AccumulationQueue11ConcatenateEOS2_
libarrow_acero.so.1700:_ZN5arrow5acero4util17AccumulationQueue11InsertBatchENS_7compute9ExecBatchE
libarrow_acero.so.1700:_ZN5arrow5acero4util17AccumulationQueue5ClearEv
libarrow_acero.so.1700:_ZN5arrow5acero4util17AccumulationQueueC1EOS2_
libarrow_acero.so.1700:_ZN5arrow5acero4util17AccumulationQueueC2EOS2_
libarrow_acero.so.1700:_ZN5arrow5acero4util17AccumulationQueueaSEOS2_
libarrow_acero.so.1700:_ZN5arrow5acero4util17AccumulationQueueixEm
libarrow_acero.so.1700:_ZN5arrow5acero4util21SerialSequencingQueue4MakeEPNS2_9ProcessorE
libarrow_acero.so.1700:_ZN5arrow5acero7GetTimeEPKNS_11RecordBatchENS_4Type4typeEim
libarrow_acero.so.1700:_ZN5arrow5acero7MapNode13InputFinishedEPNS0_8ExecNodeEi
libarrow_acero.so.1700:_ZN5arrow5acero7MapNode13InputReceivedEPNS0_8ExecNodeENS_7compute9ExecBatchE
libarrow_acero.so.1700:_ZN5arrow5acero7MapNode14PauseProducingEPNS0_8ExecNodeEi
libarrow_acero.so.1700:_ZN5arrow5acero7MapNode14StartProducingEv
libarrow_acero.so.1700:_ZN5arrow5acero7MapNode15ResumeProducingEPNS0_8ExecNodeEi
libarrow_acero.so.1700:_ZN5arrow5acero7MapNode17StopProducingImplEv
libarrow_acero.so.1700:_ZN5arrow5acero7MapNode6FinishEv
libarrow_acero.so.1700:_ZN5arrow5acero7MapNodeC1EPNS0_8ExecPlanESt6vectorIPNS0_8ExecNodeESaIS6_EESt10shared_ptrINS_6SchemaEE
libarrow_acero.so.1700:_ZN5arrow5acero7MapNodeC2EPNS0_8ExecPlanESt6vectorIPNS0_8ExecNodeESaIS6_EESt10shared_ptrINS_6SchemaEE
libarrow_acero.so.1700:_ZN5arrow5acero8ExecNode13StopProducingEv
libarrow_acero.so.1700:_ZN5arrow5acero8ExecNode4InitEv
libarrow_acero.so.1700:_ZN5arrow5acero8ExecNodeC1EPNS0_8ExecPlanESt6vectorIPS1_SaIS5_EES4_INSt7__cxx1112basic_stringIcSt11char_traitsIcESaIcEEESaISD_EESt10shared_ptrINS_6SchemaEE
libarrow_acero.so.1700:_ZN5arrow5acero8ExecNodeC2EPNS0_8ExecPlanESt6vectorIPS1_SaIS5_EES4_INSt7__cxx1112basic_stringIcSt11char_traitsIcESaIcEEESaISD_EESt10shared_ptrINS_6SchemaEE
libarrow_acero.so.1700:_ZN5arrow5acero8ExecPlan13StopProducingEv
libarrow_acero.so.1700:_ZN5arrow5acero8ExecPlan13query_contextEv
libarrow_acero.so.1700:_ZN5arrow5acero8ExecPlan14StartProducingEv
libarrow_acero.so.1700:_ZN5arrow5acero8ExecPlan4MakeENS0_12QueryOptionsENS_7compute11ExecContextESt10shared_ptrIKNS_16KeyValueMetadataEE
libarrow_acero.so.1700:_ZN5arrow5acero8ExecPlan4MakeENS0_12QueryOptionsEPNS_7compute11ExecContextESt10shared_ptrIKNS_16KeyValueMetadataEE
libarrow_acero.so.1700:_ZN5arrow5acero8ExecPlan4MakeENS_7compute11ExecContextESt10shared_ptrIKNS_16KeyValueMetadataEE
libarrow_acero.so.1700:_ZN5arrow5acero8ExecPlan4MakeEPNS_7compute11ExecContextESt10shared_ptrIKNS_16KeyValueMetadataEE
libarrow_acero.so.1700:_ZN5arrow5acero8ExecPlan7AddNodeESt10unique_ptrINS0_8ExecNodeESt14default_deleteIS3_EE
libarrow_acero.so.1700:_ZN5arrow5acero8ExecPlan8ValidateEv
libarrow_acero.so.1700:_ZN5arrow5acero8ExecPlan8finishedEv
libarrow_acero.so.1700:_ZN5arrow5acero8RowArray12InitIfNeededEPNS_10MemoryPoolERKNS_7compute16RowTableMetadataE
libarrow_acero.so.1700:_ZN5arrow5acero8RowArray12InitIfNeededEPNS_10MemoryPoolERKNS_7compute9ExecBatchE
libarrow_acero.so.1700:_ZN5arrow5acero8RowArray20AppendBatchSelectionEPNS_10MemoryPoolERKNS_7compute9ExecBatchEiiiPKtRSt6vectorINS4_14KeyColumnArrayESaISB_EE
libarrow_acero.so.1700:_ZN5arrow5acero8RowArray7CompareERKNS_7compute9ExecBatchEiiiPKtPKjPjPtlPNS_4util15TempVectorStackERSt6vectorINS2_14KeyColumnArrayESaISG_EEPh
libarrow_acero.so.1700:_ZN5arrow5acero8ToStringB5cxx11ENS0_8JoinTypeE
libarrow_acero.so.1700:_ZN5arrow5acero8asofjoin16MakeOutputSchemaERKSt6vectorISt10shared_ptrINS_6SchemaEESaIS5_EERKS2_INS0_19AsofJoinNodeOptions4KeysESaISB_EE
libarrow_acero.so.1700:_ZN5arrow5acero8internal16RegisterSinkNodeEPNS0_19ExecFactoryRegistryE
libarrow_acero.so.1700:_ZN5arrow5acero8internal17RegisterFetchNodeEPNS0_19ExecFactoryRegistryE
libarrow_acero.so.1700:_ZN5arrow5acero8internal17RegisterUnionNodeEPNS0_19ExecFactoryRegistryE
libarrow_acero.so.1700:_ZN5arrow5acero8internal18RegisterFilterNodeEPNS0_19ExecFactoryRegistryE
libarrow_acero.so.1700:_ZN5arrow5acero8internal18RegisterSourceNodeEPNS0_19ExecFactoryRegistryE
libarrow_acero.so.1700:_ZN5arrow5acero8internal19RegisterOrderByNodeEPNS0_19ExecFactoryRegistryE
libarrow_acero.so.1700:_ZN5arrow5acero8internal19RegisterProjectNodeEPNS0_19ExecFactoryRegistryE
libarrow_acero.so.1700:_ZN5arrow5acero8internal20RegisterAsofJoinNodeEPNS0_19ExecFactoryRegistryE
libarrow_acero.so.1700:_ZN5arrow5acero8internal20RegisterHashJoinNodeEPNS0_19ExecFactoryRegistryE
libarrow_acero.so.1700:_ZN5arrow5acero8internal21RegisterAggregateNodeEPNS0_19ExecFactoryRegistryE
libarrow_acero.so.1700:_ZN5arrow5acero8internal23RegisterPivotLongerNodeEPNS0_19ExecFactoryRegistryE
libarrow_acero.so.1700:_ZN5arrow5acero8internal23RegisterSortedMergeNodeEPNS0_19ExecFactoryRegistryE
libarrow_acero.so.1700:_ZN5arrow5acero8internal7TpchGen4MakeEPNS0_8ExecPlanEdlSt8optionalIlE
libarrow_acero.so.1700:_ZN5arrow5acero9UnionNode4MakeEPNS0_8ExecPlanESt6vectorIPNS0_8ExecNodeESaIS6_EERKNS0_15ExecNodeOptionsE
libarrow_acero.so.1700:_ZN5arrow5acero9aggregate10GetKernelsEPNS_7compute11ExecContextERKSt6vectorINS2_9AggregateESaIS6_EERKS5_IS5_INS_10TypeHolderESaISB_EESaISD_EE
libarrow_acero.so.1700:_ZN5arrow5acero9aggregate10InitKernelEPKNS_7compute19HashAggregateKernelEPNS2_11ExecContextERKNS2_9AggregateERKSt6vectorINS_10TypeHolderESaISC_EE
libarrow_acero.so.1700:_ZN5arrow5acero9aggregate11GroupByNode12OutputResultEb
libarrow_acero.so.1700:_ZN5arrow5acero9aggregate11GroupByNode13InputFinishedEPNS0_8ExecNodeEi
libarrow_acero.so.1700:_ZN5arrow5acero9aggregate11GroupByNode13InputReceivedEPNS0_8ExecNodeENS_7compute9ExecBatchE
libarrow_acero.so.1700:_ZN5arrow5acero9aggregate11GroupByNode14OutputNthBatchEl
libarrow_acero.so.1700:_ZN5arrow5acero9aggregate11GroupByNode17ResetKernelStatesEv
libarrow_acero.so.1700:_ZN5arrow5acero9aggregate11GroupByNode21MakeAggregateNodeArgsERKSt10shared_ptrINS_6SchemaEERKSt6vectorINS_8FieldRefESaIS9_EESD_RKS8_INS_7compute9AggregateESaISF_EEPNSE_11ExecContextEb
libarrow_acero.so.1700:_ZN5arrow5acero9aggregate11GroupByNode22InitLocalStateIfNeededEPNS2_16ThreadLocalStateE
libarrow_acero.so.1700:_ZN5arrow5acero9aggregate11GroupByNode4InitEv
libarrow_acero.so.1700:_ZN5arrow5acero9aggregate11GroupByNode4MakeEPNS0_8ExecPlanESt6vectorIPNS0_8ExecNodeESaIS7_EERKNS0_15ExecNodeOptionsE
libarrow_acero.so.1700:_ZN5arrow5acero9aggregate11GroupByNode5MergeEv
libarrow_acero.so.1700:_ZN5arrow5acero9aggregate11GroupByNode7ConsumeENS_7compute8ExecSpanE
libarrow_acero.so.1700:_ZN5arrow5acero9aggregate11GroupByNode8FinalizeEv
libarrow_acero.so.1700:_ZN5arrow5acero9aggregate11InitKernelsERKSt6vectorIPKNS_7compute19HashAggregateKernelESaIS6_EEPNS3_11ExecContextERKS2_INS3_9AggregateESaISD_EERKS2_IS2_INS_10TypeHolderESaISI_EESaISK_EE
libarrow_acero.so.1700:_ZN5arrow5acero9aggregate11PlaceFieldsERNS_7compute9ExecBatchEmRSt6vectorINS_5DatumESaIS6_EE
libarrow_acero.so.1700:_ZN5arrow5acero9aggregate13ExtractValuesERKNS_7compute9ExecBatchERKSt6vectorIiSaIiEE
libarrow_acero.so.1700:_ZN5arrow5acero9aggregate14ResolveKernelsERKSt6vectorINS_7compute9AggregateESaIS4_EERKS2_IPKNS3_19HashAggregateKernelESaISB_EERKS2_ISt10unique_ptrINS3_11KernelStateESt14default_deleteISH_EESaISK_EEPNS3_11ExecContextERKS2_IS2_INS_10TypeHolderESaISR_EESaIST_EE
libarrow_acero.so.1700:_ZN5arrow5acero9aggregate16MakeOutputSchemaERKSt10shared_ptrINS_6SchemaEERKSt6vectorINS_8FieldRefESaIS8_EESC_RKS7_INS_7compute9AggregateESaISE_EEPNSD_11ExecContextE
libarrow_acero.so.1700:_ZN5arrow5acero9aggregate18AggregatesToStringEPNSt7__cxx1118basic_stringstreamIcSt11char_traitsIcESaIcEEERKNS_6SchemaERKSt6vectorINS_7compute9AggregateESaISE_EERKSC_ISC_IiSaIiEESaISK_EEi
libarrow_acero.so.1700:_ZN5arrow5acero9aggregate19ScalarAggregateNode12OutputResultEb
libarrow_acero.so.1700:_ZN5arrow5acero9aggregate19ScalarAggregateNode13InputFinishedEPNS0_8ExecNodeEi
libarrow_acero.so.1700:_ZN5arrow5acero9aggregate19ScalarAggregateNode13InputReceivedEPNS0_8ExecNodeENS_7compute9ExecBatchE
libarrow_acero.so.1700:_ZN5arrow5acero9aggregate19ScalarAggregateNode17ResetKernelStatesEv
libarrow_acero.so.1700:_ZN5arrow5acero9aggregate19ScalarAggregateNode21MakeAggregateNodeArgsERKSt10shared_ptrINS_6SchemaEERKSt6vectorINS_8FieldRefESaIS9_EESD_RKS8_INS_7compute9AggregateESaISF_EEPNSE_11ExecContextEmb
libarrow_acero.so.1700:_ZN5arrow5acero9aggregate19ScalarAggregateNode4MakeEPNS0_8ExecPlanESt6vectorIPNS0_8ExecNodeESaIS7_EERKNS0_15ExecNodeOptionsE
libarrow_acero.so.1700:_ZN5arrow5acero9aggregate19ScalarAggregateNode9DoConsumeERKNS_7compute8ExecSpanEm
libarrow_acero.so.1700:_ZN5arrow5acero9aggregate21ExtendWithGroupIdTypeERKSt6vectorINS_10TypeHolderESaIS3_EE
libarrow_acero.so.1700:_ZN5arrow5acero9aggregate22ExtractSegmenterValuesEPSt6vectorINS_5DatumESaIS3_EERKNS_7compute9ExecBatchERKS2_IiSaIiEE
libarrow_acero.so.1700:_ZN5arrow5acero9aggregate9GetKernelEPNS_7compute11ExecContextERKNS2_9AggregateERKSt6vectorINS_10TypeHolderESaIS9_EE
libarrow_acero.so.1700:_ZN5arrow8IteratorISt10shared_ptrINS_11RecordBatchEEE4NextINS_16FunctionIteratorIZNS_17MakeErrorIteratorIS3_EENS0_IT_EENS_6StatusEEUlvE_S3_EEEENS_6ResultIS3_EEPv
libarrow_acero.so.1700:_ZN5arrow8IteratorISt10shared_ptrINS_11RecordBatchEEE4NextINS_16FunctionIteratorIZNS_22MakeIteratorFromReaderINS_17RecordBatchReaderEEENS0_INT_9ValueTypeEEERKS1_IS9_EEUlvE_S3_EEEENS_6ResultIS3_EEPv
libarrow_acero.so.1700:_ZN5arrow8IteratorISt10shared_ptrINS_11RecordBatchEEE4NextINS_17GeneratorIteratorIS3_EEEENS_6ResultIS3_EEPv
libarrow_acero.so.1700:_ZN5arrow8IteratorISt10shared_ptrINS_11RecordBatchEEE4NextIZNS_8internal14SerialExecutor16IterateGeneratorIS3_EENS0_IT_EENS6_6FnOnceIFNS_6ResultISt8functionIFNS_6FutureIS9_EEvEEEEPNS6_8ExecutorEEEEE14SerialIteratorEENSC_IS3_EEPv
libarrow_acero.so.1700:_ZN5arrow8IteratorISt10shared_ptrINS_11RecordBatchEEE6DeleteINS_16FunctionIteratorIZNS_17MakeErrorIteratorIS3_EENS0_IT_EENS_6StatusEEUlvE_S3_EEEEvPv
libarrow_acero.so.1700:_ZN5arrow8IteratorISt10shared_ptrINS_11RecordBatchEEE6DeleteINS_16FunctionIteratorIZNS_22MakeIteratorFromReaderINS_17RecordBatchReaderEEENS0_INT_9ValueTypeEEERKS1_IS9_EEUlvE_S3_EEEEvPv
libarrow_acero.so.1700:_ZN5arrow8IteratorISt10shared_ptrINS_11RecordBatchEEE6DeleteINS_17GeneratorIteratorIS3_EEEEvPv
libarrow_acero.so.1700:_ZN5arrow8IteratorISt10shared_ptrINS_11RecordBatchEEE6DeleteIZNS_8internal14SerialExecutor16IterateGeneratorIS3_EENS0_IT_EENS6_6FnOnceIFNS_6ResultISt8functionIFNS_6FutureIS9_EEvEEEEPNS6_8ExecutorEEEEE14SerialIteratorEEvPv
libarrow_acero.so.1700:_ZN5arrow8IteratorISt10shared_ptrINS_7compute9ExecBatchEEE4NextINS_14VectorIteratorIS4_EEEENS_6ResultIS4_EEPv
libarrow_acero.so.1700:_ZN5arrow8IteratorISt10shared_ptrINS_7compute9ExecBatchEEE6DeleteINS_14VectorIteratorIS4_EEEEvPv
libarrow_acero.so.1700:_ZN5arrow8IteratorISt8optionalINS_7compute9ExecBatchEEE4NextINS_17GeneratorIteratorIS4_EEEENS_6ResultIS4_EEPv
libarrow_acero.so.1700:_ZN5arrow8IteratorISt8optionalINS_7compute9ExecBatchEEE6DeleteINS_17GeneratorIteratorIS4_EEEEvPv
libarrow_acero.so.1700:_ZNK5arrow5acero10TracedNode11TraceFinishEv
libarrow_acero.so.1700:_ZNK5arrow5acero10TracedNode17NoteInputReceivedERKNS_7compute9ExecBatchE
libarrow_acero.so.1700:_ZNK5arrow5acero10TracedNode18NoteStartProducingENSt7__cxx1112basic_stringIcSt11char_traitsIcESaIcEEE
libarrow_acero.so.1700:_ZNK5arrow5acero10TracedNode18TraceInputReceivedERKNS_7compute9ExecBatchE
libarrow_acero.so.1700:_ZNK5arrow5acero10TracedNode19TraceStartProducingENSt7__cxx1112basic_stringIcSt11char_traitsIcESaIcEEE
libarrow_acero.so.1700:_ZNK5arrow5acero11Declaration7IsValidEPNS0_19ExecFactoryRegistryE
libarrow_acero.so.1700:_ZNK5arrow5acero11Declaration9AddToPlanEPNS0_8ExecPlanEPNS0_19ExecFactoryRegistryE
libarrow_acero.so.1700:_ZNK5arrow5acero12QueryContext14hardware_flagsEv
libarrow_acero.so.1700:_ZNK5arrow5acero12QueryContext15max_concurrencyEv
libarrow_acero.so.1700:_ZNK5arrow5acero12QueryContext8cpu_infoEv
libarrow_acero.so.1700:_ZNK5arrow5acero14HashJoinSchema14HasLargeBinaryEv
libarrow_acero.so.1700:_ZNK5arrow5acero14HashJoinSchema15HasDictionariesEv
libarrow_acero.so.1700:_ZNK5arrow5acero17HashJoinDictBuild10RemapInputEPNS_7compute11ExecContextERKNS_5DatumElRKSt10shared_ptrINS_8DataTypeEE
libarrow_acero.so.1700:_ZNK5arrow5acero17HashJoinDictBuild11RemapOutputERKNS_9ArrayDataEPNS_7compute11ExecContextE
libarrow_acero.so.1700:_ZNK5arrow5acero17HashJoinDictBuild16RemapInputValuesEPNS_7compute11ExecContextERKNS_5DatumEl
libarrow_acero.so.1700:_ZNK5arrow5acero17SwissTableForJoin20payload_id_to_key_idEj
libarrow_acero.so.1700:_ZNK5arrow5acero18BlockedBloomFilter10NumBitsSetEv
libarrow_acero.so.1700:_ZNK5arrow5acero18BlockedBloomFilter15NumHashBitsUsedEv
libarrow_acero.so.1700:_ZNK5arrow5acero18BlockedBloomFilter4FindEllPKjPhb
libarrow_acero.so.1700:_ZNK5arrow5acero18BlockedBloomFilter4FindEllPKmPhb
libarrow_acero.so.1700:_ZNK5arrow5acero18BlockedBloomFilter8IsSameAsEPKS1_
libarrow_acero.so.1700:_ZNK5arrow5acero18BlockedBloomFilter9Find_avx2ElPKjPh
libarrow_acero.so.1700:_ZNK5arrow5acero18BlockedBloomFilter9Find_avx2ElPKmPh
libarrow_acero.so.1700:_ZNK5arrow5acero18JoinResidualFilter10EvalFilterERKNS_7compute9ExecBatchEiPKtPKjS9_
libarrow_acero.so.1700:_ZNK5arrow5acero18JoinResidualFilter11FilterInnerERKNS_7compute9ExecBatchEiPtPjS7_bPNS_4util15TempVectorStackEPi
libarrow_acero.so.1700:_ZNK5arrow5acero18JoinResidualFilter14FilterLeftAntiERKNS_7compute9ExecBatchEiiPKhPKjbPNS_4util15TempVectorStackEPiPt
libarrow_acero.so.1700:_ZNK5arrow5acero18JoinResidualFilter14FilterLeftSemiERKNS_7compute9ExecBatchEiiPKhPKjbPNS_4util15TempVectorStackEPiPt
libarrow_acero.so.1700:_ZNK5arrow5acero18JoinResidualFilter14FilterOneBatchERKNS_7compute9ExecBatchEiPtPjS7_bbPNS_4util15TempVectorStackEPi
libarrow_acero.so.1700:_ZNK5arrow5acero18JoinResidualFilter19FilterRightSemiAntiElRKNS_7compute9ExecBatchEiiPKhPKjbPNS_4util15TempVectorStackE
libarrow_acero.so.1700:_ZNK5arrow5acero18JoinResidualFilter22MaterializeFilterInputERKNS_7compute9ExecBatchEiPKtPKjS9_
libarrow_acero.so.1700:_ZNK5arrow5acero21JoinResultMaterialize10NeedsKeyIdEv
libarrow_acero.so.1700:_ZNK5arrow5acero21JoinResultMaterialize14HasProbeOutputEv
libarrow_acero.so.1700:_ZNK5arrow5acero21JoinResultMaterialize14NeedsPayloadIdEv
libarrow_acero.so.1700:_ZNK5arrow5acero21JoinResultMaterialize17HasBuildKeyOutputEv
libarrow_acero.so.1700:_ZNK5arrow5acero21JoinResultMaterialize21HasBuildPayloadOutputEv
libarrow_acero.so.1700:_ZNK5arrow5acero22HashJoinDictBuildMulti11EncodeBatchEmRKNS0_20SchemaProjectionMapsINS0_18HashJoinProjectionEEERKNS_7compute9ExecBatchEPNS7_8internal10RowEncoderEPNS7_11ExecContextE
libarrow_acero.so.1700:_ZNK5arrow5acero7MapNode8orderingEv
libarrow_acero.so.1700:_ZNK5arrow5acero8ExecNode13ToStringExtraB5cxx11Ei
libarrow_acero.so.1700:_ZNK5arrow5acero8ExecNode8ToStringB5cxx11Ei
libarrow_acero.so.1700:_ZNK5arrow5acero8ExecNode8ValidateEv
libarrow_acero.so.1700:_ZNK5arrow5acero8ExecNode8orderingEv
libarrow_acero.so.1700:_ZNK5arrow5acero8ExecPlan11HasMetadataEv
libarrow_acero.so.1700:_ZNK5arrow5acero8ExecPlan5nodesEv
libarrow_acero.so.1700:_ZNK5arrow5acero8ExecPlan8ToStringB5cxx11Ev
libarrow_acero.so.1700:_ZNK5arrow5acero8ExecPlan8metadataEv
libarrow_acero.so.1700:_ZNK5arrow5acero8RowArray14DecodeSelectedEPNS_7compute18ResizableArrayDataEiiPKjPNS_10MemoryPoolE
libarrow_acero.so.1700:_ZNK5arrow5acero8RowArray16DebugPrintToFileEPKcb
libarrow_acero.so.1700:_ZNK5arrow5acero9aggregate11GroupByNode13ToStringExtraB5cxx11Ei
libarrow_acero.so.1700:_ZNK5arrow5acero9aggregate19ScalarAggregateNode13ToStringExtraB5cxx11Ei
libarrow_acero.so.1700:_ZNSt17_Function_handlerIFN5arrow6FutureISt8optionalINS0_7compute9ExecBatchEEEEvENS0_19BackgroundGeneratorIS5_EEE10_M_managerERSt9_Any_dataRKSB_St18_Manager_operation
libarrow_acero.so.1700:_ZNSt17_Function_handlerIFN5arrow6FutureISt8optionalINS0_7compute9ExecBatchEEEEvENS0_19BackgroundGeneratorIS5_EEE9_M_invokeERKSt9_Any_data
libarrow_acero.so.1700:_ZNSt17_Function_handlerIFN5arrow6FutureISt8optionalINS0_7compute9ExecBatchEEEEvEZNS0_19MakeVectorGeneratorIS5_EESt8functionIFNS1_IT_EEvEESt6vectorISA_SaISA_EEEUlvE_E10_M_managerERSt9_Any_dataRKSJ_St18_Manager_operation
libarrow_acero.so.1700:_ZNSt17_Function_handlerIFN5arrow6FutureISt8optionalINS0_7compute9ExecBatchEEEEvEZNS0_19MakeVectorGeneratorIS5_EESt8functionIFNS1_IT_EEvEESt6vectorISA_SaISA_EEEUlvE_E9_M_invokeERKSt9_Any_data
libarrow_acero.so.1700:_ZNSt17_Function_handlerIFN5arrow6ResultIPNS0_5acero8ExecNodeEEEPNS2_8ExecPlanESt6vectorIS4_SaIS4_EERKNS2_15ExecNodeOptionsEEPSE_E10_M_managerERSt9_Any_dataRKSH_St18_Manager_operation
libarrow_acero.so.1700:_ZNSt17_Function_handlerIFN5arrow6ResultIPNS0_5acero8ExecNodeEEEPNS2_8ExecPlanESt6vectorIS4_SaIS4_EERKNS2_15ExecNodeOptionsEEPSE_E9_M_invokeERKSt9_Any_dataOS7_OSA_SD_
libarrow_acero.so.1700:_ZNSt17_Function_handlerIFN5arrow6StatusEilEZNS0_5acero12HashJoinNode4InitEvEUlilE0_E10_M_managerERSt9_Any_dataRKS7_St18_Manager_operation
libarrow_acero.so.1700:_ZNSt17_Function_handlerIFN5arrow6StatusEilEZNS0_5acero12HashJoinNode4InitEvEUlilE0_E9_M_invokeERKSt9_Any_dataOiOl
libarrow_acero.so.1700:_ZNSt17_Function_handlerIFN5arrow6StatusEilEZNS0_5acero12HashJoinNode4InitEvEUlilE_E10_M_managerERSt9_Any_dataRKS7_St18_Manager_operation
libarrow_acero.so.1700:_ZNSt17_Function_handlerIFN5arrow6StatusEilEZNS0_5acero12HashJoinNode4InitEvEUlilE_E9_M_invokeERKSt9_Any_dataOiOl
libarrow_acero.so.1700:_ZNSt17_Function_handlerIFN5arrow6StatusElEZNS0_5acero12HashJoinNode4InitEvEUllE_E10_M_managerERSt9_Any_dataRKS7_St18_Manager_operation
libarrow_acero.so.1700:_ZNSt17_Function_handlerIFN5arrow6StatusElEZNS0_5acero12HashJoinNode4InitEvEUllE_E9_M_invokeERKSt9_Any_dataOl
libarrow_acero.so.1700:_ZNSt17_Function_handlerIFN5arrow6StatusElNS0_7compute9ExecBatchEEZNS0_5acero12HashJoinNode4InitEvEUllS3_E_E10_M_managerERSt9_Any_dataRKS9_St18_Manager_operation
libarrow_acero.so.1700:_ZNSt17_Function_handlerIFN5arrow6StatusElNS0_7compute9ExecBatchEEZNS0_5acero12HashJoinNode4InitEvEUllS3_E_E9_M_invokeERKSt9_Any_dataOlOS3_
libarrow_acero.so.1700:_ZNSt17_Function_handlerIFN5arrow6StatusEmEZNS0_5acero12HashJoinNode21OnBloomFilterFinishedEmNS3_4util17AccumulationQueueEEUlmE_E10_M_managerERSt9_Any_dataRKS9_St18_Manager_operation
libarrow_acero.so.1700:_ZNSt17_Function_handlerIFN5arrow6StatusEmEZNS0_5acero12HashJoinNode21OnBloomFilterFinishedEmNS3_4util17AccumulationQueueEEUlmE_E9_M_invokeERKSt9_Any_dataOm
libarrow_acero.so.1700:_ZNSt17_Function_handlerIFN5arrow6StatusEmEZNS0_5acero12HashJoinNode4InitEvEUlmE0_E10_M_managerERSt9_Any_dataRKS7_St18_Manager_operation
libarrow_acero.so.1700:_ZNSt17_Function_handlerIFN5arrow6StatusEmEZNS0_5acero12HashJoinNode4InitEvEUlmE0_E9_M_invokeERKSt9_Any_dataOm
libarrow_acero.so.1700:_ZNSt17_Function_handlerIFN5arrow6StatusEmEZNS0_5acero12HashJoinNode4InitEvEUlmE_E10_M_managerERSt9_Any_dataRKS7_St18_Manager_operation
libarrow_acero.so.1700:_ZNSt17_Function_handlerIFN5arrow6StatusEmEZNS0_5acero12HashJoinNode4InitEvEUlmE_E9_M_invokeERKSt9_Any_dataOm
libarrow_acero.so.1700:_ZNSt17_Function_handlerIFN5arrow6StatusEmEZNS0_5acero17HashJoinBasicImpl21RegisterScanHashTableEvEUlmE_E10_M_managerERSt9_Any_dataRKS7_St18_Manager_operation
libarrow_acero.so.1700:_ZNSt17_Function_handlerIFN5arrow6StatusEmEZNS0_5acero17HashJoinBasicImpl21RegisterScanHashTableEvEUlmE_E9_M_invokeERKSt9_Any_dataOm
